
========================================================================

** ELF Header Information

    File Name: .\obj\YongMengOilSenser.axf

    Machine class: ELFCLASS32 (32-bit)
    Data encoding: ELFDATA2LSB (Little endian)
    Header version: EV_CURRENT (Current version)
    Operating System ABI: none
    ABI Version: 0
    File Type: ET_EXEC (Executable) (2)
    Machine: EM_ARM (ARM)

    Image Entry point: 0x000001d5
    Flags: EF_ARM_HASENTRY (0x05000002)

    ARM ELF revision: 5 (ABI version 2)

    Built with
    ARM C/C++ Compiler, 4.1 [Build 481]
    ARM Assembler, 4.1 [Build 481]
    ARM Linker, 4.1 [Build 481] 
    ARM Linker, 4.1 [Build 478] 

    Header size: 52 bytes (0x34)
    Program header entry size: 32 bytes (0x20)
    Section header entry size: 40 bytes (0x28)

    Program header entries: 1
    Section header entries: 16

    Program header offset: 186904 (0x0002da18)
    Section header offset: 186936 (0x0002da38)

    Section header string table index: 15

========================================================================

** Program header #0 (PT_LOAD) [PF_X + PF_W + PF_R + PF_ARM_ENTRY]
    Size : 9124 bytes (6720 bytes in file)
    Virtual address: 0x00000000 (Alignment 8)


========================================================================

** Section #1 'ER_RO' (SHT_PROGBITS) [SHF_ALLOC + SHF_EXECINSTR]
    Size   : 5644 bytes (alignment 4)
    Address: 0x00000000

    $d.realdata
    RESET
    __Vectors
        0x00000000:    20000d98    ...     DCD    536874392
        0x00000004:    000001d5    ....    DCD    469
        0x00000008:    000001fb    ....    DCD    507
        0x0000000c:    00000181    ....    DCD    385
        0x00000010:    00000000    ....    DCD    0
        0x00000014:    00000000    ....    DCD    0
        0x00000018:    00000000    ....    DCD    0
        0x0000001c:    00000000    ....    DCD    0
        0x00000020:    00000000    ....    DCD    0
        0x00000024:    00000000    ....    DCD    0
        0x00000028:    00000000    ....    DCD    0
        0x0000002c:    000001ff    ....    DCD    511
        0x00000030:    00000000    ....    DCD    0
        0x00000034:    00000000    ....    DCD    0
        0x00000038:    00000201    ....    DCD    513
        0x0000003c:    00000203    ....    DCD    515
        0x00000040:    00000205    ....    DCD    517
        0x00000044:    00000205    ....    DCD    517
        0x00000048:    00000205    ....    DCD    517
        0x0000004c:    00000205    ....    DCD    517
        0x00000050:    00000205    ....    DCD    517
        0x00000054:    00000205    ....    DCD    517
        0x00000058:    00000205    ....    DCD    517
        0x0000005c:    00000205    ....    DCD    517
        0x00000060:    00000205    ....    DCD    517
        0x00000064:    00000f0d    ....    DCD    3853
        0x00000068:    00000205    ....    DCD    517
        0x0000006c:    00000205    ....    DCD    517
        0x00000070:    00000f51    Q...    DCD    3921
        0x00000074:    00000205    ....    DCD    517
        0x00000078:    00000205    ....    DCD    517
        0x0000007c:    00000205    ....    DCD    517
        0x00000080:    00000205    ....    DCD    517
        0x00000084:    00000205    ....    DCD    517
        0x00000088:    00000205    ....    DCD    517
        0x0000008c:    00000205    ....    DCD    517
        0x00000090:    00000205    ....    DCD    517
        0x00000094:    00000205    ....    DCD    517
        0x00000098:    00000205    ....    DCD    517
        0x0000009c:    00000205    ....    DCD    517
        0x000000a0:    00000205    ....    DCD    517
        0x000000a4:    00000205    ....    DCD    517
        0x000000a8:    00000205    ....    DCD    517
        0x000000ac:    00000205    ....    DCD    517
        0x000000b0:    00000205    ....    DCD    517
        0x000000b4:    00000205    ....    DCD    517
        0x000000b8:    00000205    ....    DCD    517
        0x000000bc:    00000205    ....    DCD    517
    $t
    !!!main
    __main
        0x000000c0:    f000f802    ....    BL       __scatterload ; 0xc8
        0x000000c4:    f000f84d    ..M.    BL       __rt_entry ; 0x162
    !!!scatter
    __scatterload
    __scatterload_rt2
    __scatterload_rt2_thumb_only
        0x000000c8:    a00c        ..      ADR      r0,{pc}+0x34 ; 0xfc
        0x000000ca:    c830        0.      LDM      r0!,{r4,r5}
        0x000000cc:    3808        .8      SUBS     r0,r0,#8
        0x000000ce:    1824        $.      ADDS     r4,r4,r0
        0x000000d0:    182d        -.      ADDS     r5,r5,r0
        0x000000d2:    46a2        .F      MOV      r10,r4
        0x000000d4:    1e67        g.      SUBS     r7,r4,#1
        0x000000d6:    46ab        .F      MOV      r11,r5
    __scatterload_null
        0x000000d8:    4654        TF      MOV      r4,r10
        0x000000da:    465d        ]F      MOV      r5,r11
        0x000000dc:    42ac        .B      CMP      r4,r5
        0x000000de:    d101        ..      BNE      0xe4 ; __scatterload_null + 12
        0x000000e0:    f000f83f    ..?.    BL       __rt_entry ; 0x162
        0x000000e4:    467e        ~F      MOV      r6,pc
        0x000000e6:    3e0f        .>      SUBS     r6,r6,#0xf
        0x000000e8:    cc0f        ..      LDM      r4!,{r0-r3}
        0x000000ea:    46b6        .F      MOV      lr,r6
        0x000000ec:    2601        .&      MOVS     r6,#1
        0x000000ee:    4233        3B      TST      r3,r6
        0x000000f0:    d000        ..      BEQ      0xf4 ; __scatterload_null + 28
        0x000000f2:    1afb        ..      SUBS     r3,r7,r3
        0x000000f4:    46a2        .F      MOV      r10,r4
        0x000000f6:    46ab        .F      MOV      r11,r5
        0x000000f8:    4333        3C      ORRS     r3,r3,r6
        0x000000fa:    4718        .G      BX       r3
    $d
        0x000000fc:    000014f0    ....    DCD    5360
        0x00000100:    00001510    ....    DCD    5392
    $t
    !!handler_copy
    __scatterload_copy
        0x00000104:    3a10        .:      SUBS     r2,r2,#0x10
        0x00000106:    d302        ..      BCC      0x10e ; __scatterload_copy + 10
        0x00000108:    c878        x.      LDM      r0!,{r3-r6}
        0x0000010a:    c178        x.      STM      r1!,{r3-r6}
        0x0000010c:    d8fa        ..      BHI      __scatterload_copy ; 0x104
        0x0000010e:    0752        R.      LSLS     r2,r2,#29
        0x00000110:    d301        ..      BCC      0x116 ; __scatterload_copy + 18
        0x00000112:    c830        0.      LDM      r0!,{r4,r5}
        0x00000114:    c130        0.      STM      r1!,{r4,r5}
        0x00000116:    d501        ..      BPL      0x11c ; __scatterload_copy + 24
        0x00000118:    6804        .h      LDR      r4,[r0,#0]
        0x0000011a:    600c        .`      STR      r4,[r1,#0]
        0x0000011c:    4770        pG      BX       lr
        0x0000011e:    0000        ..      MOVS     r0,r0
    !!handler_zi
    __scatterload_zeroinit
        0x00000120:    2300        .#      MOVS     r3,#0
        0x00000122:    2400        .$      MOVS     r4,#0
        0x00000124:    2500        .%      MOVS     r5,#0
        0x00000126:    2600        .&      MOVS     r6,#0
        0x00000128:    3a10        .:      SUBS     r2,r2,#0x10
        0x0000012a:    d301        ..      BCC      0x130 ; __scatterload_zeroinit + 16
        0x0000012c:    c178        x.      STM      r1!,{r3-r6}
        0x0000012e:    d8fb        ..      BHI      0x128 ; __scatterload_zeroinit + 8
        0x00000130:    0752        R.      LSLS     r2,r2,#29
        0x00000132:    d300        ..      BCC      0x136 ; __scatterload_zeroinit + 22
        0x00000134:    c130        0.      STM      r1!,{r4,r5}
        0x00000136:    d500        ..      BPL      0x13a ; __scatterload_zeroinit + 26
        0x00000138:    600b        .`      STR      r3,[r1,#0]
        0x0000013a:    4770        pG      BX       lr
    .ARM.Collect$$_printf_percent$$00000000
    _printf_percent
        0x0000013c:    b510        ..      PUSH     {r4,lr}
    .ARM.Collect$$_printf_percent$$00000009
    _printf_d
        0x0000013e:    2964        d)      CMP      r1,#0x64
        0x00000140:    d102        ..      BNE      _printf_x ; 0x148
        0x00000142:    f000f88f    ....    BL       _printf_int_dec ; 0x264
        0x00000146:    bd10        ..      POP      {r4,pc}
    .ARM.Collect$$_printf_percent$$0000000C
    _printf_x
        0x00000148:    2978        x)      CMP      r1,#0x78
        0x0000014a:    d102        ..      BNE      _printf_percent_end ; 0x152
        0x0000014c:    f000f8c0    ....    BL       _printf_int_hex ; 0x2d0
        0x00000150:    bd10        ..      POP      {r4,pc}
    .ARM.Collect$$_printf_percent$$00000017
    _printf_percent_end
        0x00000152:    2000        .       MOVS     r0,#0
        0x00000154:    bd10        ..      POP      {r4,pc}
    .ARM.Collect$$libinit$$00000000
    __rt_lib_init
        0x00000156:    b51f        ..      PUSH     {r0-r4,lr}
        0x00000158:    46c0        .F      MOV      r8,r8
        0x0000015a:    46c0        .F      MOV      r8,r8
    .ARM.Collect$$libinit$$00000006
    .ARM.Collect$$libinit$$00000008
    .ARM.Collect$$libinit$$0000000A
    .ARM.Collect$$libinit$$0000000D
    .ARM.Collect$$libinit$$0000000F
    .ARM.Collect$$libinit$$00000011
    .ARM.Collect$$libinit$$00000013
    .ARM.Collect$$libinit$$00000015
    .ARM.Collect$$libinit$$00000017
    .ARM.Collect$$libinit$$00000019
    .ARM.Collect$$libinit$$0000001B
    .ARM.Collect$$libinit$$0000001D
    .ARM.Collect$$libinit$$0000001F
    .ARM.Collect$$libinit$$00000021
    .ARM.Collect$$libinit$$00000028
    .ARM.Collect$$libinit$$0000002A
    .ARM.Collect$$libinit$$0000002C
    .ARM.Collect$$libinit$$0000002E
    .ARM.Collect$$libinit$$0000002F
    __rt_lib_init_alloca_1
    __rt_lib_init_argv_1
    __rt_lib_init_atexit_1
    __rt_lib_init_clock_1
    __rt_lib_init_cpp_1
    __rt_lib_init_exceptions_1
    __rt_lib_init_fp_trap_1
    __rt_lib_init_getenv_1
    __rt_lib_init_heap_1
    __rt_lib_init_lc_collate_1
    __rt_lib_init_lc_ctype_1
    __rt_lib_init_lc_monetary_1
    __rt_lib_init_lc_numeric_1
    __rt_lib_init_lc_time_1
    __rt_lib_init_rand_1
    __rt_lib_init_return
    __rt_lib_init_signal_1
    __rt_lib_init_stdio_1
    __rt_lib_init_user_alloc_1
        0x0000015c:    bd1f        ..      POP      {r0-r4,pc}
    .ARM.Collect$$libshutdown$$00000000
    __rt_lib_shutdown
        0x0000015e:    b510        ..      PUSH     {r4,lr}
    .ARM.Collect$$libshutdown$$00000003
    .ARM.Collect$$libshutdown$$00000006
    .ARM.Collect$$libshutdown$$00000009
    .ARM.Collect$$libshutdown$$0000000B
    .ARM.Collect$$libshutdown$$0000000E
    .ARM.Collect$$libshutdown$$0000000F
    __rt_lib_shutdown_fp_trap_1
    __rt_lib_shutdown_heap_1
    __rt_lib_shutdown_return
    __rt_lib_shutdown_signal_1
    __rt_lib_shutdown_stdio_1
    __rt_lib_shutdown_user_alloc_1
        0x00000160:    bd10        ..      POP      {r4,pc}
    .ARM.Collect$$rtentry$$00000000
    .ARM.Collect$$rtentry$$00000002
    .ARM.Collect$$rtentry$$00000004
    __rt_entry
    __rt_entry_presh_1
    __rt_entry_sh
        0x00000162:    f000fab3    ....    BL       __user_setup_stackheap ; 0x6cc
        0x00000166:    4611        .F      MOV      r1,r2
    .ARM.Collect$$rtentry$$00000009
    .ARM.Collect$$rtentry$$0000000A
    __rt_entry_li
    __rt_entry_postsh_1
        0x00000168:    f7fffff5    ....    BL       __rt_lib_init ; 0x156
    .ARM.Collect$$rtentry$$0000000C
    .ARM.Collect$$rtentry$$0000000D
    __rt_entry_main
    __rt_entry_postli_1
        0x0000016c:    f001f946    ..F.    BL       main ; 0x13fc
        0x00000170:    f000facb    ....    BL       exit ; 0x70a
    .ARM.Collect$$rtexit$$00000000
    __rt_exit
        0x00000174:    b403        ..      PUSH     {r0,r1}
    .ARM.Collect$$rtexit$$00000002
    .ARM.Collect$$rtexit$$00000003
    __rt_exit_ls
    __rt_exit_prels_1
        0x00000176:    f7fffff2    ....    BL       __rt_lib_shutdown ; 0x15e
    .ARM.Collect$$rtexit$$00000004
    __rt_exit_exit
        0x0000017a:    bc03        ..      POP      {r0,r1}
        0x0000017c:    f000fad0    ....    BL       _sys_exit ; 0x720
    .emb_text
    HardFault_Handler
        0x00000180:    2004        .       MOVS     r0,#4
        0x00000182:    4671        qF      MOV      r1,lr
        0x00000184:    4208        .B      TST      r0,r1
        0x00000186:    d002        ..      BEQ      0x18e ; HardFault_Handler + 14
        0x00000188:    f3ef8009    ....    MRS      r0,PSP
        0x0000018c:    e001        ..      B        0x192 ; HardFault_Handler + 18
        0x0000018e:    f3ef8008    ....    MRS      r0,MSP
        0x00000192:    4671        qF      MOV      r1,lr
        0x00000194:    4a00        .J      LDR      r2,[pc,#0] ; [0x198] = 0xc15
        0x00000196:    4710        .G      BX       r2
    $d
        0x00000198:    00000c15    ....    DCD    3093
    $t
    .emb_text
    __aeabi_memcpy4
    __aeabi_memcpy8
        0x0000019c:    b570        p.      PUSH     {r4-r6,lr}
        0x0000019e:    4605        .F      MOV      r5,r0
        0x000001a0:    460c        .F      MOV      r4,r1
        0x000001a2:    4616        .F      MOV      r6,r2
        0x000001a4:    e002        ..      B        0x1ac ; __aeabi_memcpy4 + 16
        0x000001a6:    cc0f        ..      LDM      r4!,{r0-r3}
        0x000001a8:    c50f        ..      STM      r5!,{r0-r3}
        0x000001aa:    3e10        .>      SUBS     r6,r6,#0x10
        0x000001ac:    2e10        ..      CMP      r6,#0x10
        0x000001ae:    d2fa        ..      BCS      0x1a6 ; __aeabi_memcpy4 + 10
        0x000001b0:    2e08        ..      CMP      r6,#8
        0x000001b2:    d302        ..      BCC      0x1ba ; __aeabi_memcpy4 + 30
        0x000001b4:    cc03        ..      LDM      r4!,{r0,r1}
        0x000001b6:    c503        ..      STM      r5!,{r0,r1}
        0x000001b8:    3e08        .>      SUBS     r6,r6,#8
        0x000001ba:    2e04        ..      CMP      r6,#4
        0x000001bc:    d307        ..      BCC      0x1ce ; __aeabi_memcpy4 + 50
        0x000001be:    cc01        ..      LDM      r4!,{r0}
        0x000001c0:    c501        ..      STM      r5!,{r0}
        0x000001c2:    1f36        6.      SUBS     r6,r6,#4
        0x000001c4:    e003        ..      B        0x1ce ; __aeabi_memcpy4 + 50
        0x000001c6:    7821        !x      LDRB     r1,[r4,#0]
        0x000001c8:    7029        )p      STRB     r1,[r5,#0]
        0x000001ca:    1c64        d.      ADDS     r4,r4,#1
        0x000001cc:    1c6d        m.      ADDS     r5,r5,#1
        0x000001ce:    1e76        v.      SUBS     r6,r6,#1
        0x000001d0:    d2f9        ..      BCS      0x1c6 ; __aeabi_memcpy4 + 42
        0x000001d2:    bd70        p.      POP      {r4-r6,pc}
    .text
    Reset_Handler
        0x000001d4:    480f        .H      LDR      r0,[pc,#60] ; [0x214] = 0x50000100
        0x000001d6:    4910        .I      LDR      r1,[pc,#64] ; [0x218] = 0x59
        0x000001d8:    6001        .`      STR      r1,[r0,#0]
        0x000001da:    4910        .I      LDR      r1,[pc,#64] ; [0x21c] = 0x16
        0x000001dc:    6001        .`      STR      r1,[r0,#0]
        0x000001de:    4910        .I      LDR      r1,[pc,#64] ; [0x220] = 0x88
        0x000001e0:    6001        .`      STR      r1,[r0,#0]
        0x000001e2:    4a10        .J      LDR      r2,[pc,#64] ; [0x224] = 0x50000024
        0x000001e4:    4910        .I      LDR      r1,[pc,#64] ; [0x228] = 0x5aa5
        0x000001e6:    6011        .`      STR      r1,[r2,#0]
        0x000001e8:    4a10        .J      LDR      r2,[pc,#64] ; [0x22c] = 0x50000380
        0x000001ea:    4911        .I      LDR      r1,[pc,#68] ; [0x230] = 0x1f
        0x000001ec:    6011        .`      STR      r1,[r2,#0]
        0x000001ee:    2100        .!      MOVS     r1,#0
        0x000001f0:    6001        .`      STR      r1,[r0,#0]
        0x000001f2:    4810        .H      LDR      r0,[pc,#64] ; [0x234] = 0xdb9
        0x000001f4:    4780        .G      BLX      r0
        0x000001f6:    4810        .H      LDR      r0,[pc,#64] ; [0x238] = 0xc1
        0x000001f8:    4700        .G      BX       r0
    NMI_Handler
        0x000001fa:    e7fe        ..      B        NMI_Handler ; 0x1fa
        0x000001fc:    e7fe        ..      B        0x1fc ; NMI_Handler + 2
    SVC_Handler
        0x000001fe:    e7fe        ..      B        SVC_Handler ; 0x1fe
    PendSV_Handler
        0x00000200:    e7fe        ..      B        PendSV_Handler ; 0x200
    SysTick_Handler
        0x00000202:    e7fe        ..      B        SysTick_Handler ; 0x202
    Default_Handler
    ADC_IRQHandler
    BOD_IRQHandler
    EINT0_IRQHandler
    EINT1_IRQHandler
    GPIOP0P1_IRQHandler
    GPIOP2P3P4_IRQHandler
    I2C_IRQHandler
    PWMA_IRQHandler
    PWMB_IRQHandler
    PWRWU_IRQHandler
    SPI0_IRQHandler
    SPI1_IRQHandler
    SPI2_IRQHandler
    SPI3_IRQHandler
    TMR0_IRQHandler
    TMR2_IRQHandler
    TMR3_IRQHandler
    UART1_IRQHandler
    WDT_IRQHandler
        0x00000204:    e7fe        ..      B        Default_Handler ; 0x204
    $d
        0x00000206:    0000        ..      DCW    0
    $t
    __user_initial_stackheap
        0x00000208:    480c        .H      LDR      r0,[pc,#48] ; [0x23c] = 0x20000998
        0x0000020a:    490d        .I      LDR      r1,[pc,#52] ; [0x240] = 0x20000d98
        0x0000020c:    4a0b        .J      LDR      r2,[pc,#44] ; [0x23c] = 0x20000998
        0x0000020e:    4b0d        .K      LDR      r3,[pc,#52] ; [0x244] = 0x20000998
        0x00000210:    4770        pG      BX       lr
    $d
        0x00000212:    0000        ..      DCW    0
        0x00000214:    50000100    ...P    DCD    1342177536
        0x00000218:    00000059    Y...    DCD    89
        0x0000021c:    00000016    ....    DCD    22
        0x00000220:    00000088    ....    DCD    136
        0x00000224:    50000024    $..P    DCD    1342177316
        0x00000228:    00005aa5    .Z..    DCD    23205
        0x0000022c:    50000380    ...P    DCD    1342178176
        0x00000230:    0000001f    ....    DCD    31
        0x00000234:    00000db9    ....    DCD    3513
        0x00000238:    000000c1    ....    DCD    193
        0x0000023c:    20000998    ...     DCD    536873368
        0x00000240:    20000d98    ...     DCD    536874392
        0x00000244:    20000998    ...     DCD    536873368
    $t
    .text
    __2printf
        0x00000248:    b40f        ..      PUSH     {r0-r3}
        0x0000024a:    4905        .I      LDR      r1,[pc,#20] ; [0x260] = 0x2000000c
        0x0000024c:    b510        ..      PUSH     {r4,lr}
        0x0000024e:    aa03        ..      ADD      r2,sp,#0xc
        0x00000250:    9802        ..      LDR      r0,[sp,#8]
        0x00000252:    f000f9fb    ....    BL       _printf_char_file ; 0x64c
        0x00000256:    bc10        ..      POP      {r4}
        0x00000258:    bc08        ..      POP      {r3}
        0x0000025a:    b004        ..      ADD      sp,sp,#0x10
        0x0000025c:    4718        .G      BX       r3
    $d
        0x0000025e:    0000        ..      DCW    0
        0x00000260:    2000000c    ...     DCD    536870924
    $t
    .text
    _printf_int_dec
        0x00000264:    b5f7        ..      PUSH     {r0-r2,r4-r7,lr}
        0x00000266:    2600        .&      MOVS     r6,#0
        0x00000268:    2975        u)      CMP      r1,#0x75
        0x0000026a:    6810        .h      LDR      r0,[r2,#0]
        0x0000026c:    9900        ..      LDR      r1,[sp,#0]
        0x0000026e:    a514        ..      ADR      r5,{pc}+0x52 ; 0x2c0
        0x00000270:    d011        ..      BEQ      0x296 ; _printf_int_dec + 50
        0x00000272:    46c0        .F      MOV      r8,r8
        0x00000274:    46c0        .F      MOV      r8,r8
        0x00000276:    2800        .(      CMP      r0,#0
        0x00000278:    da02        ..      BGE      0x280 ; _printf_int_dec + 28
        0x0000027a:    4240        @B      RSBS     r0,r0,#0
        0x0000027c:    a511        ..      ADR      r5,{pc}+0x48 ; 0x2c4
        0x0000027e:    e008        ..      B        0x292 ; _printf_int_dec + 46
        0x00000280:    9900        ..      LDR      r1,[sp,#0]
        0x00000282:    6809        .h      LDR      r1,[r1,#0]
        0x00000284:    078a        ..      LSLS     r2,r1,#30
        0x00000286:    d501        ..      BPL      0x28c ; _printf_int_dec + 40
        0x00000288:    a50f        ..      ADR      r5,{pc}+0x40 ; 0x2c8
        0x0000028a:    e002        ..      B        0x292 ; _printf_int_dec + 46
        0x0000028c:    0749        I.      LSLS     r1,r1,#29
        0x0000028e:    d504        ..      BPL      0x29a ; _printf_int_dec + 54
        0x00000290:    a50e        ..      ADR      r5,{pc}+0x3c ; 0x2cc
        0x00000292:    2601        .&      MOVS     r6,#1
        0x00000294:    e001        ..      B        0x29a ; _printf_int_dec + 54
        0x00000296:    46c0        .F      MOV      r8,r8
        0x00000298:    46c0        .F      MOV      r8,r8
        0x0000029a:    9f00        ..      LDR      r7,[sp,#0]
        0x0000029c:    2400        .$      MOVS     r4,#0
        0x0000029e:    3724        $7      ADDS     r7,r7,#0x24
        0x000002a0:    e004        ..      B        0x2ac ; _printf_int_dec + 72
        0x000002a2:    f000f9e7    ....    BL       __rt_udiv10 ; 0x674
        0x000002a6:    3130        01      ADDS     r1,r1,#0x30
        0x000002a8:    5539        9U      STRB     r1,[r7,r4]
        0x000002aa:    1c64        d.      ADDS     r4,r4,#1
        0x000002ac:    2800        .(      CMP      r0,#0
        0x000002ae:    d1f8        ..      BNE      0x2a2 ; _printf_int_dec + 62
        0x000002b0:    4633        3F      MOV      r3,r6
        0x000002b2:    462a        *F      MOV      r2,r5
        0x000002b4:    4621        !F      MOV      r1,r4
        0x000002b6:    9800        ..      LDR      r0,[sp,#0]
        0x000002b8:    f000f972    ..r.    BL       _printf_int_common ; 0x5a0
        0x000002bc:    bdfe        ..      POP      {r1-r7,pc}
    $d
        0x000002be:    0000        ..      DCW    0
        0x000002c0:    00000000    ....    DCD    0
        0x000002c4:    0000002d    -...    DCD    45
        0x000002c8:    0000002b    +...    DCD    43
        0x000002cc:    00000020     ...    DCD    32
    $t
    .text
    _printf_int_hex
    _printf_longlong_hex
        0x000002d0:    b570        p.      PUSH     {r4-r6,lr}
        0x000002d2:    4604        .F      MOV      r4,r0
        0x000002d4:    460d        .F      MOV      r5,r1
        0x000002d6:    4621        !F      MOV      r1,r4
        0x000002d8:    6810        .h      LDR      r0,[r2,#0]
        0x000002da:    46c0        .F      MOV      r8,r8
        0x000002dc:    46c0        .F      MOV      r8,r8
        0x000002de:    6821        !h      LDR      r1,[r4,#0]
        0x000002e0:    0509        ..      LSLS     r1,r1,#20
        0x000002e2:    d502        ..      BPL      0x2ea ; _printf_int_hex + 26
        0x000002e4:    4a0f        .J      LDR      r2,[pc,#60] ; [0x324] = 0x12da
        0x000002e6:    447a        zD      ADD      r2,r2,pc
        0x000002e8:    e002        ..      B        0x2f0 ; _printf_int_hex + 32
        0x000002ea:    4a0e        .J      LDR      r2,[pc,#56] ; [0x324] = 0x12da
        0x000002ec:    447a        zD      ADD      r2,r2,pc
        0x000002ee:    320e        .2      ADDS     r2,r2,#0xe
        0x000002f0:    4623        #F      MOV      r3,r4
        0x000002f2:    2100        .!      MOVS     r1,#0
        0x000002f4:    3324        $3      ADDS     r3,r3,#0x24
        0x000002f6:    e005        ..      B        0x304 ; _printf_int_hex + 52
        0x000002f8:    0706        ..      LSLS     r6,r0,#28
        0x000002fa:    0f36        6.      LSRS     r6,r6,#28
        0x000002fc:    5d96        .]      LDRB     r6,[r2,r6]
        0x000002fe:    545e        ^T      STRB     r6,[r3,r1]
        0x00000300:    1c49        I.      ADDS     r1,r1,#1
        0x00000302:    0900        ..      LSRS     r0,r0,#4
        0x00000304:    2800        .(      CMP      r0,#0
        0x00000306:    d1f7        ..      BNE      0x2f8 ; _printf_int_hex + 40
        0x00000308:    6820         h      LDR      r0,[r4,#0]
        0x0000030a:    2300        .#      MOVS     r3,#0
        0x0000030c:    0700        ..      LSLS     r0,r0,#28
        0x0000030e:    d505        ..      BPL      0x31c ; _printf_int_hex + 76
        0x00000310:    2d70        p-      CMP      r5,#0x70
        0x00000312:    d003        ..      BEQ      0x31c ; _printf_int_hex + 76
        0x00000314:    2900        .)      CMP      r1,#0
        0x00000316:    d001        ..      BEQ      0x31c ; _printf_int_hex + 76
        0x00000318:    3211        .2      ADDS     r2,r2,#0x11
        0x0000031a:    2302        .#      MOVS     r3,#2
        0x0000031c:    4620         F      MOV      r0,r4
        0x0000031e:    f000f93f    ..?.    BL       _printf_int_common ; 0x5a0
        0x00000322:    bd70        p.      POP      {r4-r6,pc}
    $d
        0x00000324:    000012da    ....    DCD    4826
    $t
    .text
    __printf
        0x00000328:    b5f3        ..      PUSH     {r0,r1,r4-r7,lr}
        0x0000032a:    4604        .F      MOV      r4,r0
        0x0000032c:    2000        .       MOVS     r0,#0
        0x0000032e:    b081        ..      SUB      sp,sp,#4
        0x00000330:    e082        ..      B        0x438 ; __printf + 272
        0x00000332:    68e1        .h      LDR      r1,[r4,#0xc]
        0x00000334:    4620         F      MOV      r0,r4
        0x00000336:    4788        .G      BLX      r1
        0x00000338:    2800        .(      CMP      r0,#0
        0x0000033a:    d07f        ..      BEQ      0x43c ; __printf + 276
        0x0000033c:    2825        %(      CMP      r0,#0x25
        0x0000033e:    d002        ..      BEQ      0x346 ; __printf + 30
        0x00000340:    6862        bh      LDR      r2,[r4,#4]
        0x00000342:    68a1        .h      LDR      r1,[r4,#8]
        0x00000344:    e075        u.      B        0x432 ; __printf + 266
        0x00000346:    68e1        .h      LDR      r1,[r4,#0xc]
        0x00000348:    4620         F      MOV      r0,r4
        0x0000034a:    2600        .&      MOVS     r6,#0
        0x0000034c:    4788        .G      BLX      r1
        0x0000034e:    4605        .F      MOV      r5,r0
        0x00000350:    2000        .       MOVS     r0,#0
        0x00000352:    61e0        .a      STR      r0,[r4,#0x1c]
        0x00000354:    4607        .F      MOV      r7,r0
        0x00000356:    61a0        .a      STR      r0,[r4,#0x18]
        0x00000358:    2d2a        *-      CMP      r5,#0x2a
        0x0000035a:    d00b        ..      BEQ      0x374 ; __printf + 76
        0x0000035c:    4629        )F      MOV      r1,r5
        0x0000035e:    2201        ."      MOVS     r2,#1
        0x00000360:    3930        09      SUBS     r1,r1,#0x30
        0x00000362:    290a        .)      CMP      r1,#0xa
        0x00000364:    d22b        +.      BCS      0x3be ; __printf + 150
        0x00000366:    2a00        .*      CMP      r2,#0
        0x00000368:    d029        ).      BEQ      0x3be ; __printf + 150
        0x0000036a:    00b8        ..      LSLS     r0,r7,#2
        0x0000036c:    1900        ..      ADDS     r0,r0,r4
        0x0000036e:    9000        ..      STR      r0,[sp,#0]
        0x00000370:    6181        .a      STR      r1,[r0,#0x18]
        0x00000372:    e019        ..      B        0x3a8 ; __printf + 128
        0x00000374:    9802        ..      LDR      r0,[sp,#8]
        0x00000376:    00ba        ..      LSLS     r2,r7,#2
        0x00000378:    1912        ..      ADDS     r2,r2,r4
        0x0000037a:    c802        ..      LDM      r0!,{r1}
        0x0000037c:    6191        .a      STR      r1,[r2,#0x18]
        0x0000037e:    9002        ..      STR      r0,[sp,#8]
        0x00000380:    4620         F      MOV      r0,r4
        0x00000382:    68e1        .h      LDR      r1,[r4,#0xc]
        0x00000384:    4788        .G      BLX      r1
        0x00000386:    2f01        ./      CMP      r7,#1
        0x00000388:    4605        .F      MOV      r5,r0
        0x0000038a:    d11a        ..      BNE      0x3c2 ; __printf + 154
        0x0000038c:    69e0        .i      LDR      r0,[r4,#0x1c]
        0x0000038e:    2800        .(      CMP      r0,#0
        0x00000390:    da22        ".      BGE      0x3d8 ; __printf + 176
        0x00000392:    2020                MOVS     r0,#0x20
        0x00000394:    4386        .C      BICS     r6,r6,r0
        0x00000396:    e01f        ..      B        0x3d8 ; __printf + 176
        0x00000398:    9800        ..      LDR      r0,[sp,#0]
        0x0000039a:    210a        .!      MOVS     r1,#0xa
        0x0000039c:    6980        .i      LDR      r0,[r0,#0x18]
        0x0000039e:    4348        HC      MULS     r0,r1,r0
        0x000003a0:    9900        ..      LDR      r1,[sp,#0]
        0x000003a2:    1940        @.      ADDS     r0,r0,r5
        0x000003a4:    3830        08      SUBS     r0,r0,#0x30
        0x000003a6:    6188        .a      STR      r0,[r1,#0x18]
        0x000003a8:    4620         F      MOV      r0,r4
        0x000003aa:    68e1        .h      LDR      r1,[r4,#0xc]
        0x000003ac:    4788        .G      BLX      r1
        0x000003ae:    4605        .F      MOV      r5,r0
        0x000003b0:    2001        .       MOVS     r0,#1
        0x000003b2:    4629        )F      MOV      r1,r5
        0x000003b4:    3930        09      SUBS     r1,r1,#0x30
        0x000003b6:    290a        .)      CMP      r1,#0xa
        0x000003b8:    d201        ..      BCS      0x3be ; __printf + 150
        0x000003ba:    2800        .(      CMP      r0,#0
        0x000003bc:    d1ec        ..      BNE      0x398 ; __printf + 112
        0x000003be:    2f01        ./      CMP      r7,#1
        0x000003c0:    d00a        ..      BEQ      0x3d8 ; __printf + 176
        0x000003c2:    2d2e        .-      CMP      r5,#0x2e
        0x000003c4:    d108        ..      BNE      0x3d8 ; __printf + 176
        0x000003c6:    4620         F      MOV      r0,r4
        0x000003c8:    68e1        .h      LDR      r1,[r4,#0xc]
        0x000003ca:    4788        .G      BLX      r1
        0x000003cc:    4605        .F      MOV      r5,r0
        0x000003ce:    2020                MOVS     r0,#0x20
        0x000003d0:    4306        .C      ORRS     r6,r6,r0
        0x000003d2:    1c7f        ..      ADDS     r7,r7,#1
        0x000003d4:    2f02        ./      CMP      r7,#2
        0x000003d6:    dbbf        ..      BLT      0x358 ; __printf + 48
        0x000003d8:    69a0        .i      LDR      r0,[r4,#0x18]
        0x000003da:    2800        .(      CMP      r0,#0
        0x000003dc:    da03        ..      BGE      0x3e6 ; __printf + 190
        0x000003de:    4240        @B      RSBS     r0,r0,#0
        0x000003e0:    61a0        .a      STR      r0,[r4,#0x18]
        0x000003e2:    2001        .       MOVS     r0,#1
        0x000003e4:    4306        .C      ORRS     r6,r6,r0
        0x000003e6:    07f0        ..      LSLS     r0,r6,#31
        0x000003e8:    d001        ..      BEQ      0x3ee ; __printf + 198
        0x000003ea:    2010        .       MOVS     r0,#0x10
        0x000003ec:    4386        .C      BICS     r6,r6,r0
        0x000003ee:    2d00        .-      CMP      r5,#0
        0x000003f0:    d024        $.      BEQ      0x43c ; __printf + 276
        0x000003f2:    4628        (F      MOV      r0,r5
        0x000003f4:    3841        A8      SUBS     r0,r0,#0x41
        0x000003f6:    2819        .(      CMP      r0,#0x19
        0x000003f8:    d803        ..      BHI      0x402 ; __printf + 218
        0x000003fa:    2001        .       MOVS     r0,#1
        0x000003fc:    02c0        ..      LSLS     r0,r0,#11
        0x000003fe:    4306        .C      ORRS     r6,r6,r0
        0x00000400:    3520         5      ADDS     r5,r5,#0x20
        0x00000402:    4620         F      MOV      r0,r4
        0x00000404:    6026        &`      STR      r6,[r4,#0]
        0x00000406:    4629        )F      MOV      r1,r5
        0x00000408:    9a02        ..      LDR      r2,[sp,#8]
        0x0000040a:    4616        .F      MOV      r6,r2
        0x0000040c:    f7fffe96    ....    BL       _printf_percent ; 0x13c
        0x00000410:    2800        .(      CMP      r0,#0
        0x00000412:    d00b        ..      BEQ      0x42c ; __printf + 260
        0x00000414:    2801        .(      CMP      r0,#1
        0x00000416:    d006        ..      BEQ      0x426 ; __printf + 254
        0x00000418:    1df6        ..      ADDS     r6,r6,#7
        0x0000041a:    08f0        ..      LSRS     r0,r6,#3
        0x0000041c:    00c0        ..      LSLS     r0,r0,#3
        0x0000041e:    3008        .0      ADDS     r0,r0,#8
        0x00000420:    9002        ..      STR      r0,[sp,#8]
        0x00000422:    e786        ..      B        0x332 ; __printf + 10
        0x00000424:    e00a        ..      B        0x43c ; __printf + 276
        0x00000426:    1d36        6.      ADDS     r6,r6,#4
        0x00000428:    9602        ..      STR      r6,[sp,#8]
        0x0000042a:    e782        ..      B        0x332 ; __printf + 10
        0x0000042c:    6862        bh      LDR      r2,[r4,#4]
        0x0000042e:    4628        (F      MOV      r0,r5
        0x00000430:    68a1        .h      LDR      r1,[r4,#8]
        0x00000432:    4790        .G      BLX      r2
        0x00000434:    6a20         j      LDR      r0,[r4,#0x20]
        0x00000436:    1c40        @.      ADDS     r0,r0,#1
        0x00000438:    6220         b      STR      r0,[r4,#0x20]
        0x0000043a:    e77a        z.      B        0x332 ; __printf + 10
        0x0000043c:    6a20         j      LDR      r0,[r4,#0x20]
        0x0000043e:    bdfe        ..      POP      {r1-r7,pc}
    .text
    __aeabi_uidiv
    __aeabi_uidivmod
        0x00000440:    2200        ."      MOVS     r2,#0
        0x00000442:    0903        ..      LSRS     r3,r0,#4
        0x00000444:    428b        .B      CMP      r3,r1
        0x00000446:    d32c        ,.      BCC      0x4a2 ; __aeabi_idiv + 78
        0x00000448:    0a03        ..      LSRS     r3,r0,#8
        0x0000044a:    428b        .B      CMP      r3,r1
        0x0000044c:    d311        ..      BCC      0x472 ; __aeabi_idiv + 30
        0x0000044e:    2300        .#      MOVS     r3,#0
        0x00000450:    469c        .F      MOV      r12,r3
        0x00000452:    e04e        N.      B        0x4f2 ; __aeabi_idiv + 158
    __aeabi_idiv
    __aeabi_idivmod
        0x00000454:    4603        .F      MOV      r3,r0
        0x00000456:    430b        .C      ORRS     r3,r3,r1
        0x00000458:    d43c        <.      BMI      0x4d4 ; __aeabi_idiv + 128
        0x0000045a:    2200        ."      MOVS     r2,#0
        0x0000045c:    0843        C.      LSRS     r3,r0,#1
        0x0000045e:    428b        .B      CMP      r3,r1
        0x00000460:    d331        1.      BCC      0x4c6 ; __aeabi_idiv + 114
        0x00000462:    0903        ..      LSRS     r3,r0,#4
        0x00000464:    428b        .B      CMP      r3,r1
        0x00000466:    d31c        ..      BCC      0x4a2 ; __aeabi_idiv + 78
        0x00000468:    0a03        ..      LSRS     r3,r0,#8
        0x0000046a:    428b        .B      CMP      r3,r1
        0x0000046c:    d301        ..      BCC      0x472 ; __aeabi_idiv + 30
        0x0000046e:    4694        .F      MOV      r12,r2
        0x00000470:    e03f        ?.      B        0x4f2 ; __aeabi_idiv + 158
        0x00000472:    09c3        ..      LSRS     r3,r0,#7
        0x00000474:    428b        .B      CMP      r3,r1
        0x00000476:    d301        ..      BCC      0x47c ; __aeabi_idiv + 40
        0x00000478:    01cb        ..      LSLS     r3,r1,#7
        0x0000047a:    1ac0        ..      SUBS     r0,r0,r3
        0x0000047c:    4152        RA      ADCS     r2,r2,r2
        0x0000047e:    0983        ..      LSRS     r3,r0,#6
        0x00000480:    428b        .B      CMP      r3,r1
        0x00000482:    d301        ..      BCC      0x488 ; __aeabi_idiv + 52
        0x00000484:    018b        ..      LSLS     r3,r1,#6
        0x00000486:    1ac0        ..      SUBS     r0,r0,r3
        0x00000488:    4152        RA      ADCS     r2,r2,r2
        0x0000048a:    0943        C.      LSRS     r3,r0,#5
        0x0000048c:    428b        .B      CMP      r3,r1
        0x0000048e:    d301        ..      BCC      0x494 ; __aeabi_idiv + 64
        0x00000490:    014b        K.      LSLS     r3,r1,#5
        0x00000492:    1ac0        ..      SUBS     r0,r0,r3
        0x00000494:    4152        RA      ADCS     r2,r2,r2
        0x00000496:    0903        ..      LSRS     r3,r0,#4
        0x00000498:    428b        .B      CMP      r3,r1
        0x0000049a:    d301        ..      BCC      0x4a0 ; __aeabi_idiv + 76
        0x0000049c:    010b        ..      LSLS     r3,r1,#4
        0x0000049e:    1ac0        ..      SUBS     r0,r0,r3
        0x000004a0:    4152        RA      ADCS     r2,r2,r2
        0x000004a2:    08c3        ..      LSRS     r3,r0,#3
        0x000004a4:    428b        .B      CMP      r3,r1
        0x000004a6:    d301        ..      BCC      0x4ac ; __aeabi_idiv + 88
        0x000004a8:    00cb        ..      LSLS     r3,r1,#3
        0x000004aa:    1ac0        ..      SUBS     r0,r0,r3
        0x000004ac:    4152        RA      ADCS     r2,r2,r2
        0x000004ae:    0883        ..      LSRS     r3,r0,#2
        0x000004b0:    428b        .B      CMP      r3,r1
        0x000004b2:    d301        ..      BCC      0x4b8 ; __aeabi_idiv + 100
        0x000004b4:    008b        ..      LSLS     r3,r1,#2
        0x000004b6:    1ac0        ..      SUBS     r0,r0,r3
        0x000004b8:    4152        RA      ADCS     r2,r2,r2
        0x000004ba:    0843        C.      LSRS     r3,r0,#1
        0x000004bc:    428b        .B      CMP      r3,r1
        0x000004be:    d301        ..      BCC      0x4c4 ; __aeabi_idiv + 112
        0x000004c0:    004b        K.      LSLS     r3,r1,#1
        0x000004c2:    1ac0        ..      SUBS     r0,r0,r3
        0x000004c4:    4152        RA      ADCS     r2,r2,r2
        0x000004c6:    1a41        A.      SUBS     r1,r0,r1
        0x000004c8:    d200        ..      BCS      0x4cc ; __aeabi_idiv + 120
        0x000004ca:    4601        .F      MOV      r1,r0
        0x000004cc:    4152        RA      ADCS     r2,r2,r2
        0x000004ce:    4610        .F      MOV      r0,r2
        0x000004d0:    4770        pG      BX       lr
        0x000004d2:    e05d        ].      B        0x590 ; __aeabi_idiv + 316
        0x000004d4:    0fca        ..      LSRS     r2,r1,#31
        0x000004d6:    d000        ..      BEQ      0x4da ; __aeabi_idiv + 134
        0x000004d8:    4249        IB      RSBS     r1,r1,#0
        0x000004da:    1003        ..      ASRS     r3,r0,#32
        0x000004dc:    d300        ..      BCC      0x4e0 ; __aeabi_idiv + 140
        0x000004de:    4240        @B      RSBS     r0,r0,#0
        0x000004e0:    4053        S@      EORS     r3,r3,r2
        0x000004e2:    2200        ."      MOVS     r2,#0
        0x000004e4:    469c        .F      MOV      r12,r3
        0x000004e6:    0903        ..      LSRS     r3,r0,#4
        0x000004e8:    428b        .B      CMP      r3,r1
        0x000004ea:    d32d        -.      BCC      0x548 ; __aeabi_idiv + 244
        0x000004ec:    0a03        ..      LSRS     r3,r0,#8
        0x000004ee:    428b        .B      CMP      r3,r1
        0x000004f0:    d312        ..      BCC      0x518 ; __aeabi_idiv + 196
        0x000004f2:    22fc        ."      MOVS     r2,#0xfc
        0x000004f4:    0189        ..      LSLS     r1,r1,#6
        0x000004f6:    ba12        ..      REV      r2,r2
        0x000004f8:    0a03        ..      LSRS     r3,r0,#8
        0x000004fa:    428b        .B      CMP      r3,r1
        0x000004fc:    d30c        ..      BCC      0x518 ; __aeabi_idiv + 196
        0x000004fe:    0189        ..      LSLS     r1,r1,#6
        0x00000500:    1192        ..      ASRS     r2,r2,#6
        0x00000502:    428b        .B      CMP      r3,r1
        0x00000504:    d308        ..      BCC      0x518 ; __aeabi_idiv + 196
        0x00000506:    0189        ..      LSLS     r1,r1,#6
        0x00000508:    1192        ..      ASRS     r2,r2,#6
        0x0000050a:    428b        .B      CMP      r3,r1
        0x0000050c:    d304        ..      BCC      0x518 ; __aeabi_idiv + 196
        0x0000050e:    0189        ..      LSLS     r1,r1,#6
        0x00000510:    d03a        :.      BEQ      0x588 ; __aeabi_idiv + 308
        0x00000512:    1192        ..      ASRS     r2,r2,#6
        0x00000514:    e000        ..      B        0x518 ; __aeabi_idiv + 196
        0x00000516:    0989        ..      LSRS     r1,r1,#6
        0x00000518:    09c3        ..      LSRS     r3,r0,#7
        0x0000051a:    428b        .B      CMP      r3,r1
        0x0000051c:    d301        ..      BCC      0x522 ; __aeabi_idiv + 206
        0x0000051e:    01cb        ..      LSLS     r3,r1,#7
        0x00000520:    1ac0        ..      SUBS     r0,r0,r3
        0x00000522:    4152        RA      ADCS     r2,r2,r2
        0x00000524:    0983        ..      LSRS     r3,r0,#6
        0x00000526:    428b        .B      CMP      r3,r1
        0x00000528:    d301        ..      BCC      0x52e ; __aeabi_idiv + 218
        0x0000052a:    018b        ..      LSLS     r3,r1,#6
        0x0000052c:    1ac0        ..      SUBS     r0,r0,r3
        0x0000052e:    4152        RA      ADCS     r2,r2,r2
        0x00000530:    0943        C.      LSRS     r3,r0,#5
        0x00000532:    428b        .B      CMP      r3,r1
        0x00000534:    d301        ..      BCC      0x53a ; __aeabi_idiv + 230
        0x00000536:    014b        K.      LSLS     r3,r1,#5
        0x00000538:    1ac0        ..      SUBS     r0,r0,r3
        0x0000053a:    4152        RA      ADCS     r2,r2,r2
        0x0000053c:    0903        ..      LSRS     r3,r0,#4
        0x0000053e:    428b        .B      CMP      r3,r1
        0x00000540:    d301        ..      BCC      0x546 ; __aeabi_idiv + 242
        0x00000542:    010b        ..      LSLS     r3,r1,#4
        0x00000544:    1ac0        ..      SUBS     r0,r0,r3
        0x00000546:    4152        RA      ADCS     r2,r2,r2
        0x00000548:    08c3        ..      LSRS     r3,r0,#3
        0x0000054a:    428b        .B      CMP      r3,r1
        0x0000054c:    d301        ..      BCC      0x552 ; __aeabi_idiv + 254
        0x0000054e:    00cb        ..      LSLS     r3,r1,#3
        0x00000550:    1ac0        ..      SUBS     r0,r0,r3
        0x00000552:    4152        RA      ADCS     r2,r2,r2
        0x00000554:    0883        ..      LSRS     r3,r0,#2
        0x00000556:    428b        .B      CMP      r3,r1
        0x00000558:    d301        ..      BCC      0x55e ; __aeabi_idiv + 266
        0x0000055a:    008b        ..      LSLS     r3,r1,#2
        0x0000055c:    1ac0        ..      SUBS     r0,r0,r3
        0x0000055e:    4152        RA      ADCS     r2,r2,r2
        0x00000560:    d2d9        ..      BCS      0x516 ; __aeabi_idiv + 194
        0x00000562:    0843        C.      LSRS     r3,r0,#1
        0x00000564:    428b        .B      CMP      r3,r1
        0x00000566:    d301        ..      BCC      0x56c ; __aeabi_idiv + 280
        0x00000568:    004b        K.      LSLS     r3,r1,#1
        0x0000056a:    1ac0        ..      SUBS     r0,r0,r3
        0x0000056c:    4152        RA      ADCS     r2,r2,r2
        0x0000056e:    1a41        A.      SUBS     r1,r0,r1
        0x00000570:    d200        ..      BCS      0x574 ; __aeabi_idiv + 288
        0x00000572:    4601        .F      MOV      r1,r0
        0x00000574:    4663        cF      MOV      r3,r12
        0x00000576:    4152        RA      ADCS     r2,r2,r2
        0x00000578:    105b        [.      ASRS     r3,r3,#1
        0x0000057a:    4610        .F      MOV      r0,r2
        0x0000057c:    d301        ..      BCC      0x582 ; __aeabi_idiv + 302
        0x0000057e:    4240        @B      RSBS     r0,r0,#0
        0x00000580:    2b00        .+      CMP      r3,#0
        0x00000582:    d500        ..      BPL      0x586 ; __aeabi_idiv + 306
        0x00000584:    4249        IB      RSBS     r1,r1,#0
        0x00000586:    4770        pG      BX       lr
        0x00000588:    4663        cF      MOV      r3,r12
        0x0000058a:    105b        [.      ASRS     r3,r3,#1
        0x0000058c:    d300        ..      BCC      0x590 ; __aeabi_idiv + 316
        0x0000058e:    4240        @B      RSBS     r0,r0,#0
        0x00000590:    b501        ..      PUSH     {r0,lr}
        0x00000592:    2000        .       MOVS     r0,#0
        0x00000594:    46c0        .F      MOV      r8,r8
        0x00000596:    46c0        .F      MOV      r8,r8
        0x00000598:    bd02        ..      POP      {r1,pc}
    .text
    __use_two_region_memory
        0x0000059a:    4770        pG      BX       lr
    __rt_heap_escrow$2region
        0x0000059c:    4770        pG      BX       lr
    __rt_heap_expand$2region
        0x0000059e:    4770        pG      BX       lr
    .text
    _printf_int_common
        0x000005a0:    b5ff        ..      PUSH     {r0-r7,lr}
        0x000005a2:    4604        .F      MOV      r4,r0
        0x000005a4:    460d        .F      MOV      r5,r1
        0x000005a6:    b081        ..      SUB      sp,sp,#4
        0x000005a8:    3024        $0      ADDS     r0,r0,#0x24
        0x000005aa:    9000        ..      STR      r0,[sp,#0]
        0x000005ac:    6821        !h      LDR      r1,[r4,#0]
        0x000005ae:    0688        ..      LSLS     r0,r1,#26
        0x000005b0:    d504        ..      BPL      0x5bc ; _printf_int_common + 28
        0x000005b2:    2210        ."      MOVS     r2,#0x10
        0x000005b4:    69e0        .i      LDR      r0,[r4,#0x1c]
        0x000005b6:    4391        .C      BICS     r1,r1,r2
        0x000005b8:    6021        !`      STR      r1,[r4,#0]
        0x000005ba:    e000        ..      B        0x5be ; _printf_int_common + 30
        0x000005bc:    2001        .       MOVS     r0,#1
        0x000005be:    2700        .'      MOVS     r7,#0
        0x000005c0:    42a8        .B      CMP      r0,r5
        0x000005c2:    dd00        ..      BLE      0x5c6 ; _printf_int_common + 38
        0x000005c4:    1b47        G.      SUBS     r7,r0,r5
        0x000005c6:    9804        ..      LDR      r0,[sp,#0x10]
        0x000005c8:    69a1        .i      LDR      r1,[r4,#0x18]
        0x000005ca:    197a        z.      ADDS     r2,r7,r5
        0x000005cc:    1810        ..      ADDS     r0,r2,r0
        0x000005ce:    1a08        ..      SUBS     r0,r1,r0
        0x000005d0:    61a0        .a      STR      r0,[r4,#0x18]
        0x000005d2:    6820         h      LDR      r0,[r4,#0]
        0x000005d4:    06c0        ..      LSLS     r0,r0,#27
        0x000005d6:    d402        ..      BMI      0x5de ; _printf_int_common + 62
        0x000005d8:    4620         F      MOV      r0,r4
        0x000005da:    46c0        .F      MOV      r8,r8
        0x000005dc:    46c0        .F      MOV      r8,r8
        0x000005de:    2600        .&      MOVS     r6,#0
        0x000005e0:    e008        ..      B        0x5f4 ; _printf_int_common + 84
        0x000005e2:    9803        ..      LDR      r0,[sp,#0xc]
        0x000005e4:    6862        bh      LDR      r2,[r4,#4]
        0x000005e6:    68a1        .h      LDR      r1,[r4,#8]
        0x000005e8:    5d80        .]      LDRB     r0,[r0,r6]
        0x000005ea:    4790        .G      BLX      r2
        0x000005ec:    6a20         j      LDR      r0,[r4,#0x20]
        0x000005ee:    1c40        @.      ADDS     r0,r0,#1
        0x000005f0:    1c76        v.      ADDS     r6,r6,#1
        0x000005f2:    6220         b      STR      r0,[r4,#0x20]
        0x000005f4:    9804        ..      LDR      r0,[sp,#0x10]
        0x000005f6:    4286        .B      CMP      r6,r0
        0x000005f8:    dbf3        ..      BLT      0x5e2 ; _printf_int_common + 66
        0x000005fa:    6820         h      LDR      r0,[r4,#0]
        0x000005fc:    06c0        ..      LSLS     r0,r0,#27
        0x000005fe:    d50a        ..      BPL      0x616 ; _printf_int_common + 118
        0x00000600:    4620         F      MOV      r0,r4
        0x00000602:    46c0        .F      MOV      r8,r8
        0x00000604:    46c0        .F      MOV      r8,r8
        0x00000606:    e006        ..      B        0x616 ; _printf_int_common + 118
        0x00000608:    6862        bh      LDR      r2,[r4,#4]
        0x0000060a:    68a1        .h      LDR      r1,[r4,#8]
        0x0000060c:    2030        0       MOVS     r0,#0x30
        0x0000060e:    4790        .G      BLX      r2
        0x00000610:    6a20         j      LDR      r0,[r4,#0x20]
        0x00000612:    1c40        @.      ADDS     r0,r0,#1
        0x00000614:    6220         b      STR      r0,[r4,#0x20]
        0x00000616:    4638        8F      MOV      r0,r7
        0x00000618:    1e7f        ..      SUBS     r7,r7,#1
        0x0000061a:    2800        .(      CMP      r0,#0
        0x0000061c:    dcf4        ..      BGT      0x608 ; _printf_int_common + 104
        0x0000061e:    e007        ..      B        0x630 ; _printf_int_common + 144
        0x00000620:    9800        ..      LDR      r0,[sp,#0]
        0x00000622:    6862        bh      LDR      r2,[r4,#4]
        0x00000624:    68a1        .h      LDR      r1,[r4,#8]
        0x00000626:    5d40        @]      LDRB     r0,[r0,r5]
        0x00000628:    4790        .G      BLX      r2
        0x0000062a:    6a20         j      LDR      r0,[r4,#0x20]
        0x0000062c:    1c40        @.      ADDS     r0,r0,#1
        0x0000062e:    6220         b      STR      r0,[r4,#0x20]
        0x00000630:    4628        (F      MOV      r0,r5
        0x00000632:    1e6d        m.      SUBS     r5,r5,#1
        0x00000634:    2800        .(      CMP      r0,#0
        0x00000636:    dcf3        ..      BGT      0x620 ; _printf_int_common + 128
        0x00000638:    4620         F      MOV      r0,r4
        0x0000063a:    46c0        .F      MOV      r8,r8
        0x0000063c:    46c0        .F      MOV      r8,r8
        0x0000063e:    6821        !h      LDR      r1,[r4,#0]
        0x00000640:    2002        .       MOVS     r0,#2
        0x00000642:    0609        ..      LSLS     r1,r1,#24
        0x00000644:    d400        ..      BMI      0x648 ; _printf_int_common + 168
        0x00000646:    2001        .       MOVS     r0,#1
        0x00000648:    b005        ..      ADD      sp,sp,#0x14
        0x0000064a:    bdf0        ..      POP      {r4-r7,pc}
    .text
    _printf_char_file
        0x0000064c:    4b08        .K      LDR      r3,[pc,#32] ; [0x670] = 0xd97
        0x0000064e:    b570        p.      PUSH     {r4-r6,lr}
        0x00000650:    460c        .F      MOV      r4,r1
        0x00000652:    447b        {D      ADD      r3,r3,pc
        0x00000654:    f000f827    ..'.    BL       _printf_char_common ; 0x6a6
        0x00000658:    4605        .F      MOV      r5,r0
        0x0000065a:    4620         F      MOV      r0,r4
        0x0000065c:    f000fec2    ....    BL       ferror ; 0x13e4
        0x00000660:    2800        .(      CMP      r0,#0
        0x00000662:    d002        ..      BEQ      0x66a ; _printf_char_file + 30
        0x00000664:    2000        .       MOVS     r0,#0
        0x00000666:    43c0        .C      MVNS     r0,r0
        0x00000668:    bd70        p.      POP      {r4-r6,pc}
        0x0000066a:    4628        (F      MOV      r0,r5
        0x0000066c:    bd70        p.      POP      {r4-r6,pc}
    $d
        0x0000066e:    0000        ..      DCW    0
        0x00000670:    00000d97    ....    DCD    3479
    $t
    .text
    __rt_udiv10
        0x00000674:    4601        .F      MOV      r1,r0
        0x00000676:    0880        ..      LSRS     r0,r0,#2
        0x00000678:    1a08        ..      SUBS     r0,r1,r0
        0x0000067a:    0902        ..      LSRS     r2,r0,#4
        0x0000067c:    1810        ..      ADDS     r0,r2,r0
        0x0000067e:    0a02        ..      LSRS     r2,r0,#8
        0x00000680:    1810        ..      ADDS     r0,r2,r0
        0x00000682:    0c02        ..      LSRS     r2,r0,#16
        0x00000684:    1810        ..      ADDS     r0,r2,r0
        0x00000686:    08c0        ..      LSRS     r0,r0,#3
        0x00000688:    0082        ..      LSLS     r2,r0,#2
        0x0000068a:    1812        ..      ADDS     r2,r2,r0
        0x0000068c:    0052        R.      LSLS     r2,r2,#1
        0x0000068e:    1a89        ..      SUBS     r1,r1,r2
        0x00000690:    e001        ..      B        0x696 ; __rt_udiv10 + 34
        0x00000692:    390a        .9      SUBS     r1,r1,#0xa
        0x00000694:    1c40        @.      ADDS     r0,r0,#1
        0x00000696:    290a        .)      CMP      r1,#0xa
        0x00000698:    d2fb        ..      BCS      0x692 ; __rt_udiv10 + 30
        0x0000069a:    4770        pG      BX       lr
    .text
    _printf_input_char
        0x0000069c:    6901        .i      LDR      r1,[r0,#0x10]
        0x0000069e:    1c4a        J.      ADDS     r2,r1,#1
        0x000006a0:    6102        .a      STR      r2,[r0,#0x10]
        0x000006a2:    7808        .x      LDRB     r0,[r1,#0]
        0x000006a4:    4770        pG      BX       lr
    _printf_char_common
        0x000006a6:    b500        ..      PUSH     {lr}
        0x000006a8:    b08f        ..      SUB      sp,sp,#0x3c
        0x000006aa:    9102        ..      STR      r1,[sp,#8]
        0x000006ac:    2100        .!      MOVS     r1,#0
        0x000006ae:    9105        ..      STR      r1,[sp,#0x14]
        0x000006b0:    4905        .I      LDR      r1,[pc,#20] ; [0x6c8] = 0xffffffe5
        0x000006b2:    9301        ..      STR      r3,[sp,#4]
        0x000006b4:    4479        yD      ADD      r1,r1,pc
        0x000006b6:    9103        ..      STR      r1,[sp,#0xc]
        0x000006b8:    4611        .F      MOV      r1,r2
        0x000006ba:    9004        ..      STR      r0,[sp,#0x10]
        0x000006bc:    4668        hF      MOV      r0,sp
        0x000006be:    f7fffe33    ..3.    BL       __printf ; 0x328
        0x000006c2:    b00f        ..      ADD      sp,sp,#0x3c
        0x000006c4:    bd00        ..      POP      {pc}
    $d
        0x000006c6:    0000        ..      DCW    0
        0x000006c8:    ffffffe5    ....    DCD    4294967269
    $t
    .text
    __user_setup_stackheap
        0x000006cc:    4675        uF      MOV      r5,lr
        0x000006ce:    f000f823    ..#.    BL       __user_libspace ; 0x718
        0x000006d2:    46ae        .F      MOV      lr,r5
        0x000006d4:    0005        ..      MOVS     r5,r0
        0x000006d6:    4669        iF      MOV      r1,sp
        0x000006d8:    4653        SF      MOV      r3,r10
        0x000006da:    08c0        ..      LSRS     r0,r0,#3
        0x000006dc:    00c0        ..      LSLS     r0,r0,#3
        0x000006de:    4685        .F      MOV      sp,r0
        0x000006e0:    b018        ..      ADD      sp,sp,#0x60
        0x000006e2:    b520         .      PUSH     {r5,lr}
        0x000006e4:    f7fffd90    ....    BL       __user_initial_stackheap ; 0x208
        0x000006e8:    bc60        `.      POP      {r5,r6}
        0x000006ea:    2700        .'      MOVS     r7,#0
        0x000006ec:    0849        I.      LSRS     r1,r1,#1
        0x000006ee:    46b6        .F      MOV      lr,r6
        0x000006f0:    2600        .&      MOVS     r6,#0
        0x000006f2:    c5c0        ..      STM      r5!,{r6,r7}
        0x000006f4:    c5c0        ..      STM      r5!,{r6,r7}
        0x000006f6:    c5c0        ..      STM      r5!,{r6,r7}
        0x000006f8:    c5c0        ..      STM      r5!,{r6,r7}
        0x000006fa:    c5c0        ..      STM      r5!,{r6,r7}
        0x000006fc:    c5c0        ..      STM      r5!,{r6,r7}
        0x000006fe:    c5c0        ..      STM      r5!,{r6,r7}
        0x00000700:    c5c0        ..      STM      r5!,{r6,r7}
        0x00000702:    3d40        @=      SUBS     r5,r5,#0x40
        0x00000704:    0049        I.      LSLS     r1,r1,#1
        0x00000706:    468d        .F      MOV      sp,r1
        0x00000708:    4770        pG      BX       lr
    .text
    exit
        0x0000070a:    4604        .F      MOV      r4,r0
        0x0000070c:    46c0        .F      MOV      r8,r8
        0x0000070e:    46c0        .F      MOV      r8,r8
        0x00000710:    4620         F      MOV      r0,r4
        0x00000712:    f7fffd2f    ../.    BL       __rt_exit ; 0x174
        0x00000716:    0000        ..      MOVS     r0,r0
    .text
    __user_libspace
    __user_perproc_libspace
    __user_perthread_libspace
        0x00000718:    4800        .H      LDR      r0,[pc,#0] ; [0x71c] = 0x20000934
        0x0000071a:    4770        pG      BX       lr
    $d
        0x0000071c:    20000934    4..     DCD    536873268
    $t
    .text
    _sys_exit
        0x00000720:    4901        .I      LDR      r1,[pc,#4] ; [0x728] = 0x20026
        0x00000722:    2018        .       MOVS     r0,#0x18
        0x00000724:    beab        ..      BKPT     #0xab
        0x00000726:    e7fe        ..      B        0x726 ; _sys_exit + 6
    $d
        0x00000728:    00020026    &...    DCD    131110
    $t
    .text
    __I$use$semihosting
    __use_no_semihosting_swi
        0x0000072c:    4770        pG      BX       lr
        0x0000072e:    0000        ..      MOVS     r0,r0
    i.CLK_EnableModuleClock
    CLK_EnableModuleClock
        0x00000730:    4906        .I      LDR      r1,[pc,#24] ; [0x74c] = 0x50000204
        0x00000732:    0f82        ..      LSRS     r2,r0,#30
        0x00000734:    0092        ..      LSLS     r2,r2,#2
        0x00000736:    5889        .X      LDR      r1,[r1,r2]
        0x00000738:    06c3        ..      LSLS     r3,r0,#27
        0x0000073a:    0edb        ..      LSRS     r3,r3,#27
        0x0000073c:    2201        ."      MOVS     r2,#1
        0x0000073e:    409a        .@      LSLS     r2,r2,r3
        0x00000740:    4311        .C      ORRS     r1,r1,r2
        0x00000742:    4a02        .J      LDR      r2,[pc,#8] ; [0x74c] = 0x50000204
        0x00000744:    0f83        ..      LSRS     r3,r0,#30
        0x00000746:    009b        ..      LSLS     r3,r3,#2
        0x00000748:    50d1        .P      STR      r1,[r2,r3]
        0x0000074a:    4770        pG      BX       lr
    $d
        0x0000074c:    50000204    ...P    DCD    1342177796
    $t
    i.CLK_EnablePLL
    CLK_EnablePLL
        0x00000750:    b5f3        ..      PUSH     {r0,r1,r4-r7,lr}
        0x00000752:    b089        ..      SUB      sp,sp,#0x24
        0x00000754:    460c        .F      MOV      r4,r1
        0x00000756:    2001        .       MOVS     r0,#1
        0x00000758:    0400        ..      LSLS     r0,r0,#16
        0x0000075a:    4953        SI      LDR      r1,[pc,#332] ; [0x8a8] = 0x50000200
        0x0000075c:    6208        .b      STR      r0,[r1,#0x20]
        0x0000075e:    9809        ..      LDR      r0,[sp,#0x24]
        0x00000760:    2800        .(      CMP      r0,#0
        0x00000762:    d10e        ..      BNE      0x782 ; CLK_EnablePLL + 50
        0x00000764:    4608        .F      MOV      r0,r1
        0x00000766:    6800        .h      LDR      r0,[r0,#0]
        0x00000768:    2101        .!      MOVS     r1,#1
        0x0000076a:    4308        .C      ORRS     r0,r0,r1
        0x0000076c:    494e        NI      LDR      r1,[pc,#312] ; [0x8a8] = 0x50000200
        0x0000076e:    6008        .`      STR      r0,[r1,#0]
        0x00000770:    2001        .       MOVS     r0,#1
        0x00000772:    f000fa1f    ....    BL       CLK_WaitClockReady ; 0xbb4
        0x00000776:    2000        .       MOVS     r0,#0
        0x00000778:    9006        ..      STR      r0,[sp,#0x18]
        0x0000077a:    484c        LH      LDR      r0,[pc,#304] ; [0x8ac] = 0xb71b00
        0x0000077c:    9008        ..      STR      r0,[sp,#0x20]
        0x0000077e:    2502        .%      MOVS     r5,#2
        0x00000780:    e00e        ..      B        0x7a0 ; CLK_EnablePLL + 80
        0x00000782:    4849        IH      LDR      r0,[pc,#292] ; [0x8a8] = 0x50000200
        0x00000784:    6800        .h      LDR      r0,[r0,#0]
        0x00000786:    2104        .!      MOVS     r1,#4
        0x00000788:    4308        .C      ORRS     r0,r0,r1
        0x0000078a:    4947        GI      LDR      r1,[pc,#284] ; [0x8a8] = 0x50000200
        0x0000078c:    6008        .`      STR      r0,[r1,#0]
        0x0000078e:    2010        .       MOVS     r0,#0x10
        0x00000790:    f000fa10    ....    BL       CLK_WaitClockReady ; 0xbb4
        0x00000794:    2001        .       MOVS     r0,#1
        0x00000796:    04c0        ..      LSLS     r0,r0,#19
        0x00000798:    9006        ..      STR      r0,[sp,#0x18]
        0x0000079a:    4845        EH      LDR      r0,[pc,#276] ; [0x8b0] = 0x1518000
        0x0000079c:    9008        ..      STR      r0,[sp,#0x20]
        0x0000079e:    2504        .%      MOVS     r5,#4
        0x000007a0:    4844        DH      LDR      r0,[pc,#272] ; [0x8b4] = 0xbebc200
        0x000007a2:    4284        .B      CMP      r4,r0
        0x000007a4:    d804        ..      BHI      0x7b0 ; CLK_EnablePLL + 96
        0x000007a6:    1040        @.      ASRS     r0,r0,#1
        0x000007a8:    4284        .B      CMP      r4,r0
        0x000007aa:    d901        ..      BLS      0x7b0 ; CLK_EnablePLL + 96
        0x000007ac:    2700        .'      MOVS     r7,#0
        0x000007ae:    e012        ..      B        0x7d6 ; CLK_EnablePLL + 134
        0x000007b0:    4841        AH      LDR      r0,[pc,#260] ; [0x8b8] = 0x5f5e100
        0x000007b2:    4284        .B      CMP      r4,r0
        0x000007b4:    d805        ..      BHI      0x7c2 ; CLK_EnablePLL + 114
        0x000007b6:    1040        @.      ASRS     r0,r0,#1
        0x000007b8:    4284        .B      CMP      r4,r0
        0x000007ba:    d902        ..      BLS      0x7c2 ; CLK_EnablePLL + 114
        0x000007bc:    2701        .'      MOVS     r7,#1
        0x000007be:    0064        d.      LSLS     r4,r4,#1
        0x000007c0:    e009        ..      B        0x7d6 ; CLK_EnablePLL + 134
        0x000007c2:    483e        >H      LDR      r0,[pc,#248] ; [0x8bc] = 0x2faf080
        0x000007c4:    4284        .B      CMP      r4,r0
        0x000007c6:    d805        ..      BHI      0x7d4 ; CLK_EnablePLL + 132
        0x000007c8:    1040        @.      ASRS     r0,r0,#1
        0x000007ca:    4284        .B      CMP      r4,r0
        0x000007cc:    d302        ..      BCC      0x7d4 ; CLK_EnablePLL + 132
        0x000007ce:    2703        .'      MOVS     r7,#3
        0x000007d0:    00a4        ..      LSLS     r4,r4,#2
        0x000007d2:    e000        ..      B        0x7d6 ; CLK_EnablePLL + 134
        0x000007d4:    e057        W.      B        0x886 ; CLK_EnablePLL + 310
        0x000007d6:    2000        .       MOVS     r0,#0
        0x000007d8:    43c0        .C      MVNS     r0,r0
        0x000007da:    9003        ..      STR      r0,[sp,#0xc]
        0x000007dc:    2000        .       MOVS     r0,#0
        0x000007de:    9001        ..      STR      r0,[sp,#4]
        0x000007e0:    9002        ..      STR      r0,[sp,#8]
        0x000007e2:    e034        4.      B        0x84e ; CLK_EnablePLL + 254
        0x000007e4:    4629        )F      MOV      r1,r5
        0x000007e6:    9808        ..      LDR      r0,[sp,#0x20]
        0x000007e8:    f7fffe2a    ..*.    BL       __aeabi_uidiv ; 0x440
        0x000007ec:    9005        ..      STR      r0,[sp,#0x14]
        0x000007ee:    4934        4I      LDR      r1,[pc,#208] ; [0x8c0] = 0x186a00
        0x000007f0:    9805        ..      LDR      r0,[sp,#0x14]
        0x000007f2:    4288        .B      CMP      r0,r1
        0x000007f4:    d92a        *.      BLS      0x84c ; CLK_EnablePLL + 252
        0x000007f6:    4933        3I      LDR      r1,[pc,#204] ; [0x8c4] = 0xe4e1c0
        0x000007f8:    9805        ..      LDR      r0,[sp,#0x14]
        0x000007fa:    4288        .B      CMP      r0,r1
        0x000007fc:    d226        &.      BCS      0x84c ; CLK_EnablePLL + 252
        0x000007fe:    2002        .       MOVS     r0,#2
        0x00000800:    9007        ..      STR      r0,[sp,#0x1c]
        0x00000802:    e01e        ..      B        0x842 ; CLK_EnablePLL + 242
        0x00000804:    9e05        ..      LDR      r6,[sp,#0x14]
        0x00000806:    9907        ..      LDR      r1,[sp,#0x1c]
        0x00000808:    434e        NC      MULS     r6,r1,r6
        0x0000080a:    482b        +H      LDR      r0,[pc,#172] ; [0x8b8] = 0x5f5e100
        0x0000080c:    4286        .B      CMP      r6,r0
        0x0000080e:    d315        ..      BCC      0x83c ; CLK_EnablePLL + 236
        0x00000810:    0040        @.      LSLS     r0,r0,#1
        0x00000812:    4286        .B      CMP      r6,r0
        0x00000814:    d812        ..      BHI      0x83c ; CLK_EnablePLL + 236
        0x00000816:    42a6        .B      CMP      r6,r4
        0x00000818:    d901        ..      BLS      0x81e ; CLK_EnablePLL + 206
        0x0000081a:    1b30        0.      SUBS     r0,r6,r4
        0x0000081c:    e000        ..      B        0x820 ; CLK_EnablePLL + 208
        0x0000081e:    1ba0        ..      SUBS     r0,r4,r6
        0x00000820:    9004        ..      STR      r0,[sp,#0x10]
        0x00000822:    9903        ..      LDR      r1,[sp,#0xc]
        0x00000824:    9804        ..      LDR      r0,[sp,#0x10]
        0x00000826:    4288        .B      CMP      r0,r1
        0x00000828:    d208        ..      BCS      0x83c ; CLK_EnablePLL + 236
        0x0000082a:    9804        ..      LDR      r0,[sp,#0x10]
        0x0000082c:    9003        ..      STR      r0,[sp,#0xc]
        0x0000082e:    9501        ..      STR      r5,[sp,#4]
        0x00000830:    9807        ..      LDR      r0,[sp,#0x1c]
        0x00000832:    9002        ..      STR      r0,[sp,#8]
        0x00000834:    9803        ..      LDR      r0,[sp,#0xc]
        0x00000836:    2800        .(      CMP      r0,#0
        0x00000838:    d100        ..      BNE      0x83c ; CLK_EnablePLL + 236
        0x0000083a:    e006        ..      B        0x84a ; CLK_EnablePLL + 250
        0x0000083c:    9807        ..      LDR      r0,[sp,#0x1c]
        0x0000083e:    1c40        @.      ADDS     r0,r0,#1
        0x00000840:    9007        ..      STR      r0,[sp,#0x1c]
        0x00000842:    4921        !I      LDR      r1,[pc,#132] ; [0x8c8] = 0x201
        0x00000844:    9807        ..      LDR      r0,[sp,#0x1c]
        0x00000846:    4288        .B      CMP      r0,r1
        0x00000848:    d9dc        ..      BLS      0x804 ; CLK_EnablePLL + 180
        0x0000084a:    bf00        ..      NOP      
        0x0000084c:    1c6d        m.      ADDS     r5,r5,#1
        0x0000084e:    2d21        !-      CMP      r5,#0x21
        0x00000850:    d9c8        ..      BLS      0x7e4 ; CLK_EnablePLL + 148
        0x00000852:    03b8        ..      LSLS     r0,r7,#14
        0x00000854:    9906        ..      LDR      r1,[sp,#0x18]
        0x00000856:    4308        .C      ORRS     r0,r0,r1
        0x00000858:    9901        ..      LDR      r1,[sp,#4]
        0x0000085a:    1e89        ..      SUBS     r1,r1,#2
        0x0000085c:    0249        I.      LSLS     r1,r1,#9
        0x0000085e:    4308        .C      ORRS     r0,r0,r1
        0x00000860:    9902        ..      LDR      r1,[sp,#8]
        0x00000862:    1e89        ..      SUBS     r1,r1,#2
        0x00000864:    4308        .C      ORRS     r0,r0,r1
        0x00000866:    4910        .I      LDR      r1,[pc,#64] ; [0x8a8] = 0x50000200
        0x00000868:    6208        .b      STR      r0,[r1,#0x20]
        0x0000086a:    2004        .       MOVS     r0,#4
        0x0000086c:    f000f9a2    ....    BL       CLK_WaitClockReady ; 0xbb4
        0x00000870:    1c78        x.      ADDS     r0,r7,#1
        0x00000872:    9a01        ..      LDR      r2,[sp,#4]
        0x00000874:    4350        PC      MULS     r0,r2,r0
        0x00000876:    4601        .F      MOV      r1,r0
        0x00000878:    9808        ..      LDR      r0,[sp,#0x20]
        0x0000087a:    f7fffde1    ....    BL       __aeabi_uidiv ; 0x440
        0x0000087e:    9902        ..      LDR      r1,[sp,#8]
        0x00000880:    4348        HC      MULS     r0,r1,r0
        0x00000882:    b00b        ..      ADD      sp,sp,#0x2c
        0x00000884:    bdf0        ..      POP      {r4-r7,pc}
        0x00000886:    9809        ..      LDR      r0,[sp,#0x24]
        0x00000888:    2800        .(      CMP      r0,#0
        0x0000088a:    d103        ..      BNE      0x894 ; CLK_EnablePLL + 324
        0x0000088c:    480f        .H      LDR      r0,[pc,#60] ; [0x8cc] = 0xc22e
        0x0000088e:    4906        .I      LDR      r1,[pc,#24] ; [0x8a8] = 0x50000200
        0x00000890:    6208        .b      STR      r0,[r1,#0x20]
        0x00000892:    e002        ..      B        0x89a ; CLK_EnablePLL + 330
        0x00000894:    480e        .H      LDR      r0,[pc,#56] ; [0x8d0] = 0xd66f
        0x00000896:    4904        .I      LDR      r1,[pc,#16] ; [0x8a8] = 0x50000200
        0x00000898:    6208        .b      STR      r0,[r1,#0x20]
        0x0000089a:    2004        .       MOVS     r0,#4
        0x0000089c:    f000f98a    ....    BL       CLK_WaitClockReady ; 0xbb4
        0x000008a0:    f000f89c    ....    BL       CLK_GetPLLClockFreq ; 0x9dc
        0x000008a4:    e7ed        ..      B        0x882 ; CLK_EnablePLL + 306
    $d
        0x000008a6:    0000        ..      DCW    0
        0x000008a8:    50000200    ...P    DCD    1342177792
        0x000008ac:    00b71b00    ....    DCD    12000000
        0x000008b0:    01518000    ..Q.    DCD    22118400
        0x000008b4:    0bebc200    ....    DCD    200000000
        0x000008b8:    05f5e100    ....    DCD    100000000
        0x000008bc:    02faf080    ....    DCD    50000000
        0x000008c0:    00186a00    .j..    DCD    1600000
        0x000008c4:    00e4e1c0    ....    DCD    15000000
        0x000008c8:    00000201    ....    DCD    513
        0x000008cc:    0000c22e    ....    DCD    49710
        0x000008d0:    0000d66f    o...    DCD    54895
    $t
    i.CLK_EnableXtalRC
    CLK_EnableXtalRC
        0x000008d4:    4902        .I      LDR      r1,[pc,#8] ; [0x8e0] = 0x50000200
        0x000008d6:    6809        .h      LDR      r1,[r1,#0]
        0x000008d8:    4301        .C      ORRS     r1,r1,r0
        0x000008da:    4a01        .J      LDR      r2,[pc,#4] ; [0x8e0] = 0x50000200
        0x000008dc:    6011        .`      STR      r1,[r2,#0]
        0x000008de:    4770        pG      BX       lr
    $d
        0x000008e0:    50000200    ...P    DCD    1342177792
    $t
    i.CLK_GetPLLClockFreq
    CLK_GetPLLClockFreq
        0x000008e4:    b5fe        ..      PUSH     {r1-r7,lr}
        0x000008e6:    2000        .       MOVS     r0,#0
        0x000008e8:    9002        ..      STR      r0,[sp,#8]
        0x000008ea:    a019        ..      ADR      r0,{pc}+0x66 ; 0x950
        0x000008ec:    6800        .h      LDR      r0,[r0,#0]
        0x000008ee:    9000        ..      STR      r0,[sp,#0]
        0x000008f0:    4818        .H      LDR      r0,[pc,#96] ; [0x954] = 0x50000200
        0x000008f2:    6a04        .j      LDR      r4,[r0,#0x20]
        0x000008f4:    1300        ..      ASRS     r0,r0,#12
        0x000008f6:    4204        .B      TST      r4,r0
        0x000008f8:    d001        ..      BEQ      0x8fe ; CLK_GetPLLClockFreq + 26
        0x000008fa:    2000        .       MOVS     r0,#0
        0x000008fc:    bdfe        ..      POP      {r1-r7,pc}
        0x000008fe:    2001        .       MOVS     r0,#1
        0x00000900:    04c0        ..      LSLS     r0,r0,#19
        0x00000902:    4204        .B      TST      r4,r0
        0x00000904:    d001        ..      BEQ      0x90a ; CLK_GetPLLClockFreq + 38
        0x00000906:    4d14        .M      LDR      r5,[pc,#80] ; [0x958] = 0x1518000
        0x00000908:    e000        ..      B        0x90c ; CLK_GetPLLClockFreq + 40
        0x0000090a:    4d14        .M      LDR      r5,[pc,#80] ; [0x95c] = 0xb71b00
        0x0000090c:    2001        .       MOVS     r0,#1
        0x0000090e:    0440        @.      LSLS     r0,r0,#17
        0x00000910:    4204        .B      TST      r4,r0
        0x00000912:    d001        ..      BEQ      0x918 ; CLK_GetPLLClockFreq + 52
        0x00000914:    4628        (F      MOV      r0,r5
        0x00000916:    e7f1        ..      B        0x8fc ; CLK_GetPLLClockFreq + 24
        0x00000918:    2003        .       MOVS     r0,#3
        0x0000091a:    0380        ..      LSLS     r0,r0,#14
        0x0000091c:    4020         @      ANDS     r0,r0,r4
        0x0000091e:    0b80        ..      LSRS     r0,r0,#14
        0x00000920:    4669        iF      MOV      r1,sp
        0x00000922:    5c0a        .\      LDRB     r2,[r1,r0]
        0x00000924:    9201        ..      STR      r2,[sp,#4]
        0x00000926:    05e0        ..      LSLS     r0,r4,#23
        0x00000928:    0dc0        ..      LSRS     r0,r0,#23
        0x0000092a:    1c87        ..      ADDS     r7,r0,#2
        0x0000092c:    201f        .       MOVS     r0,#0x1f
        0x0000092e:    0240        @.      LSLS     r0,r0,#9
        0x00000930:    4020         @      ANDS     r0,r0,r4
        0x00000932:    0a40        @.      LSRS     r0,r0,#9
        0x00000934:    1c86        ..      ADDS     r6,r0,#2
        0x00000936:    9a01        ..      LDR      r2,[sp,#4]
        0x00000938:    4372        rC      MULS     r2,r6,r2
        0x0000093a:    4611        .F      MOV      r1,r2
        0x0000093c:    08aa        ..      LSRS     r2,r5,#2
        0x0000093e:    437a        zC      MULS     r2,r7,r2
        0x00000940:    4610        .F      MOV      r0,r2
        0x00000942:    f7fffd7d    ..}.    BL       __aeabi_uidiv ; 0x440
        0x00000946:    0080        ..      LSLS     r0,r0,#2
        0x00000948:    9002        ..      STR      r0,[sp,#8]
        0x0000094a:    9802        ..      LDR      r0,[sp,#8]
        0x0000094c:    e7d6        ..      B        0x8fc ; CLK_GetPLLClockFreq + 24
    $d
        0x0000094e:    0000        ..      DCW    0
        0x00000950:    04020201    ....    DCD    67240449
        0x00000954:    50000200    ...P    DCD    1342177792
        0x00000958:    01518000    ..Q.    DCD    22118400
        0x0000095c:    00b71b00    ....    DCD    12000000
    $t
    i.CLK_GetPLLClockFreq
    CLK_GetPLLClockFreq
        0x00000960:    b5fe        ..      PUSH     {r1-r7,lr}
        0x00000962:    2000        .       MOVS     r0,#0
        0x00000964:    9002        ..      STR      r0,[sp,#8]
        0x00000966:    a019        ..      ADR      r0,{pc}+0x66 ; 0x9cc
        0x00000968:    6800        .h      LDR      r0,[r0,#0]
        0x0000096a:    9000        ..      STR      r0,[sp,#0]
        0x0000096c:    4818        .H      LDR      r0,[pc,#96] ; [0x9d0] = 0x50000200
        0x0000096e:    6a04        .j      LDR      r4,[r0,#0x20]
        0x00000970:    1300        ..      ASRS     r0,r0,#12
        0x00000972:    4204        .B      TST      r4,r0
        0x00000974:    d001        ..      BEQ      0x97a ; CLK_GetPLLClockFreq + 26
        0x00000976:    2000        .       MOVS     r0,#0
        0x00000978:    bdfe        ..      POP      {r1-r7,pc}
        0x0000097a:    2001        .       MOVS     r0,#1
        0x0000097c:    04c0        ..      LSLS     r0,r0,#19
        0x0000097e:    4204        .B      TST      r4,r0
        0x00000980:    d001        ..      BEQ      0x986 ; CLK_GetPLLClockFreq + 38
        0x00000982:    4d14        .M      LDR      r5,[pc,#80] ; [0x9d4] = 0x1518000
        0x00000984:    e000        ..      B        0x988 ; CLK_GetPLLClockFreq + 40
        0x00000986:    4d14        .M      LDR      r5,[pc,#80] ; [0x9d8] = 0xb71b00
        0x00000988:    2001        .       MOVS     r0,#1
        0x0000098a:    0440        @.      LSLS     r0,r0,#17
        0x0000098c:    4204        .B      TST      r4,r0
        0x0000098e:    d001        ..      BEQ      0x994 ; CLK_GetPLLClockFreq + 52
        0x00000990:    4628        (F      MOV      r0,r5
        0x00000992:    e7f1        ..      B        0x978 ; CLK_GetPLLClockFreq + 24
        0x00000994:    2003        .       MOVS     r0,#3
        0x00000996:    0380        ..      LSLS     r0,r0,#14
        0x00000998:    4020         @      ANDS     r0,r0,r4
        0x0000099a:    0b80        ..      LSRS     r0,r0,#14
        0x0000099c:    4669        iF      MOV      r1,sp
        0x0000099e:    5c0a        .\      LDRB     r2,[r1,r0]
        0x000009a0:    9201        ..      STR      r2,[sp,#4]
        0x000009a2:    05e0        ..      LSLS     r0,r4,#23
        0x000009a4:    0dc0        ..      LSRS     r0,r0,#23
        0x000009a6:    1c87        ..      ADDS     r7,r0,#2
        0x000009a8:    201f        .       MOVS     r0,#0x1f
        0x000009aa:    0240        @.      LSLS     r0,r0,#9
        0x000009ac:    4020         @      ANDS     r0,r0,r4
        0x000009ae:    0a40        @.      LSRS     r0,r0,#9
        0x000009b0:    1c86        ..      ADDS     r6,r0,#2
        0x000009b2:    9a01        ..      LDR      r2,[sp,#4]
        0x000009b4:    4372        rC      MULS     r2,r6,r2
        0x000009b6:    4611        .F      MOV      r1,r2
        0x000009b8:    08aa        ..      LSRS     r2,r5,#2
        0x000009ba:    437a        zC      MULS     r2,r7,r2
        0x000009bc:    4610        .F      MOV      r0,r2
        0x000009be:    f7fffd3f    ..?.    BL       __aeabi_uidiv ; 0x440
        0x000009c2:    0080        ..      LSLS     r0,r0,#2
        0x000009c4:    9002        ..      STR      r0,[sp,#8]
        0x000009c6:    9802        ..      LDR      r0,[sp,#8]
        0x000009c8:    e7d6        ..      B        0x978 ; CLK_GetPLLClockFreq + 24
    $d
        0x000009ca:    0000        ..      DCW    0
        0x000009cc:    04020201    ....    DCD    67240449
        0x000009d0:    50000200    ...P    DCD    1342177792
        0x000009d4:    01518000    ..Q.    DCD    22118400
        0x000009d8:    00b71b00    ....    DCD    12000000
    $t
    i.CLK_GetPLLClockFreq
    CLK_GetPLLClockFreq
        0x000009dc:    b5fe        ..      PUSH     {r1-r7,lr}
        0x000009de:    2000        .       MOVS     r0,#0
        0x000009e0:    9002        ..      STR      r0,[sp,#8]
        0x000009e2:    a019        ..      ADR      r0,{pc}+0x66 ; 0xa48
        0x000009e4:    6800        .h      LDR      r0,[r0,#0]
        0x000009e6:    9000        ..      STR      r0,[sp,#0]
        0x000009e8:    4818        .H      LDR      r0,[pc,#96] ; [0xa4c] = 0x50000200
        0x000009ea:    6a04        .j      LDR      r4,[r0,#0x20]
        0x000009ec:    1300        ..      ASRS     r0,r0,#12
        0x000009ee:    4204        .B      TST      r4,r0
        0x000009f0:    d001        ..      BEQ      0x9f6 ; CLK_GetPLLClockFreq + 26
        0x000009f2:    2000        .       MOVS     r0,#0
        0x000009f4:    bdfe        ..      POP      {r1-r7,pc}
        0x000009f6:    2001        .       MOVS     r0,#1
        0x000009f8:    04c0        ..      LSLS     r0,r0,#19
        0x000009fa:    4204        .B      TST      r4,r0
        0x000009fc:    d001        ..      BEQ      0xa02 ; CLK_GetPLLClockFreq + 38
        0x000009fe:    4d14        .M      LDR      r5,[pc,#80] ; [0xa50] = 0x1518000
        0x00000a00:    e000        ..      B        0xa04 ; CLK_GetPLLClockFreq + 40
        0x00000a02:    4d14        .M      LDR      r5,[pc,#80] ; [0xa54] = 0xb71b00
        0x00000a04:    2001        .       MOVS     r0,#1
        0x00000a06:    0440        @.      LSLS     r0,r0,#17
        0x00000a08:    4204        .B      TST      r4,r0
        0x00000a0a:    d001        ..      BEQ      0xa10 ; CLK_GetPLLClockFreq + 52
        0x00000a0c:    4628        (F      MOV      r0,r5
        0x00000a0e:    e7f1        ..      B        0x9f4 ; CLK_GetPLLClockFreq + 24
        0x00000a10:    2003        .       MOVS     r0,#3
        0x00000a12:    0380        ..      LSLS     r0,r0,#14
        0x00000a14:    4020         @      ANDS     r0,r0,r4
        0x00000a16:    0b80        ..      LSRS     r0,r0,#14
        0x00000a18:    4669        iF      MOV      r1,sp
        0x00000a1a:    5c0a        .\      LDRB     r2,[r1,r0]
        0x00000a1c:    9201        ..      STR      r2,[sp,#4]
        0x00000a1e:    05e0        ..      LSLS     r0,r4,#23
        0x00000a20:    0dc0        ..      LSRS     r0,r0,#23
        0x00000a22:    1c87        ..      ADDS     r7,r0,#2
        0x00000a24:    201f        .       MOVS     r0,#0x1f
        0x00000a26:    0240        @.      LSLS     r0,r0,#9
        0x00000a28:    4020         @      ANDS     r0,r0,r4
        0x00000a2a:    0a40        @.      LSRS     r0,r0,#9
        0x00000a2c:    1c86        ..      ADDS     r6,r0,#2
        0x00000a2e:    9a01        ..      LDR      r2,[sp,#4]
        0x00000a30:    4372        rC      MULS     r2,r6,r2
        0x00000a32:    4611        .F      MOV      r1,r2
        0x00000a34:    08aa        ..      LSRS     r2,r5,#2
        0x00000a36:    437a        zC      MULS     r2,r7,r2
        0x00000a38:    4610        .F      MOV      r0,r2
        0x00000a3a:    f7fffd01    ....    BL       __aeabi_uidiv ; 0x440
        0x00000a3e:    0080        ..      LSLS     r0,r0,#2
        0x00000a40:    9002        ..      STR      r0,[sp,#8]
        0x00000a42:    9802        ..      LDR      r0,[sp,#8]
        0x00000a44:    e7d6        ..      B        0x9f4 ; CLK_GetPLLClockFreq + 24
    $d
        0x00000a46:    0000        ..      DCW    0
        0x00000a48:    04020201    ....    DCD    67240449
        0x00000a4c:    50000200    ...P    DCD    1342177792
        0x00000a50:    01518000    ..Q.    DCD    22118400
        0x00000a54:    00b71b00    ....    DCD    12000000
    $t
    i.CLK_SetCoreClock
    CLK_SetCoreClock
        0x00000a58:    b570        p.      PUSH     {r4-r6,lr}
        0x00000a5a:    4604        .F      MOV      r4,r0
        0x00000a5c:    4822        "H      LDR      r0,[pc,#136] ; [0xae8] = 0x50000200
        0x00000a5e:    68c0        .h      LDR      r0,[r0,#0xc]
        0x00000a60:    2110        .!      MOVS     r1,#0x10
        0x00000a62:    4008        .@      ANDS     r0,r0,r1
        0x00000a64:    4605        .F      MOV      r5,r0
        0x00000a66:    4821        !H      LDR      r0,[pc,#132] ; [0xaec] = 0x2faf080
        0x00000a68:    4284        .B      CMP      r4,r0
        0x00000a6a:    d901        ..      BLS      0xa70 ; CLK_SetCoreClock + 24
        0x00000a6c:    4604        .F      MOV      r4,r0
        0x00000a6e:    e003        ..      B        0xa78 ; CLK_SetCoreClock + 32
        0x00000a70:    481f        .H      LDR      r0,[pc,#124] ; [0xaf0] = 0x17d7840
        0x00000a72:    4284        .B      CMP      r4,r0
        0x00000a74:    d200        ..      BCS      0xa78 ; CLK_SetCoreClock + 32
        0x00000a76:    4604        .F      MOV      r4,r0
        0x00000a78:    481b        .H      LDR      r0,[pc,#108] ; [0xae8] = 0x50000200
        0x00000a7a:    6800        .h      LDR      r0,[r0,#0]
        0x00000a7c:    2104        .!      MOVS     r1,#4
        0x00000a7e:    4308        .C      ORRS     r0,r0,r1
        0x00000a80:    4919        .I      LDR      r1,[pc,#100] ; [0xae8] = 0x50000200
        0x00000a82:    6008        .`      STR      r0,[r1,#0]
        0x00000a84:    2010        .       MOVS     r0,#0x10
        0x00000a86:    f000f895    ....    BL       CLK_WaitClockReady ; 0xbb4
        0x00000a8a:    4817        .H      LDR      r0,[pc,#92] ; [0xae8] = 0x50000200
        0x00000a8c:    6900        .i      LDR      r0,[r0,#0x10]
        0x00000a8e:    2107        .!      MOVS     r1,#7
        0x00000a90:    4308        .C      ORRS     r0,r0,r1
        0x00000a92:    4915        .I      LDR      r1,[pc,#84] ; [0xae8] = 0x50000200
        0x00000a94:    6108        .a      STR      r0,[r1,#0x10]
        0x00000a96:    4608        .F      MOV      r0,r1
        0x00000a98:    6980        .i      LDR      r0,[r0,#0x18]
        0x00000a9a:    0900        ..      LSRS     r0,r0,#4
        0x00000a9c:    0100        ..      LSLS     r0,r0,#4
        0x00000a9e:    6188        .a      STR      r0,[r1,#0x18]
        0x00000aa0:    4608        .F      MOV      r0,r1
        0x00000aa2:    6800        .h      LDR      r0,[r0,#0]
        0x00000aa4:    07c0        ..      LSLS     r0,r0,#31
        0x00000aa6:    0fc0        ..      LSRS     r0,r0,#31
        0x00000aa8:    d005        ..      BEQ      0xab6 ; CLK_SetCoreClock + 94
        0x00000aaa:    4621        !F      MOV      r1,r4
        0x00000aac:    2000        .       MOVS     r0,#0
        0x00000aae:    f7fffe4f    ..O.    BL       CLK_EnablePLL ; 0x750
        0x00000ab2:    4604        .F      MOV      r4,r0
        0x00000ab4:    e00a        ..      B        0xacc ; CLK_SetCoreClock + 116
        0x00000ab6:    4621        !F      MOV      r1,r4
        0x00000ab8:    2001        .       MOVS     r0,#1
        0x00000aba:    04c0        ..      LSLS     r0,r0,#19
        0x00000abc:    f7fffe48    ..H.    BL       CLK_EnablePLL ; 0x750
        0x00000ac0:    4604        .F      MOV      r4,r0
        0x00000ac2:    4809        .H      LDR      r0,[pc,#36] ; [0xae8] = 0x50000200
        0x00000ac4:    68c0        .h      LDR      r0,[r0,#0xc]
        0x00000ac6:    2110        .!      MOVS     r1,#0x10
        0x00000ac8:    4008        .@      ANDS     r0,r0,r1
        0x00000aca:    4605        .F      MOV      r5,r0
        0x00000acc:    2100        .!      MOVS     r1,#0
        0x00000ace:    2002        .       MOVS     r0,#2
        0x00000ad0:    f000f810    ....    BL       CLK_SetHCLK ; 0xaf4
        0x00000ad4:    2d00        .-      CMP      r5,#0
        0x00000ad6:    d105        ..      BNE      0xae4 ; CLK_SetCoreClock + 140
        0x00000ad8:    4803        .H      LDR      r0,[pc,#12] ; [0xae8] = 0x50000200
        0x00000ada:    6800        .h      LDR      r0,[r0,#0]
        0x00000adc:    2104        .!      MOVS     r1,#4
        0x00000ade:    4388        .C      BICS     r0,r0,r1
        0x00000ae0:    4901        .I      LDR      r1,[pc,#4] ; [0xae8] = 0x50000200
        0x00000ae2:    6008        .`      STR      r0,[r1,#0]
        0x00000ae4:    4620         F      MOV      r0,r4
        0x00000ae6:    bd70        p.      POP      {r4-r6,pc}
    $d
        0x00000ae8:    50000200    ...P    DCD    1342177792
        0x00000aec:    02faf080    ....    DCD    50000000
        0x00000af0:    017d7840    @x}.    DCD    25000000
    $t
    i.CLK_SetHCLK
    CLK_SetHCLK
        0x00000af4:    b570        p.      PUSH     {r4-r6,lr}
        0x00000af6:    4604        .F      MOV      r4,r0
        0x00000af8:    460d        .F      MOV      r5,r1
        0x00000afa:    4815        .H      LDR      r0,[pc,#84] ; [0xb50] = 0x50000200
        0x00000afc:    68c0        .h      LDR      r0,[r0,#0xc]
        0x00000afe:    2110        .!      MOVS     r1,#0x10
        0x00000b00:    4008        .@      ANDS     r0,r0,r1
        0x00000b02:    4606        .F      MOV      r6,r0
        0x00000b04:    4812        .H      LDR      r0,[pc,#72] ; [0xb50] = 0x50000200
        0x00000b06:    6800        .h      LDR      r0,[r0,#0]
        0x00000b08:    4308        .C      ORRS     r0,r0,r1
        0x00000b0a:    4911        .I      LDR      r1,[pc,#68] ; [0xb50] = 0x50000200
        0x00000b0c:    6008        .`      STR      r0,[r1,#0]
        0x00000b0e:    2010        .       MOVS     r0,#0x10
        0x00000b10:    f000f850    ..P.    BL       CLK_WaitClockReady ; 0xbb4
        0x00000b14:    480e        .H      LDR      r0,[pc,#56] ; [0xb50] = 0x50000200
        0x00000b16:    6900        .i      LDR      r0,[r0,#0x10]
        0x00000b18:    08c0        ..      LSRS     r0,r0,#3
        0x00000b1a:    00c0        ..      LSLS     r0,r0,#3
        0x00000b1c:    1dc0        ..      ADDS     r0,r0,#7
        0x00000b1e:    490c        .I      LDR      r1,[pc,#48] ; [0xb50] = 0x50000200
        0x00000b20:    6108        .a      STR      r0,[r1,#0x10]
        0x00000b22:    4608        .F      MOV      r0,r1
        0x00000b24:    6980        .i      LDR      r0,[r0,#0x18]
        0x00000b26:    0900        ..      LSRS     r0,r0,#4
        0x00000b28:    0100        ..      LSLS     r0,r0,#4
        0x00000b2a:    4328        (C      ORRS     r0,r0,r5
        0x00000b2c:    6188        .a      STR      r0,[r1,#0x18]
        0x00000b2e:    4608        .F      MOV      r0,r1
        0x00000b30:    6900        .i      LDR      r0,[r0,#0x10]
        0x00000b32:    08c0        ..      LSRS     r0,r0,#3
        0x00000b34:    00c0        ..      LSLS     r0,r0,#3
        0x00000b36:    4320         C      ORRS     r0,r0,r4
        0x00000b38:    6108        .a      STR      r0,[r1,#0x10]
        0x00000b3a:    f000f90b    ....    BL       SystemCoreClockUpdate ; 0xd54
        0x00000b3e:    2e00        ..      CMP      r6,#0
        0x00000b40:    d105        ..      BNE      0xb4e ; CLK_SetHCLK + 90
        0x00000b42:    4803        .H      LDR      r0,[pc,#12] ; [0xb50] = 0x50000200
        0x00000b44:    6800        .h      LDR      r0,[r0,#0]
        0x00000b46:    2110        .!      MOVS     r1,#0x10
        0x00000b48:    4388        .C      BICS     r0,r0,r1
        0x00000b4a:    4901        .I      LDR      r1,[pc,#4] ; [0xb50] = 0x50000200
        0x00000b4c:    6008        .`      STR      r0,[r1,#0]
        0x00000b4e:    bd70        p.      POP      {r4-r6,pc}
    $d
        0x00000b50:    50000200    ...P    DCD    1342177792
    $t
    i.CLK_SetModuleClock
    CLK_SetModuleClock
        0x00000b54:    b5f0        ..      PUSH     {r4-r7,lr}
        0x00000b56:    460b        .F      MOV      r3,r1
        0x00000b58:    2100        .!      MOVS     r1,#0
        0x00000b5a:    2400        .$      MOVS     r4,#0
        0x00000b5c:    2500        .%      MOVS     r5,#0
        0x00000b5e:    0106        ..      LSLS     r6,r0,#4
        0x00000b60:    0f76        v.      LSRS     r6,r6,#29
        0x00000b62:    d00f        ..      BEQ      0xb84 ; CLK_SetModuleClock + 48
        0x00000b64:    4e12        .N      LDR      r6,[pc,#72] ; [0xbb0] = 0x50000210
        0x00000b66:    0087        ..      LSLS     r7,r0,#2
        0x00000b68:    0fbf        ..      LSRS     r7,r7,#30
        0x00000b6a:    00bf        ..      LSLS     r7,r7,#2
        0x00000b6c:    19f4        ..      ADDS     r4,r6,r7
        0x00000b6e:    6821        !h      LDR      r1,[r4,#0]
        0x00000b70:    0106        ..      LSLS     r6,r0,#4
        0x00000b72:    0f77        w.      LSRS     r7,r6,#29
        0x00000b74:    01c6        ..      LSLS     r6,r0,#7
        0x00000b76:    0ef6        ..      LSRS     r6,r6,#27
        0x00000b78:    40b7        .@      LSLS     r7,r7,r6
        0x00000b7a:    460e        .F      MOV      r6,r1
        0x00000b7c:    43be        .C      BICS     r6,r6,r7
        0x00000b7e:    431e        .C      ORRS     r6,r6,r3
        0x00000b80:    4631        1F      MOV      r1,r6
        0x00000b82:    6021        !`      STR      r1,[r4,#0]
        0x00000b84:    0386        ..      LSLS     r6,r0,#14
        0x00000b86:    0e36        6.      LSRS     r6,r6,#24
        0x00000b88:    d010        ..      BEQ      0xbac ; CLK_SetModuleClock + 88
        0x00000b8a:    4e09        .N      LDR      r6,[pc,#36] ; [0xbb0] = 0x50000210
        0x00000b8c:    3608        .6      ADDS     r6,r6,#8
        0x00000b8e:    0307        ..      LSLS     r7,r0,#12
        0x00000b90:    0fbf        ..      LSRS     r7,r7,#30
        0x00000b92:    00bf        ..      LSLS     r7,r7,#2
        0x00000b94:    19f5        ..      ADDS     r5,r6,r7
        0x00000b96:    6829        )h      LDR      r1,[r5,#0]
        0x00000b98:    0386        ..      LSLS     r6,r0,#14
        0x00000b9a:    0e36        6.      LSRS     r6,r6,#24
        0x00000b9c:    43f6        .C      MVNS     r6,r6
        0x00000b9e:    0587        ..      LSLS     r7,r0,#22
        0x00000ba0:    0eff        ..      LSRS     r7,r7,#27
        0x00000ba2:    40be        .@      LSLS     r6,r6,r7
        0x00000ba4:    400e        .@      ANDS     r6,r6,r1
        0x00000ba6:    4316        .C      ORRS     r6,r6,r2
        0x00000ba8:    4631        1F      MOV      r1,r6
        0x00000baa:    6029        )`      STR      r1,[r5,#0]
        0x00000bac:    bdf0        ..      POP      {r4-r7,pc}
    $d
        0x00000bae:    0000        ..      DCW    0
        0x00000bb0:    50000210    ...P    DCD    1342177808
    $t
    i.CLK_WaitClockReady
    CLK_WaitClockReady
        0x00000bb4:    4601        .F      MOV      r1,r0
        0x00000bb6:    4a07        .J      LDR      r2,[pc,#28] ; [0xbd4] = 0x124f80
        0x00000bb8:    e005        ..      B        0xbc6 ; CLK_WaitClockReady + 18
        0x00000bba:    4610        .F      MOV      r0,r2
        0x00000bbc:    1e52        R.      SUBS     r2,r2,#1
        0x00000bbe:    2800        .(      CMP      r0,#0
        0x00000bc0:    dc01        ..      BGT      0xbc6 ; CLK_WaitClockReady + 18
        0x00000bc2:    2000        .       MOVS     r0,#0
        0x00000bc4:    4770        pG      BX       lr
        0x00000bc6:    4804        .H      LDR      r0,[pc,#16] ; [0xbd8] = 0x50000200
        0x00000bc8:    68c0        .h      LDR      r0,[r0,#0xc]
        0x00000bca:    4008        .@      ANDS     r0,r0,r1
        0x00000bcc:    4288        .B      CMP      r0,r1
        0x00000bce:    d1f4        ..      BNE      0xbba ; CLK_WaitClockReady + 6
        0x00000bd0:    2001        .       MOVS     r0,#1
        0x00000bd2:    e7f7        ..      B        0xbc4 ; CLK_WaitClockReady + 16
    $d
        0x00000bd4:    00124f80    .O..    DCD    1200000
        0x00000bd8:    50000200    ...P    DCD    1342177792
    $t
    i.GPIO_SetMode
    GPIO_SetMode
        0x00000bdc:    b570        p.      PUSH     {r4-r6,lr}
        0x00000bde:    4603        .F      MOV      r3,r0
        0x00000be0:    2000        .       MOVS     r0,#0
        0x00000be2:    e00e        ..      B        0xc02 ; GPIO_SetMode + 38
        0x00000be4:    2401        .$      MOVS     r4,#1
        0x00000be6:    4084        .@      LSLS     r4,r4,r0
        0x00000be8:    420c        .B      TST      r4,r1
        0x00000bea:    d009        ..      BEQ      0xc00 ; GPIO_SetMode + 36
        0x00000bec:    681c        .h      LDR      r4,[r3,#0]
        0x00000bee:    0046        F.      LSLS     r6,r0,#1
        0x00000bf0:    2503        .%      MOVS     r5,#3
        0x00000bf2:    40b5        .@      LSLS     r5,r5,r6
        0x00000bf4:    43ac        .C      BICS     r4,r4,r5
        0x00000bf6:    0046        F.      LSLS     r6,r0,#1
        0x00000bf8:    4615        .F      MOV      r5,r2
        0x00000bfa:    40b5        .@      LSLS     r5,r5,r6
        0x00000bfc:    432c        ,C      ORRS     r4,r4,r5
        0x00000bfe:    601c        .`      STR      r4,[r3,#0]
        0x00000c00:    1c40        @.      ADDS     r0,r0,#1
        0x00000c02:    2808        .(      CMP      r0,#8
        0x00000c04:    d3ee        ..      BCC      0xbe4 ; GPIO_SetMode + 8
        0x00000c06:    bd70        p.      POP      {r4-r6,pc}
    i.GprsSendComm
    GprsSendComm
        0x00000c08:    b510        ..      PUSH     {r4,lr}
        0x00000c0a:    4604        .F      MOV      r4,r0
        0x00000c0c:    4620         F      MOV      r0,r4
        0x00000c0e:    f000fc95    ....    BL       sysPrintf ; 0x153c
        0x00000c12:    bd10        ..      POP      {r4,pc}
    i.Hard_Fault_Handler
    Hard_Fault_Handler
    __tagsym$$used
        0x00000c14:    4604        .F      MOV      r4,r0
        0x00000c16:    a004        ..      ADR      r0,{pc}+0x12 ; 0xc28
        0x00000c18:    f7fffb16    ....    BL       __2printf ; 0x248
        0x00000c1c:    4620         F      MOV      r0,r4
        0x00000c1e:    f000fc39    ..9.    BL       stackDump ; 0x1494
        0x00000c22:    bf00        ..      NOP      
        0x00000c24:    e7fe        ..      B        0xc24 ; Hard_Fault_Handler + 16
    $d
        0x00000c26:    0000        ..      DCW    0
        0x00000c28:    48206e49    In H    DCD    1210084937
        0x00000c2c:    20647261    ard     DCD    543453793
        0x00000c30:    6c756146    Faul    DCD    1819631942
        0x00000c34:    61482074    t Ha    DCD    1632116852
        0x00000c38:    656c646e    ndle    DCD    1701602414
        0x00000c3c:    00000a72    r...    DCD    2674
    $t
    i.NVIC_DisableIRQ
    NVIC_DisableIRQ
        0x00000c40:    06c2        ..      LSLS     r2,r0,#27
        0x00000c42:    0ed2        ..      LSRS     r2,r2,#27
        0x00000c44:    2101        .!      MOVS     r1,#1
        0x00000c46:    4091        .@      LSLS     r1,r1,r2
        0x00000c48:    4a01        .J      LDR      r2,[pc,#4] ; [0xc50] = 0xe000e180
        0x00000c4a:    6011        .`      STR      r1,[r2,#0]
        0x00000c4c:    4770        pG      BX       lr
    $d
        0x00000c4e:    0000        ..      DCW    0
        0x00000c50:    e000e180    ....    DCD    3758154112
    $t
    i.NVIC_EnableIRQ
    NVIC_EnableIRQ
        0x00000c54:    06c2        ..      LSLS     r2,r0,#27
        0x00000c56:    0ed2        ..      LSRS     r2,r2,#27
        0x00000c58:    2101        .!      MOVS     r1,#1
        0x00000c5a:    4091        .@      LSLS     r1,r1,r2
        0x00000c5c:    4a01        .J      LDR      r2,[pc,#4] ; [0xc64] = 0xe000e100
        0x00000c5e:    6011        .`      STR      r1,[r2,#0]
        0x00000c60:    4770        pG      BX       lr
    $d
        0x00000c62:    0000        ..      DCW    0
        0x00000c64:    e000e100    ....    DCD    3758153984
    $t
    i.NVIC_EnableIRQ
    NVIC_EnableIRQ
        0x00000c68:    06c2        ..      LSLS     r2,r0,#27
        0x00000c6a:    0ed2        ..      LSRS     r2,r2,#27
        0x00000c6c:    2101        .!      MOVS     r1,#1
        0x00000c6e:    4091        .@      LSLS     r1,r1,r2
        0x00000c70:    4a01        .J      LDR      r2,[pc,#4] ; [0xc78] = 0xe000e100
        0x00000c72:    6011        .`      STR      r1,[r2,#0]
        0x00000c74:    4770        pG      BX       lr
    $d
        0x00000c76:    0000        ..      DCW    0
        0x00000c78:    e000e100    ....    DCD    3758153984
    $t
    i.SYS_Init
    SYS_Init
        0x00000c7c:    b510        ..      PUSH     {r4,lr}
        0x00000c7e:    2004        .       MOVS     r0,#4
        0x00000c80:    f7fffe28    ..(.    BL       CLK_EnableXtalRC ; 0x8d4
        0x00000c84:    2010        .       MOVS     r0,#0x10
        0x00000c86:    f7ffff95    ....    BL       CLK_WaitClockReady ; 0xbb4
        0x00000c8a:    2100        .!      MOVS     r1,#0
        0x00000c8c:    2007        .       MOVS     r0,#7
        0x00000c8e:    f7ffff31    ..1.    BL       CLK_SetHCLK ; 0xaf4
        0x00000c92:    2001        .       MOVS     r0,#1
        0x00000c94:    f7fffe1e    ....    BL       CLK_EnableXtalRC ; 0x8d4
        0x00000c98:    2001        .       MOVS     r0,#1
        0x00000c9a:    f7ffff8b    ....    BL       CLK_WaitClockReady ; 0xbb4
        0x00000c9e:    4810        .H      LDR      r0,[pc,#64] ; [0xce0] = 0x2faf080
        0x00000ca0:    f7fffeda    ....    BL       CLK_SetCoreClock ; 0xa58
        0x00000ca4:    480f        .H      LDR      r0,[pc,#60] ; [0xce4] = 0x57803d10
        0x00000ca6:    f7fffd43    ..C.    BL       CLK_EnableModuleClock ; 0x730
        0x00000caa:    2200        ."      MOVS     r2,#0
        0x00000cac:    4611        .F      MOV      r1,r2
        0x00000cae:    480d        .H      LDR      r0,[pc,#52] ; [0xce4] = 0x57803d10
        0x00000cb0:    f7ffff50    ..P.    BL       CLK_SetModuleClock ; 0xb54
        0x00000cb4:    2005        .       MOVS     r0,#5
        0x00000cb6:    0700        ..      LSLS     r0,r0,#28
        0x00000cb8:    6bc0        .k      LDR      r0,[r0,#0x3c]
        0x00000cba:    490b        .I      LDR      r1,[pc,#44] ; [0xce8] = 0xfffffcfc
        0x00000cbc:    4008        .@      ANDS     r0,r0,r1
        0x00000cbe:    2105        .!      MOVS     r1,#5
        0x00000cc0:    0709        ..      LSLS     r1,r1,#28
        0x00000cc2:    63c8        .c      STR      r0,[r1,#0x3c]
        0x00000cc4:    4608        .F      MOV      r0,r1
        0x00000cc6:    6bc0        .k      LDR      r0,[r0,#0x3c]
        0x00000cc8:    2103        .!      MOVS     r1,#3
        0x00000cca:    4308        .C      ORRS     r0,r0,r1
        0x00000ccc:    2105        .!      MOVS     r1,#5
        0x00000cce:    0709        ..      LSLS     r1,r1,#28
        0x00000cd0:    63c8        .c      STR      r0,[r1,#0x3c]
        0x00000cd2:    2201        ."      MOVS     r2,#1
        0x00000cd4:    2104        .!      MOVS     r1,#4
        0x00000cd6:    4805        .H      LDR      r0,[pc,#20] ; [0xcec] = 0x50004100
        0x00000cd8:    f7ffff80    ....    BL       GPIO_SetMode ; 0xbdc
        0x00000cdc:    bd10        ..      POP      {r4,pc}
    $d
        0x00000cde:    0000        ..      DCW    0
        0x00000ce0:    02faf080    ....    DCD    50000000
        0x00000ce4:    57803d10    .=.W    DCD    1468022032
        0x00000ce8:    fffffcfc    ....    DCD    4294966524
        0x00000cec:    50004100    .A.P    DCD    1342193920
    $t
    i.SYS_ResetModule
    SYS_ResetModule
        0x00000cf0:    4908        .I      LDR      r1,[pc,#32] ; [0xd14] = 0x50000008
        0x00000cf2:    0e02        ..      LSRS     r2,r0,#24
        0x00000cf4:    5889        .X      LDR      r1,[r1,r2]
        0x00000cf6:    2201        ."      MOVS     r2,#1
        0x00000cf8:    4082        .@      LSLS     r2,r2,r0
        0x00000cfa:    430a        .C      ORRS     r2,r2,r1
        0x00000cfc:    4905        .I      LDR      r1,[pc,#20] ; [0xd14] = 0x50000008
        0x00000cfe:    0e03        ..      LSRS     r3,r0,#24
        0x00000d00:    50ca        .P      STR      r2,[r1,r3]
        0x00000d02:    0e02        ..      LSRS     r2,r0,#24
        0x00000d04:    5889        .X      LDR      r1,[r1,r2]
        0x00000d06:    2201        ."      MOVS     r2,#1
        0x00000d08:    4082        .@      LSLS     r2,r2,r0
        0x00000d0a:    4391        .C      BICS     r1,r1,r2
        0x00000d0c:    4a01        .J      LDR      r2,[pc,#4] ; [0xd14] = 0x50000008
        0x00000d0e:    0e03        ..      LSRS     r3,r0,#24
        0x00000d10:    50d1        .P      STR      r1,[r2,r3]
        0x00000d12:    4770        pG      BX       lr
    $d
        0x00000d14:    50000008    ...P    DCD    1342177288
    $t
    i.SendChar
    SendChar
        0x00000d18:    b500        ..      PUSH     {lr}
        0x00000d1a:    4603        .F      MOV      r3,r0
        0x00000d1c:    4618        .F      MOV      r0,r3
        0x00000d1e:    f000f801    ....    BL       SendChar_ToUART ; 0xd24
        0x00000d22:    bd00        ..      POP      {pc}
    i.SendChar_ToUART
    SendChar_ToUART
        0x00000d24:    bf00        ..      NOP      
        0x00000d26:    490a        .I      LDR      r1,[pc,#40] ; [0xd50] = 0x40050000
        0x00000d28:    6989        .i      LDR      r1,[r1,#0x18]
        0x00000d2a:    2201        ."      MOVS     r2,#1
        0x00000d2c:    05d2        ..      LSLS     r2,r2,#23
        0x00000d2e:    4211        .B      TST      r1,r2
        0x00000d30:    d1f9        ..      BNE      0xd26 ; SendChar_ToUART + 2
        0x00000d32:    4907        .I      LDR      r1,[pc,#28] ; [0xd50] = 0x40050000
        0x00000d34:    6008        .`      STR      r0,[r1,#0]
        0x00000d36:    280a        .(      CMP      r0,#0xa
        0x00000d38:    d109        ..      BNE      0xd4e ; SendChar_ToUART + 42
        0x00000d3a:    bf00        ..      NOP      
        0x00000d3c:    4904        .I      LDR      r1,[pc,#16] ; [0xd50] = 0x40050000
        0x00000d3e:    6989        .i      LDR      r1,[r1,#0x18]
        0x00000d40:    2201        ."      MOVS     r2,#1
        0x00000d42:    05d2        ..      LSLS     r2,r2,#23
        0x00000d44:    4211        .B      TST      r1,r2
        0x00000d46:    d1f9        ..      BNE      0xd3c ; SendChar_ToUART + 24
        0x00000d48:    210d        .!      MOVS     r1,#0xd
        0x00000d4a:    4a01        .J      LDR      r2,[pc,#4] ; [0xd50] = 0x40050000
        0x00000d4c:    6011        .`      STR      r1,[r2,#0]
        0x00000d4e:    4770        pG      BX       lr
    $d
        0x00000d50:    40050000    ...@    DCD    1074069504
    $t
    i.SystemCoreClockUpdate
    SystemCoreClockUpdate
        0x00000d54:    b570        p.      PUSH     {r4-r6,lr}
        0x00000d56:    4812        .H      LDR      r0,[pc,#72] ; [0xda0] = 0x50000200
        0x00000d58:    6900        .i      LDR      r0,[r0,#0x10]
        0x00000d5a:    0745        E.      LSLS     r5,r0,#29
        0x00000d5c:    0f6d        m.      LSRS     r5,r5,#29
        0x00000d5e:    f7fffdc1    ....    BL       CLK_GetPLLClockFreq ; 0x8e4
        0x00000d62:    4910        .I      LDR      r1,[pc,#64] ; [0xda4] = 0x20000008
        0x00000d64:    6008        .`      STR      r0,[r1,#0]
        0x00000d66:    2d02        .-      CMP      r5,#2
        0x00000d68:    d003        ..      BEQ      0xd72 ; SystemCoreClockUpdate + 30
        0x00000d6a:    00a8        ..      LSLS     r0,r5,#2
        0x00000d6c:    490e        .I      LDR      r1,[pc,#56] ; [0xda8] = 0x1554
        0x00000d6e:    580c        .X      LDR      r4,[r1,r0]
        0x00000d70:    e001        ..      B        0xd76 ; SystemCoreClockUpdate + 34
        0x00000d72:    480c        .H      LDR      r0,[pc,#48] ; [0xda4] = 0x20000008
        0x00000d74:    6804        .h      LDR      r4,[r0,#0]
        0x00000d76:    480a        .H      LDR      r0,[pc,#40] ; [0xda0] = 0x50000200
        0x00000d78:    6980        .i      LDR      r0,[r0,#0x18]
        0x00000d7a:    0700        ..      LSLS     r0,r0,#28
        0x00000d7c:    0f00        ..      LSRS     r0,r0,#28
        0x00000d7e:    1c46        F.      ADDS     r6,r0,#1
        0x00000d80:    4631        1F      MOV      r1,r6
        0x00000d82:    4620         F      MOV      r0,r4
        0x00000d84:    f7fffb5c    ..\.    BL       __aeabi_uidiv ; 0x440
        0x00000d88:    4908        .I      LDR      r1,[pc,#32] ; [0xdac] = 0x20000000
        0x00000d8a:    6008        .`      STR      r0,[r1,#0]
        0x00000d8c:    4908        .I      LDR      r1,[pc,#32] ; [0xdb0] = 0xf4240
        0x00000d8e:    4807        .H      LDR      r0,[pc,#28] ; [0xdac] = 0x20000000
        0x00000d90:    6800        .h      LDR      r0,[r0,#0]
        0x00000d92:    104a        J.      ASRS     r2,r1,#1
        0x00000d94:    1880        ..      ADDS     r0,r0,r2
        0x00000d96:    f7fffb53    ..S.    BL       __aeabi_uidiv ; 0x440
        0x00000d9a:    4906        .I      LDR      r1,[pc,#24] ; [0xdb4] = 0x20000004
        0x00000d9c:    6008        .`      STR      r0,[r1,#0]
        0x00000d9e:    bd70        p.      POP      {r4-r6,pc}
    $d
        0x00000da0:    50000200    ...P    DCD    1342177792
        0x00000da4:    20000008    ...     DCD    536870920
        0x00000da8:    00001554    T...    DCD    5460
        0x00000dac:    20000000    ...     DCD    536870912
        0x00000db0:    000f4240    @B..    DCD    1000000
        0x00000db4:    20000004    ...     DCD    536870916
    $t
    i.SystemInit
    SystemInit
        0x00000db8:    4770        pG      BX       lr
        0x00000dba:    0000        ..      MOVS     r0,r0
    i.TIMER1_Init
    TIMER1_Init
        0x00000dbc:    b510        ..      PUSH     {r4,lr}
        0x00000dbe:    4812        .H      LDR      r0,[pc,#72] ; [0xe08] = 0x5ec00003
        0x00000dc0:    f7fffcb6    ....    BL       CLK_EnableModuleClock ; 0x730
        0x00000dc4:    2200        ."      MOVS     r2,#0
        0x00000dc6:    4611        .F      MOV      r1,r2
        0x00000dc8:    480f        .H      LDR      r0,[pc,#60] ; [0xe08] = 0x5ec00003
        0x00000dca:    f7fffec3    ....    BL       CLK_SetModuleClock ; 0xb54
        0x00000dce:    220a        ."      MOVS     r2,#0xa
        0x00000dd0:    2101        .!      MOVS     r1,#1
        0x00000dd2:    06c9        ..      LSLS     r1,r1,#27
        0x00000dd4:    480d        .H      LDR      r0,[pc,#52] ; [0xe0c] = 0x40010020
        0x00000dd6:    f000f85d    ..].    BL       TIMER_Open ; 0xe94
        0x00000dda:    bf00        ..      NOP      
        0x00000ddc:    480b        .H      LDR      r0,[pc,#44] ; [0xe0c] = 0x40010020
        0x00000dde:    6800        .h      LDR      r0,[r0,#0]
        0x00000de0:    2101        .!      MOVS     r1,#1
        0x00000de2:    0749        I.      LSLS     r1,r1,#29
        0x00000de4:    4308        .C      ORRS     r0,r0,r1
        0x00000de6:    4909        .I      LDR      r1,[pc,#36] ; [0xe0c] = 0x40010020
        0x00000de8:    6008        .`      STR      r0,[r1,#0]
        0x00000dea:    bf00        ..      NOP      
        0x00000dec:    2009        .       MOVS     r0,#9
        0x00000dee:    f7ffff3b    ..;.    BL       NVIC_EnableIRQ ; 0xc68
        0x00000df2:    bf00        ..      NOP      
        0x00000df4:    4805        .H      LDR      r0,[pc,#20] ; [0xe0c] = 0x40010020
        0x00000df6:    6800        .h      LDR      r0,[r0,#0]
        0x00000df8:    2101        .!      MOVS     r1,#1
        0x00000dfa:    0789        ..      LSLS     r1,r1,#30
        0x00000dfc:    4308        .C      ORRS     r0,r0,r1
        0x00000dfe:    4903        .I      LDR      r1,[pc,#12] ; [0xe0c] = 0x40010020
        0x00000e00:    6008        .`      STR      r0,[r1,#0]
        0x00000e02:    bf00        ..      NOP      
        0x00000e04:    bd10        ..      POP      {r4,pc}
    $d
        0x00000e06:    0000        ..      DCW    0
        0x00000e08:    5ec00003    ...^    DCD    1589641219
        0x00000e0c:    40010020     ..@    DCD    1073807392
    $t
    i.TIMER_GetModuleClock
    TIMER_GetModuleClock
        0x00000e10:    b530        0.      PUSH     {r4,r5,lr}
        0x00000e12:    b089        ..      SUB      sp,sp,#0x24
        0x00000e14:    4605        .F      MOV      r5,r0
        0x00000e16:    2220         "      MOVS     r2,#0x20
        0x00000e18:    4919        .I      LDR      r1,[pc,#100] ; [0xe80] = 0x1574
        0x00000e1a:    a801        ..      ADD      r0,sp,#4
        0x00000e1c:    f7fff9be    ....    BL       __aeabi_memcpy4 ; 0x19c
        0x00000e20:    4818        .H      LDR      r0,[pc,#96] ; [0xe84] = 0x40010000
        0x00000e22:    4285        .B      CMP      r5,r0
        0x00000e24:    d106        ..      BNE      0xe34 ; TIMER_GetModuleClock + 36
        0x00000e26:    4818        .H      LDR      r0,[pc,#96] ; [0xe88] = 0x50000200
        0x00000e28:    6940        @i      LDR      r0,[r0,#0x14]
        0x00000e2a:    2107        .!      MOVS     r1,#7
        0x00000e2c:    0209        ..      LSLS     r1,r1,#8
        0x00000e2e:    4008        .@      ANDS     r0,r0,r1
        0x00000e30:    0a04        ..      LSRS     r4,r0,#8
        0x00000e32:    e01a        ..      B        0xe6a ; TIMER_GetModuleClock + 90
        0x00000e34:    4813        .H      LDR      r0,[pc,#76] ; [0xe84] = 0x40010000
        0x00000e36:    3020         0      ADDS     r0,r0,#0x20
        0x00000e38:    4285        .B      CMP      r5,r0
        0x00000e3a:    d106        ..      BNE      0xe4a ; TIMER_GetModuleClock + 58
        0x00000e3c:    4812        .H      LDR      r0,[pc,#72] ; [0xe88] = 0x50000200
        0x00000e3e:    6940        @i      LDR      r0,[r0,#0x14]
        0x00000e40:    2107        .!      MOVS     r1,#7
        0x00000e42:    0309        ..      LSLS     r1,r1,#12
        0x00000e44:    4008        .@      ANDS     r0,r0,r1
        0x00000e46:    0b04        ..      LSRS     r4,r0,#12
        0x00000e48:    e00f        ..      B        0xe6a ; TIMER_GetModuleClock + 90
        0x00000e4a:    4810        .H      LDR      r0,[pc,#64] ; [0xe8c] = 0x40110000
        0x00000e4c:    4285        .B      CMP      r5,r0
        0x00000e4e:    d106        ..      BNE      0xe5e ; TIMER_GetModuleClock + 78
        0x00000e50:    480d        .H      LDR      r0,[pc,#52] ; [0xe88] = 0x50000200
        0x00000e52:    6940        @i      LDR      r0,[r0,#0x14]
        0x00000e54:    2107        .!      MOVS     r1,#7
        0x00000e56:    0409        ..      LSLS     r1,r1,#16
        0x00000e58:    4008        .@      ANDS     r0,r0,r1
        0x00000e5a:    0c04        ..      LSRS     r4,r0,#16
        0x00000e5c:    e005        ..      B        0xe6a ; TIMER_GetModuleClock + 90
        0x00000e5e:    480a        .H      LDR      r0,[pc,#40] ; [0xe88] = 0x50000200
        0x00000e60:    6940        @i      LDR      r0,[r0,#0x14]
        0x00000e62:    2107        .!      MOVS     r1,#7
        0x00000e64:    0509        ..      LSLS     r1,r1,#20
        0x00000e66:    4008        .@      ANDS     r0,r0,r1
        0x00000e68:    0d04        ..      LSRS     r4,r0,#20
        0x00000e6a:    2c02        .,      CMP      r4,#2
        0x00000e6c:    d103        ..      BNE      0xe76 ; TIMER_GetModuleClock + 102
        0x00000e6e:    4808        .H      LDR      r0,[pc,#32] ; [0xe90] = 0x20000000
        0x00000e70:    6800        .h      LDR      r0,[r0,#0]
        0x00000e72:    b009        ..      ADD      sp,sp,#0x24
        0x00000e74:    bd30        0.      POP      {r4,r5,pc}
        0x00000e76:    00a0        ..      LSLS     r0,r4,#2
        0x00000e78:    a901        ..      ADD      r1,sp,#4
        0x00000e7a:    5808        .X      LDR      r0,[r1,r0]
        0x00000e7c:    e7f9        ..      B        0xe72 ; TIMER_GetModuleClock + 98
    $d
        0x00000e7e:    0000        ..      DCW    0
        0x00000e80:    00001574    t...    DCD    5492
        0x00000e84:    40010000    ...@    DCD    1073807360
        0x00000e88:    50000200    ...P    DCD    1342177792
        0x00000e8c:    40110000    ...@    DCD    1074855936
        0x00000e90:    20000000    ...     DCD    536870912
    $t
    i.TIMER_Open
    TIMER_Open
        0x00000e94:    b5fe        ..      PUSH     {r1-r7,lr}
        0x00000e96:    4605        .F      MOV      r5,r0
        0x00000e98:    460f        .F      MOV      r7,r1
        0x00000e9a:    4616        .F      MOV      r6,r2
        0x00000e9c:    4628        (F      MOV      r0,r5
        0x00000e9e:    f7ffffb7    ....    BL       TIMER_GetModuleClock ; 0xe10
        0x00000ea2:    4604        .F      MOV      r4,r0
        0x00000ea4:    2000        .       MOVS     r0,#0
        0x00000ea6:    9001        ..      STR      r0,[sp,#4]
        0x00000ea8:    9000        ..      STR      r0,[sp,#0]
        0x00000eaa:    0860        `.      LSRS     r0,r4,#1
        0x00000eac:    42b0        .B      CMP      r0,r6
        0x00000eae:    d202        ..      BCS      0xeb6 ; TIMER_Open + 34
        0x00000eb0:    2002        .       MOVS     r0,#2
        0x00000eb2:    9001        ..      STR      r0,[sp,#4]
        0x00000eb4:    e01b        ..      B        0xeee ; TIMER_Open + 90
        0x00000eb6:    2001        .       MOVS     r0,#1
        0x00000eb8:    0680        ..      LSLS     r0,r0,#26
        0x00000eba:    4284        .B      CMP      r4,r0
        0x00000ebc:    d303        ..      BCC      0xec6 ; TIMER_Open + 50
        0x00000ebe:    2007        .       MOVS     r0,#7
        0x00000ec0:    9000        ..      STR      r0,[sp,#0]
        0x00000ec2:    08e4        ..      LSRS     r4,r4,#3
        0x00000ec4:    e00e        ..      B        0xee4 ; TIMER_Open + 80
        0x00000ec6:    2001        .       MOVS     r0,#1
        0x00000ec8:    0640        @.      LSLS     r0,r0,#25
        0x00000eca:    4284        .B      CMP      r4,r0
        0x00000ecc:    d303        ..      BCC      0xed6 ; TIMER_Open + 66
        0x00000ece:    2003        .       MOVS     r0,#3
        0x00000ed0:    9000        ..      STR      r0,[sp,#0]
        0x00000ed2:    08a4        ..      LSRS     r4,r4,#2
        0x00000ed4:    e006        ..      B        0xee4 ; TIMER_Open + 80
        0x00000ed6:    2001        .       MOVS     r0,#1
        0x00000ed8:    0600        ..      LSLS     r0,r0,#24
        0x00000eda:    4284        .B      CMP      r4,r0
        0x00000edc:    d302        ..      BCC      0xee4 ; TIMER_Open + 80
        0x00000ede:    2001        .       MOVS     r0,#1
        0x00000ee0:    9000        ..      STR      r0,[sp,#0]
        0x00000ee2:    0864        d.      LSRS     r4,r4,#1
        0x00000ee4:    4631        1F      MOV      r1,r6
        0x00000ee6:    4620         F      MOV      r0,r4
        0x00000ee8:    f7fffaaa    ....    BL       __aeabi_uidiv ; 0x440
        0x00000eec:    9001        ..      STR      r0,[sp,#4]
        0x00000eee:    9800        ..      LDR      r0,[sp,#0]
        0x00000ef0:    4338        8C      ORRS     r0,r0,r7
        0x00000ef2:    6028        (`      STR      r0,[r5,#0]
        0x00000ef4:    9801        ..      LDR      r0,[sp,#4]
        0x00000ef6:    6068        h`      STR      r0,[r5,#4]
        0x00000ef8:    9a00        ..      LDR      r2,[sp,#0]
        0x00000efa:    1c52        R.      ADDS     r2,r2,#1
        0x00000efc:    9801        ..      LDR      r0,[sp,#4]
        0x00000efe:    4350        PC      MULS     r0,r2,r0
        0x00000f00:    4601        .F      MOV      r1,r0
        0x00000f02:    4620         F      MOV      r0,r4
        0x00000f04:    f7fffa9c    ....    BL       __aeabi_uidiv ; 0x440
        0x00000f08:    bdfe        ..      POP      {r1-r7,pc}
        0x00000f0a:    0000        ..      MOVS     r0,r0
    i.TMR1_IRQHandler
    TMR1_IRQHandler
        0x00000f0c:    bf00        ..      NOP      
        0x00000f0e:    2001        .       MOVS     r0,#1
        0x00000f10:    490c        .I      LDR      r1,[pc,#48] ; [0xf44] = 0x40010020
        0x00000f12:    6088        .`      STR      r0,[r1,#8]
        0x00000f14:    bf00        ..      NOP      
        0x00000f16:    480c        .H      LDR      r0,[pc,#48] ; [0xf48] = 0x20000024
        0x00000f18:    6800        .h      LDR      r0,[r0,#0]
        0x00000f1a:    1c40        @.      ADDS     r0,r0,#1
        0x00000f1c:    490a        .I      LDR      r1,[pc,#40] ; [0xf48] = 0x20000024
        0x00000f1e:    6008        .`      STR      r0,[r1,#0]
        0x00000f20:    4608        .F      MOV      r0,r1
        0x00000f22:    6800        .h      LDR      r0,[r0,#0]
        0x00000f24:    280a        .(      CMP      r0,#0xa
        0x00000f26:    d103        ..      BNE      0xf30 ; TMR1_IRQHandler + 36
        0x00000f28:    2001        .       MOVS     r0,#1
        0x00000f2a:    4908        .I      LDR      r1,[pc,#32] ; [0xf4c] = 0x50004280
        0x00000f2c:    6088        .`      STR      r0,[r1,#8]
        0x00000f2e:    e008        ..      B        0xf42 ; TMR1_IRQHandler + 54
        0x00000f30:    4805        .H      LDR      r0,[pc,#20] ; [0xf48] = 0x20000024
        0x00000f32:    6800        .h      LDR      r0,[r0,#0]
        0x00000f34:    2814        .(      CMP      r0,#0x14
        0x00000f36:    d104        ..      BNE      0xf42 ; TMR1_IRQHandler + 54
        0x00000f38:    2000        .       MOVS     r0,#0
        0x00000f3a:    4904        .I      LDR      r1,[pc,#16] ; [0xf4c] = 0x50004280
        0x00000f3c:    6088        .`      STR      r0,[r1,#8]
        0x00000f3e:    4902        .I      LDR      r1,[pc,#8] ; [0xf48] = 0x20000024
        0x00000f40:    6008        .`      STR      r0,[r1,#0]
        0x00000f42:    4770        pG      BX       lr
    $d
        0x00000f44:    40010020     ..@    DCD    1073807392
        0x00000f48:    20000024    $..     DCD    536870948
        0x00000f4c:    50004280    .B.P    DCD    1342194304
    $t
    i.UART0_IRQHandler
    UART0_IRQHandler
        0x00000f50:    b510        ..      PUSH     {r4,lr}
        0x00000f52:    f000f98d    ....    BL       UART_TEST_HANDLE ; 0x1270
        0x00000f56:    bd10        ..      POP      {r4,pc}
    i.UART0_Init
    UART0_Init
        0x00000f58:    b510        ..      PUSH     {r4,lr}
        0x00000f5a:    4807        .H      LDR      r0,[pc,#28] ; [0xf78] = 0x4000010
        0x00000f5c:    f7fffec8    ....    BL       SYS_ResetModule ; 0xcf0
        0x00000f60:    21e1        .!      MOVS     r1,#0xe1
        0x00000f62:    0249        I.      LSLS     r1,r1,#9
        0x00000f64:    4805        .H      LDR      r0,[pc,#20] ; [0xf7c] = 0x40050000
        0x00000f66:    f000f927    ..'.    BL       UART_Open ; 0x11b8
        0x00000f6a:    2000        .       MOVS     r0,#0
        0x00000f6c:    4904        .I      LDR      r1,[pc,#16] ; [0xf80] = 0x2000042e
        0x00000f6e:    8008        ..      STRH     r0,[r1,#0]
        0x00000f70:    4904        .I      LDR      r1,[pc,#16] ; [0xf84] = 0x2000042c
        0x00000f72:    8008        ..      STRH     r0,[r1,#0]
        0x00000f74:    bd10        ..      POP      {r4,pc}
    $d
        0x00000f76:    0000        ..      DCW    0
        0x00000f78:    04000010    ....    DCD    67108880
        0x00000f7c:    40050000    ...@    DCD    1074069504
        0x00000f80:    2000042e    ...     DCD    536871982
        0x00000f84:    2000042c    ,..     DCD    536871980
    $t
    i.UART_DisableInt
    UART_DisableInt
        0x00000f88:    b570        p.      PUSH     {r4-r6,lr}
        0x00000f8a:    4604        .F      MOV      r4,r0
        0x00000f8c:    460d        .F      MOV      r5,r1
        0x00000f8e:    6860        `h      LDR      r0,[r4,#4]
        0x00000f90:    43a8        .C      BICS     r0,r0,r5
        0x00000f92:    6060        ``      STR      r0,[r4,#4]
        0x00000f94:    4805        .H      LDR      r0,[pc,#20] ; [0xfac] = 0x40050000
        0x00000f96:    4284        .B      CMP      r4,r0
        0x00000f98:    d103        ..      BNE      0xfa2 ; UART_DisableInt + 26
        0x00000f9a:    200c        .       MOVS     r0,#0xc
        0x00000f9c:    f7fffe50    ..P.    BL       NVIC_DisableIRQ ; 0xc40
        0x00000fa0:    e002        ..      B        0xfa8 ; UART_DisableInt + 32
        0x00000fa2:    200d        .       MOVS     r0,#0xd
        0x00000fa4:    f7fffe4c    ..L.    BL       NVIC_DisableIRQ ; 0xc40
        0x00000fa8:    bd70        p.      POP      {r4-r6,pc}
    $d
        0x00000faa:    0000        ..      DCW    0
        0x00000fac:    40050000    ...@    DCD    1074069504
    $t
    i.UART_EnableInt
    UART_EnableInt
        0x00000fb0:    b570        p.      PUSH     {r4-r6,lr}
        0x00000fb2:    4604        .F      MOV      r4,r0
        0x00000fb4:    460d        .F      MOV      r5,r1
        0x00000fb6:    6860        `h      LDR      r0,[r4,#4]
        0x00000fb8:    4328        (C      ORRS     r0,r0,r5
        0x00000fba:    6060        ``      STR      r0,[r4,#4]
        0x00000fbc:    4805        .H      LDR      r0,[pc,#20] ; [0xfd4] = 0x40050000
        0x00000fbe:    4284        .B      CMP      r4,r0
        0x00000fc0:    d103        ..      BNE      0xfca ; UART_EnableInt + 26
        0x00000fc2:    200c        .       MOVS     r0,#0xc
        0x00000fc4:    f7fffe46    ..F.    BL       NVIC_EnableIRQ ; 0xc54
        0x00000fc8:    e002        ..      B        0xfd0 ; UART_EnableInt + 32
        0x00000fca:    200d        .       MOVS     r0,#0xd
        0x00000fcc:    f7fffe42    ..B.    BL       NVIC_EnableIRQ ; 0xc54
        0x00000fd0:    bd70        p.      POP      {r4-r6,pc}
    $d
        0x00000fd2:    0000        ..      DCW    0
        0x00000fd4:    40050000    ...@    DCD    1074069504
    $t
    i.UART_FunctionTest
    UART_FunctionTest
        0x00000fd8:    b510        ..      PUSH     {r4,lr}
        0x00000fda:    a01d        ..      ADR      r0,{pc}+0x76 ; 0x1050
        0x00000fdc:    f7fff934    ..4.    BL       __2printf ; 0x248
        0x00000fe0:    a02b        +.      ADR      r0,{pc}+0xb0 ; 0x1090
        0x00000fe2:    f7fff931    ..1.    BL       __2printf ; 0x248
        0x00000fe6:    a01a        ..      ADR      r0,{pc}+0x6a ; 0x1050
        0x00000fe8:    f7fff92e    ....    BL       __2printf ; 0x248
        0x00000fec:    a038        8.      ADR      r0,{pc}+0xe4 ; 0x10d0
        0x00000fee:    f7fff92b    ..+.    BL       __2printf ; 0x248
        0x00000ff2:    a047        G.      ADR      r0,{pc}+0x11e ; 0x1110
        0x00000ff4:    f7fff928    ..(.    BL       __2printf ; 0x248
        0x00000ff8:    a055        U.      ADR      r0,{pc}+0x158 ; 0x1150
        0x00000ffa:    f7fff925    ..%.    BL       __2printf ; 0x248
        0x00000ffe:    a014        ..      ADR      r0,{pc}+0x52 ; 0x1050
        0x00001000:    f7fff922    ..".    BL       __2printf ; 0x248
        0x00001004:    4862        bH      LDR      r0,[pc,#392] ; [0x1190] = 0x40050000
        0x00001006:    6840        @h      LDR      r0,[r0,#4]
        0x00001008:    2113        .!      MOVS     r1,#0x13
        0x0000100a:    4308        .C      ORRS     r0,r0,r1
        0x0000100c:    4960        `I      LDR      r1,[pc,#384] ; [0x1190] = 0x40050000
        0x0000100e:    6048        H`      STR      r0,[r1,#4]
        0x00001010:    200c        .       MOVS     r0,#0xc
        0x00001012:    f7fffe29    ..).    BL       NVIC_EnableIRQ ; 0xc68
        0x00001016:    485f        _H      LDR      r0,[pc,#380] ; [0x1194] = 0x2000002c
        0x00001018:    f7fffdf6    ....    BL       GprsSendComm ; 0xc08
        0x0000101c:    bf00        ..      NOP      
        0x0000101e:    485e        ^H      LDR      r0,[pc,#376] ; [0x1198] = 0x20000020
        0x00001020:    6800        .h      LDR      r0,[r0,#0]
        0x00001022:    2800        .(      CMP      r0,#0
        0x00001024:    d1fb        ..      BNE      0x101e ; UART_FunctionTest + 70
        0x00001026:    485a        ZH      LDR      r0,[pc,#360] ; [0x1190] = 0x40050000
        0x00001028:    6840        @h      LDR      r0,[r0,#4]
        0x0000102a:    2113        .!      MOVS     r1,#0x13
        0x0000102c:    4388        .C      BICS     r0,r0,r1
        0x0000102e:    4958        XI      LDR      r1,[pc,#352] ; [0x1190] = 0x40050000
        0x00001030:    6048        H`      STR      r0,[r1,#4]
        0x00001032:    bf00        ..      NOP      
        0x00001034:    200c        .       MOVS     r0,#0xc
        0x00001036:    2101        .!      MOVS     r1,#1
        0x00001038:    4081        .@      LSLS     r1,r1,r0
        0x0000103a:    4858        XH      LDR      r0,[pc,#352] ; [0x119c] = 0xe000e180
        0x0000103c:    6001        .`      STR      r1,[r0,#0]
        0x0000103e:    bf00        ..      NOP      
        0x00001040:    2001        .       MOVS     r0,#1
        0x00001042:    4955        UI      LDR      r1,[pc,#340] ; [0x1198] = 0x20000020
        0x00001044:    6008        .`      STR      r0,[r1,#0]
        0x00001046:    a056        V.      ADR      r0,{pc}+0x15a ; 0x11a0
        0x00001048:    f7fff8fe    ....    BL       __2printf ; 0x248
        0x0000104c:    bd10        ..      POP      {r4,pc}
    $d
        0x0000104e:    0000        ..      DCW    0
        0x00001050:    2d2d2d2b    +---    DCD    757935403
        0x00001054:    2d2d2d2d    ----    DCD    757935405
        0x00001058:    2d2d2d2d    ----    DCD    757935405
        0x0000105c:    2d2d2d2d    ----    DCD    757935405
        0x00001060:    2d2d2d2d    ----    DCD    757935405
        0x00001064:    2d2d2d2d    ----    DCD    757935405
        0x00001068:    2d2d2d2d    ----    DCD    757935405
        0x0000106c:    2d2d2d2d    ----    DCD    757935405
        0x00001070:    2d2d2d2d    ----    DCD    757935405
        0x00001074:    2d2d2d2d    ----    DCD    757935405
        0x00001078:    2d2d2d2d    ----    DCD    757935405
        0x0000107c:    2d2d2d2d    ----    DCD    757935405
        0x00001080:    2d2d2d2d    ----    DCD    757935405
        0x00001084:    2d2d2d2d    ----    DCD    757935405
        0x00001088:    2d2d2d2d    ----    DCD    757935405
        0x0000108c:    00000a2b    +...    DCD    2603
        0x00001090:    5520207c    |  U    DCD    1428168828
        0x00001094:    20545241    ART     DCD    542396993
        0x00001098:    636e7546    Func    DCD    1668183366
        0x0000109c:    6e6f6974    tion    DCD    1852795252
        0x000010a0:    73655420     Tes    DCD    1936020512
        0x000010a4:    20202074    t       DCD    538976372
        0x000010a8:    20202020            DCD    538976288
        0x000010ac:    20202020            DCD    538976288
        0x000010b0:    20202020            DCD    538976288
        0x000010b4:    20202020            DCD    538976288
        0x000010b8:    20202020            DCD    538976288
        0x000010bc:    20202020            DCD    538976288
        0x000010c0:    20202020            DCD    538976288
        0x000010c4:    20202020            DCD    538976288
        0x000010c8:    20202020            DCD    538976288
        0x000010cc:    00000a7c    |...    DCD    2684
        0x000010d0:    4420207c    |  D    DCD    1142956156
        0x000010d4:    72637365    escr    DCD    1919120229
        0x000010d8:    69747069    ipti    DCD    1769238633
        0x000010dc:    3a206e6f    on :    DCD    975203951
        0x000010e0:    20202020            DCD    538976288
        0x000010e4:    20202020            DCD    538976288
        0x000010e8:    20202020            DCD    538976288
        0x000010ec:    20202020            DCD    538976288
        0x000010f0:    20202020            DCD    538976288
        0x000010f4:    20202020            DCD    538976288
        0x000010f8:    20202020            DCD    538976288
        0x000010fc:    20202020            DCD    538976288
        0x00001100:    20202020            DCD    538976288
        0x00001104:    20202020            DCD    538976288
        0x00001108:    20202020            DCD    538976288
        0x0000110c:    00000a7c    |...    DCD    2684
        0x00001110:    2020207c    |       DCD    538976380
        0x00001114:    65685420     The    DCD    1701336096
        0x00001118:    6d617320     sam    DCD    1835103008
        0x0000111c:    20656c70    ple     DCD    543517808
        0x00001120:    65646f63    code    DCD    1701080931
        0x00001124:    6c697720     wil    DCD    1818851104
        0x00001128:    7270206c    l pr    DCD    1919950956
        0x0000112c:    20746e69    int     DCD    544501353
        0x00001130:    75706e69    inpu    DCD    1970302569
        0x00001134:    68632074    t ch    DCD    1751326836
        0x00001138:    6f207261    ar o    DCD    1864397409
        0x0000113c:    6574206e    n te    DCD    1702109294
        0x00001140:    6e696d72    rmin    DCD    1852403058
        0x00001144:    20206c61    al      DCD    538995809
        0x00001148:    20202020            DCD    538976288
        0x0000114c:    00000a7c    |...    DCD    2684
        0x00001150:    2020207c    |       DCD    538976380
        0x00001154:    656c5020     Ple    DCD    1701597216
        0x00001158:    20657361    ase     DCD    543519585
        0x0000115c:    65746e65    ente    DCD    1702129253
        0x00001160:    6e612072    r an    DCD    1851859058
        0x00001164:    6f742079    y to    DCD    1869881465
        0x00001168:    61747320     sta    DCD    1635021600
        0x0000116c:    20207472    rt      DCD    538997874
        0x00001170:    28202020       (    DCD    673194016
        0x00001174:    73657250    Pres    DCD    1936028240
        0x00001178:    30272073    s '0    DCD    807870579
        0x0000117c:    6f742027    ' to    DCD    1869881383
        0x00001180:    69786520     exi    DCD    1769497888
        0x00001184:    20202974    t)      DCD    538978676
        0x00001188:    20202020            DCD    538976288
        0x0000118c:    00000a7c    |...    DCD    2684
        0x00001190:    40050000    ...@    DCD    1074069504
        0x00001194:    2000002c    ,..     DCD    536870956
        0x00001198:    20000020     ..     DCD    536870944
        0x0000119c:    e000e180    ....    DCD    3758154112
        0x000011a0:    5241550a    .UAR    DCD    1380013322
        0x000011a4:    61532054    T Sa    DCD    1632837716
        0x000011a8:    656c706d    mple    DCD    1701605485
        0x000011ac:    6d654420     Dem    DCD    1835353120
        0x000011b0:    6e45206f    o En    DCD    1850024047
        0x000011b4:    000a2e64    d...    DCD    667236
    $t
    i.UART_Open
    UART_Open
        0x000011b8:    b5f0        ..      PUSH     {r4-r7,lr}
        0x000011ba:    b087        ..      SUB      sp,sp,#0x1c
        0x000011bc:    4604        .F      MOV      r4,r0
        0x000011be:    460d        .F      MOV      r5,r1
        0x000011c0:    4827        'H      LDR      r0,[pc,#156] ; [0x1260] = 0x1594
        0x000011c2:    4601        .F      MOV      r1,r0
        0x000011c4:    c90e        ..      LDM      r1,{r1-r3}
        0x000011c6:    68c0        .h      LDR      r0,[r0,#0xc]
        0x000011c8:    ae03        ..      ADD      r6,sp,#0xc
        0x000011ca:    c60e        ..      STM      r6!,{r1-r3}
        0x000011cc:    9006        ..      STR      r0,[sp,#0x18]
        0x000011ce:    2000        .       MOVS     r0,#0
        0x000011d0:    9002        ..      STR      r0,[sp,#8]
        0x000011d2:    4824        $H      LDR      r0,[pc,#144] ; [0x1264] = 0x50000200
        0x000011d4:    6940        @i      LDR      r0,[r0,#0x14]
        0x000011d6:    2103        .!      MOVS     r1,#3
        0x000011d8:    0609        ..      LSLS     r1,r1,#24
        0x000011da:    4008        .@      ANDS     r0,r0,r1
        0x000011dc:    0e06        ..      LSRS     r6,r0,#24
        0x000011de:    4821        !H      LDR      r0,[pc,#132] ; [0x1264] = 0x50000200
        0x000011e0:    6980        .i      LDR      r0,[r0,#0x18]
        0x000011e2:    210f        .!      MOVS     r1,#0xf
        0x000011e4:    0209        ..      LSLS     r1,r1,#8
        0x000011e6:    4008        .@      ANDS     r0,r0,r1
        0x000011e8:    0a07        ..      LSRS     r7,r0,#8
        0x000011ea:    2000        .       MOVS     r0,#0
        0x000011ec:    6320         c      STR      r0,[r4,#0x30]
        0x000011ee:    2003        .       MOVS     r0,#3
        0x000011f0:    60e0        .`      STR      r0,[r4,#0xc]
        0x000011f2:    68a0        .h      LDR      r0,[r4,#8]
        0x000011f4:    491c        .I      LDR      r1,[pc,#112] ; [0x1268] = 0xfff0ff0f
        0x000011f6:    4008        .@      ANDS     r0,r0,r1
        0x000011f8:    60a0        .`      STR      r0,[r4,#8]
        0x000011fa:    2e01        ..      CMP      r6,#1
        0x000011fc:    d104        ..      BNE      0x1208 ; UART_Open + 80
        0x000011fe:    f7fffbaf    ....    BL       CLK_GetPLLClockFreq ; 0x960
        0x00001202:    00b1        ..      LSLS     r1,r6,#2
        0x00001204:    aa03        ..      ADD      r2,sp,#0xc
        0x00001206:    5050        PP      STR      r0,[r2,r1]
        0x00001208:    2d00        .-      CMP      r5,#0
        0x0000120a:    d026        &.      BEQ      0x125a ; UART_Open + 162
        0x0000120c:    00b1        ..      LSLS     r1,r6,#2
        0x0000120e:    aa03        ..      ADD      r2,sp,#0xc
        0x00001210:    5850        PX      LDR      r0,[r2,r1]
        0x00001212:    1c79        y.      ADDS     r1,r7,#1
        0x00001214:    f7fff914    ....    BL       __aeabi_uidiv ; 0x440
        0x00001218:    0869        i.      LSRS     r1,r5,#1
        0x0000121a:    1840        @.      ADDS     r0,r0,r1
        0x0000121c:    4629        )F      MOV      r1,r5
        0x0000121e:    9001        ..      STR      r0,[sp,#4]
        0x00001220:    f7fff90e    ....    BL       __aeabi_uidiv ; 0x440
        0x00001224:    1e80        ..      SUBS     r0,r0,#2
        0x00001226:    9002        ..      STR      r0,[sp,#8]
        0x00001228:    4910        .I      LDR      r1,[pc,#64] ; [0x126c] = 0xffff
        0x0000122a:    9802        ..      LDR      r0,[sp,#8]
        0x0000122c:    4288        .B      CMP      r0,r1
        0x0000122e:    d90f        ..      BLS      0x1250 ; UART_Open + 152
        0x00001230:    00b1        ..      LSLS     r1,r6,#2
        0x00001232:    aa03        ..      ADD      r2,sp,#0xc
        0x00001234:    5850        PX      LDR      r0,[r2,r1]
        0x00001236:    1c79        y.      ADDS     r1,r7,#1
        0x00001238:    f7fff902    ....    BL       __aeabi_uidiv ; 0x440
        0x0000123c:    00e9        ..      LSLS     r1,r5,#3
        0x0000123e:    1840        @.      ADDS     r0,r0,r1
        0x00001240:    4629        )F      MOV      r1,r5
        0x00001242:    9001        ..      STR      r0,[sp,#4]
        0x00001244:    f7fff8fc    ....    BL       __aeabi_uidiv ; 0x440
        0x00001248:    0900        ..      LSRS     r0,r0,#4
        0x0000124a:    1e80        ..      SUBS     r0,r0,#2
        0x0000124c:    6260        `b      STR      r0,[r4,#0x24]
        0x0000124e:    e004        ..      B        0x125a ; UART_Open + 162
        0x00001250:    2103        .!      MOVS     r1,#3
        0x00001252:    0709        ..      LSLS     r1,r1,#28
        0x00001254:    9802        ..      LDR      r0,[sp,#8]
        0x00001256:    4308        .C      ORRS     r0,r0,r1
        0x00001258:    6260        `b      STR      r0,[r4,#0x24]
        0x0000125a:    b007        ..      ADD      sp,sp,#0x1c
        0x0000125c:    bdf0        ..      POP      {r4-r7,pc}
    $d
        0x0000125e:    0000        ..      DCW    0
        0x00001260:    00001594    ....    DCD    5524
        0x00001264:    50000200    ...P    DCD    1342177792
        0x00001268:    fff0ff0f    ....    DCD    4293984015
        0x0000126c:    0000ffff    ....    DCD    65535
    $t
    i.UART_TEST_HANDLE
    UART_TEST_HANDLE
        0x00001270:    b570        p.      PUSH     {r4-r6,lr}
        0x00001272:    24ff        .$      MOVS     r4,#0xff
        0x00001274:    4833        3H      LDR      r0,[pc,#204] ; [0x1344] = 0x40050000
        0x00001276:    69c5        .i      LDR      r5,[r0,#0x1c]
        0x00001278:    1580        ..      ASRS     r0,r0,#22
        0x0000127a:    4205        .B      TST      r5,r0
        0x0000127c:    d02b        +.      BEQ      0x12d6 ; UART_TEST_HANDLE + 102
        0x0000127e:    e022        ".      B        0x12c6 ; UART_TEST_HANDLE + 86
        0x00001280:    4830        0H      LDR      r0,[pc,#192] ; [0x1344] = 0x40050000
        0x00001282:    6800        .h      LDR      r0,[r0,#0]
        0x00001284:    b2c4        ..      UXTB     r4,r0
        0x00001286:    2c30        0,      CMP      r4,#0x30
        0x00001288:    d102        ..      BNE      0x1290 ; UART_TEST_HANDLE + 32
        0x0000128a:    2000        .       MOVS     r0,#0
        0x0000128c:    492e        .I      LDR      r1,[pc,#184] ; [0x1348] = 0x20000020
        0x0000128e:    6008        .`      STR      r0,[r1,#0]
        0x00001290:    482e        .H      LDR      r0,[pc,#184] ; [0x134c] = 0x20000014
        0x00001292:    6800        .h      LDR      r0,[r0,#0]
        0x00001294:    2101        .!      MOVS     r1,#1
        0x00001296:    0289        ..      LSLS     r1,r1,#10
        0x00001298:    4288        .B      CMP      r0,r1
        0x0000129a:    d214        ..      BCS      0x12c6 ; UART_TEST_HANDLE + 86
        0x0000129c:    482c        ,H      LDR      r0,[pc,#176] ; [0x1350] = 0x20000434
        0x0000129e:    492d        -I      LDR      r1,[pc,#180] ; [0x1354] = 0x2000001c
        0x000012a0:    6809        .h      LDR      r1,[r1,#0]
        0x000012a2:    5444        DT      STRB     r4,[r0,r1]
        0x000012a4:    482b        +H      LDR      r0,[pc,#172] ; [0x1354] = 0x2000001c
        0x000012a6:    6800        .h      LDR      r0,[r0,#0]
        0x000012a8:    492b        +I      LDR      r1,[pc,#172] ; [0x1358] = 0x3ff
        0x000012aa:    4288        .B      CMP      r0,r1
        0x000012ac:    d101        ..      BNE      0x12b2 ; UART_TEST_HANDLE + 66
        0x000012ae:    2000        .       MOVS     r0,#0
        0x000012b0:    e002        ..      B        0x12b8 ; UART_TEST_HANDLE + 72
        0x000012b2:    4828        (H      LDR      r0,[pc,#160] ; [0x1354] = 0x2000001c
        0x000012b4:    6800        .h      LDR      r0,[r0,#0]
        0x000012b6:    1c40        @.      ADDS     r0,r0,#1
        0x000012b8:    4926        &I      LDR      r1,[pc,#152] ; [0x1354] = 0x2000001c
        0x000012ba:    6008        .`      STR      r0,[r1,#0]
        0x000012bc:    4823        #H      LDR      r0,[pc,#140] ; [0x134c] = 0x20000014
        0x000012be:    6800        .h      LDR      r0,[r0,#0]
        0x000012c0:    1c40        @.      ADDS     r0,r0,#1
        0x000012c2:    4922        "I      LDR      r1,[pc,#136] ; [0x134c] = 0x20000014
        0x000012c4:    6008        .`      STR      r0,[r1,#0]
        0x000012c6:    481f        .H      LDR      r0,[pc,#124] ; [0x1344] = 0x40050000
        0x000012c8:    69c0        .i      LDR      r0,[r0,#0x1c]
        0x000012ca:    07c0        ..      LSLS     r0,r0,#31
        0x000012cc:    0fc0        ..      LSRS     r0,r0,#31
        0x000012ce:    d1d7        ..      BNE      0x1280 ; UART_TEST_HANDLE + 16
        0x000012d0:    a022        ".      ADR      r0,{pc}+0x8c ; 0x135c
        0x000012d2:    f7feffb9    ....    BL       __2printf ; 0x248
        0x000012d6:    2001        .       MOVS     r0,#1
        0x000012d8:    0240        @.      LSLS     r0,r0,#9
        0x000012da:    4205        .B      TST      r5,r0
        0x000012dc:    d031        1.      BEQ      0x1342 ; UART_TEST_HANDLE + 210
        0x000012de:    4824        $H      LDR      r0,[pc,#144] ; [0x1370] = 0x2000042c
        0x000012e0:    8800        ..      LDRH     r0,[r0,#0]
        0x000012e2:    4924        $I      LDR      r1,[pc,#144] ; [0x1374] = 0x2000042e
        0x000012e4:    8809        ..      LDRH     r1,[r1,#0]
        0x000012e6:    4288        .B      CMP      r0,r1
        0x000012e8:    d104        ..      BNE      0x12f4 ; UART_TEST_HANDLE + 132
        0x000012ea:    2102        .!      MOVS     r1,#2
        0x000012ec:    4815        .H      LDR      r0,[pc,#84] ; [0x1344] = 0x40050000
        0x000012ee:    f7fffe4b    ..K.    BL       UART_DisableInt ; 0xf88
        0x000012f2:    e026        &.      B        0x1342 ; UART_TEST_HANDLE + 210
        0x000012f4:    2000        .       MOVS     r0,#0
        0x000012f6:    4920         I      LDR      r1,[pc,#128] ; [0x1378] = 0x20000430
        0x000012f8:    7008        .p      STRB     r0,[r1,#0]
        0x000012fa:    e01d        ..      B        0x1338 ; UART_TEST_HANDLE + 200
        0x000012fc:    481f        .H      LDR      r0,[pc,#124] ; [0x137c] = 0x20000834
        0x000012fe:    491c        .I      LDR      r1,[pc,#112] ; [0x1370] = 0x2000042c
        0x00001300:    8809        ..      LDRH     r1,[r1,#0]
        0x00001302:    5c40        @\      LDRB     r0,[r0,r1]
        0x00001304:    490f        .I      LDR      r1,[pc,#60] ; [0x1344] = 0x40050000
        0x00001306:    6008        .`      STR      r0,[r1,#0]
        0x00001308:    4819        .H      LDR      r0,[pc,#100] ; [0x1370] = 0x2000042c
        0x0000130a:    8800        ..      LDRH     r0,[r0,#0]
        0x0000130c:    1fc1        ..      SUBS     r1,r0,#7
        0x0000130e:    39f8        .9      SUBS     r1,r1,#0xf8
        0x00001310:    d101        ..      BNE      0x1316 ; UART_TEST_HANDLE + 166
        0x00001312:    2000        .       MOVS     r0,#0
        0x00001314:    e002        ..      B        0x131c ; UART_TEST_HANDLE + 172
        0x00001316:    4816        .H      LDR      r0,[pc,#88] ; [0x1370] = 0x2000042c
        0x00001318:    8800        ..      LDRH     r0,[r0,#0]
        0x0000131a:    1c40        @.      ADDS     r0,r0,#1
        0x0000131c:    4914        .I      LDR      r1,[pc,#80] ; [0x1370] = 0x2000042c
        0x0000131e:    8008        ..      STRH     r0,[r1,#0]
        0x00001320:    4608        .F      MOV      r0,r1
        0x00001322:    8800        ..      LDRH     r0,[r0,#0]
        0x00001324:    4913        .I      LDR      r1,[pc,#76] ; [0x1374] = 0x2000042e
        0x00001326:    8809        ..      LDRH     r1,[r1,#0]
        0x00001328:    4288        .B      CMP      r0,r1
        0x0000132a:    d100        ..      BNE      0x132e ; UART_TEST_HANDLE + 190
        0x0000132c:    e008        ..      B        0x1340 ; UART_TEST_HANDLE + 208
        0x0000132e:    4812        .H      LDR      r0,[pc,#72] ; [0x1378] = 0x20000430
        0x00001330:    7800        .x      LDRB     r0,[r0,#0]
        0x00001332:    1c40        @.      ADDS     r0,r0,#1
        0x00001334:    4910        .I      LDR      r1,[pc,#64] ; [0x1378] = 0x20000430
        0x00001336:    7008        .p      STRB     r0,[r1,#0]
        0x00001338:    480f        .H      LDR      r0,[pc,#60] ; [0x1378] = 0x20000430
        0x0000133a:    7800        .x      LDRB     r0,[r0,#0]
        0x0000133c:    2808        .(      CMP      r0,#8
        0x0000133e:    dbdd        ..      BLT      0x12fc ; UART_TEST_HANDLE + 140
        0x00001340:    bf00        ..      NOP      
        0x00001342:    bd70        p.      POP      {r4-r6,pc}
    $d
        0x00001344:    40050000    ...@    DCD    1074069504
        0x00001348:    20000020     ..     DCD    536870944
        0x0000134c:    20000014    ...     DCD    536870932
        0x00001350:    20000434    4..     DCD    536871988
        0x00001354:    2000001c    ...     DCD    536870940
        0x00001358:    000003ff    ....    DCD    1023
        0x0000135c:    6172540a    .Tra    DCD    1634882570
        0x00001360:    696d736e    nsmi    DCD    1768780654
        0x00001364:    6f697373    ssio    DCD    1869181811
        0x00001368:    6554206e    n Te    DCD    1700012142
        0x0000136c:    003a7473    st:.    DCD    3830899
        0x00001370:    2000042c    ,..     DCD    536871980
        0x00001374:    2000042e    ...     DCD    536871982
        0x00001378:    20000430    0..     DCD    536871984
        0x0000137c:    20000834    4..     DCD    536873012
    $t
    i._PutChar_f
    _PutChar_f
        0x00001380:    b510        ..      PUSH     {r4,lr}
        0x00001382:    4604        .F      MOV      r4,r0
        0x00001384:    bf00        ..      NOP      
        0x00001386:    4813        .H      LDR      r0,[pc,#76] ; [0x13d4] = 0x2000042e
        0x00001388:    8800        ..      LDRH     r0,[r0,#0]
        0x0000138a:    1fc1        ..      SUBS     r1,r0,#7
        0x0000138c:    39f8        .9      SUBS     r1,r1,#0xf8
        0x0000138e:    d101        ..      BNE      0x1394 ; _PutChar_f + 20
        0x00001390:    2000        .       MOVS     r0,#0
        0x00001392:    e002        ..      B        0x139a ; _PutChar_f + 26
        0x00001394:    480f        .H      LDR      r0,[pc,#60] ; [0x13d4] = 0x2000042e
        0x00001396:    8800        ..      LDRH     r0,[r0,#0]
        0x00001398:    1c40        @.      ADDS     r0,r0,#1
        0x0000139a:    490f        .I      LDR      r1,[pc,#60] ; [0x13d8] = 0x2000042c
        0x0000139c:    8809        ..      LDRH     r1,[r1,#0]
        0x0000139e:    4288        .B      CMP      r0,r1
        0x000013a0:    d0f1        ..      BEQ      0x1386 ; _PutChar_f + 6
        0x000013a2:    480e        .H      LDR      r0,[pc,#56] ; [0x13dc] = 0x20000834
        0x000013a4:    490b        .I      LDR      r1,[pc,#44] ; [0x13d4] = 0x2000042e
        0x000013a6:    8809        ..      LDRH     r1,[r1,#0]
        0x000013a8:    5444        DT      STRB     r4,[r0,r1]
        0x000013aa:    480a        .H      LDR      r0,[pc,#40] ; [0x13d4] = 0x2000042e
        0x000013ac:    8800        ..      LDRH     r0,[r0,#0]
        0x000013ae:    1fc1        ..      SUBS     r1,r0,#7
        0x000013b0:    39f8        .9      SUBS     r1,r1,#0xf8
        0x000013b2:    d101        ..      BNE      0x13b8 ; _PutChar_f + 56
        0x000013b4:    2000        .       MOVS     r0,#0
        0x000013b6:    e002        ..      B        0x13be ; _PutChar_f + 62
        0x000013b8:    4806        .H      LDR      r0,[pc,#24] ; [0x13d4] = 0x2000042e
        0x000013ba:    8800        ..      LDRH     r0,[r0,#0]
        0x000013bc:    1c40        @.      ADDS     r0,r0,#1
        0x000013be:    4905        .I      LDR      r1,[pc,#20] ; [0x13d4] = 0x2000042e
        0x000013c0:    8008        ..      STRH     r0,[r1,#0]
        0x000013c2:    4807        .H      LDR      r0,[pc,#28] ; [0x13e0] = 0x40050000
        0x000013c4:    6840        @h      LDR      r0,[r0,#4]
        0x000013c6:    2102        .!      MOVS     r1,#2
        0x000013c8:    4208        .B      TST      r0,r1
        0x000013ca:    d102        ..      BNE      0x13d2 ; _PutChar_f + 82
        0x000013cc:    4804        .H      LDR      r0,[pc,#16] ; [0x13e0] = 0x40050000
        0x000013ce:    f7fffdef    ....    BL       UART_EnableInt ; 0xfb0
        0x000013d2:    bd10        ..      POP      {r4,pc}
    $d
        0x000013d4:    2000042e    ...     DCD    536871982
        0x000013d8:    2000042c    ,..     DCD    536871980
        0x000013dc:    20000834    4..     DCD    536873012
        0x000013e0:    40050000    ...@    DCD    1074069504
    $t
    i.ferror
    ferror
        0x000013e4:    4601        .F      MOV      r1,r0
        0x000013e6:    2000        .       MOVS     r0,#0
        0x000013e8:    43c0        .C      MVNS     r0,r0
        0x000013ea:    4770        pG      BX       lr
    i.fputc
    fputc
        0x000013ec:    b530        0.      PUSH     {r4,r5,lr}
        0x000013ee:    4604        .F      MOV      r4,r0
        0x000013f0:    460d        .F      MOV      r5,r1
        0x000013f2:    4620         F      MOV      r0,r4
        0x000013f4:    f7fffc90    ....    BL       SendChar ; 0xd18
        0x000013f8:    4620         F      MOV      r0,r4
        0x000013fa:    bd30        0.      POP      {r4,r5,pc}
    i.main
    main
        0x000013fc:    bf00        ..      NOP      
        0x000013fe:    e006        ..      B        0x140e ; main + 18
        0x00001400:    2059        Y       MOVS     r0,#0x59
        0x00001402:    4912        .I      LDR      r1,[pc,#72] ; [0x144c] = 0x50000100
        0x00001404:    6008        .`      STR      r0,[r1,#0]
        0x00001406:    2016        .       MOVS     r0,#0x16
        0x00001408:    6008        .`      STR      r0,[r1,#0]
        0x0000140a:    2088        .       MOVS     r0,#0x88
        0x0000140c:    6008        .`      STR      r0,[r1,#0]
        0x0000140e:    480f        .H      LDR      r0,[pc,#60] ; [0x144c] = 0x50000100
        0x00001410:    6800        .h      LDR      r0,[r0,#0]
        0x00001412:    2801        .(      CMP      r0,#1
        0x00001414:    d1f4        ..      BNE      0x1400 ; main + 4
        0x00001416:    bf00        ..      NOP      
        0x00001418:    f7fffc30    ..0.    BL       SYS_Init ; 0xc7c
        0x0000141c:    bf00        ..      NOP      
        0x0000141e:    2000        .       MOVS     r0,#0
        0x00001420:    490a        .I      LDR      r1,[pc,#40] ; [0x144c] = 0x50000100
        0x00001422:    6008        .`      STR      r0,[r1,#0]
        0x00001424:    bf00        ..      NOP      
        0x00001426:    f7fffcc9    ....    BL       TIMER1_Init ; 0xdbc
        0x0000142a:    f7fffd95    ....    BL       UART0_Init ; 0xf58
        0x0000142e:    4808        .H      LDR      r0,[pc,#32] ; [0x1450] = 0x20000000
        0x00001430:    6801        .h      LDR      r1,[r0,#0]
        0x00001432:    a008        ..      ADR      r0,{pc}+0x22 ; 0x1454
        0x00001434:    f7feff08    ....    BL       __2printf ; 0x248
        0x00001438:    a00a        ..      ADR      r0,{pc}+0x2c ; 0x1464
        0x0000143a:    f7feff05    ....    BL       __2printf ; 0x248
        0x0000143e:    f7fffdcb    ....    BL       UART_FunctionTest ; 0xfd8
        0x00001442:    e002        ..      B        0x144a ; main + 78
        0x00001444:    a00d        ..      ADR      r0,{pc}+0x38 ; 0x147c
        0x00001446:    f7fefeff    ....    BL       __2printf ; 0x248
        0x0000144a:    e7fb        ..      B        0x1444 ; main + 72
    $d
        0x0000144c:    50000100    ...P    DCD    1342177536
        0x00001450:    20000000    ...     DCD    536870912
        0x00001454:    50430a0a    ..CP    DCD    1346570762
        0x00001458:    20402055    U @     DCD    541073493
        0x0000145c:    7a486425    %dHz    DCD    2051564581
        0x00001460:    0000000a    ....    DCD    10
        0x00001464:    41550a0a    ..UA    DCD    1096092170
        0x00001468:    53205452    RT S    DCD    1394627666
        0x0000146c:    6c706d61    ampl    DCD    1819307361
        0x00001470:    72502065    e Pr    DCD    1917853797
        0x00001474:    6172676f    ogra    DCD    1634887535
        0x00001478:    00000a6d    m...    DCD    2669
        0x0000147c:    75770a0a    ..wu    DCD    1970735626
        0x00001480:    6e656873    shen    DCD    1852139635
        0x00001484:    6e756a67    gjun    DCD    1853188711
        0x00001488:    62757720     wub    DCD    1651865376
        0x0000148c:    68676e69    ingh    DCD    1751608937
        0x00001490:    000a6e61    an..    DCD    683617
    $t
    i.stackDump
    stackDump
        0x00001494:    b510        ..      PUSH     {r4,lr}
        0x00001496:    4604        .F      MOV      r4,r0
        0x00001498:    a010        ..      ADR      r0,{pc}+0x44 ; 0x14dc
        0x0000149a:    6821        !h      LDR      r1,[r4,#0]
        0x0000149c:    f7fefed4    ....    BL       __2printf ; 0x248
        0x000014a0:    a011        ..      ADR      r0,{pc}+0x48 ; 0x14e8
        0x000014a2:    6861        ah      LDR      r1,[r4,#4]
        0x000014a4:    f7fefed0    ....    BL       __2printf ; 0x248
        0x000014a8:    a012        ..      ADR      r0,{pc}+0x4c ; 0x14f4
        0x000014aa:    68a1        .h      LDR      r1,[r4,#8]
        0x000014ac:    f7fefecc    ....    BL       __2printf ; 0x248
        0x000014b0:    a013        ..      ADR      r0,{pc}+0x50 ; 0x1500
        0x000014b2:    68e1        .h      LDR      r1,[r4,#0xc]
        0x000014b4:    f7fefec8    ....    BL       __2printf ; 0x248
        0x000014b8:    a014        ..      ADR      r0,{pc}+0x54 ; 0x150c
        0x000014ba:    6921        !i      LDR      r1,[r4,#0x10]
        0x000014bc:    f7fefec4    ....    BL       __2printf ; 0x248
        0x000014c0:    a015        ..      ADR      r0,{pc}+0x58 ; 0x1518
        0x000014c2:    6961        ai      LDR      r1,[r4,#0x14]
        0x000014c4:    f7fefec0    ....    BL       __2printf ; 0x248
        0x000014c8:    a016        ..      ADR      r0,{pc}+0x5c ; 0x1524
        0x000014ca:    69a1        .i      LDR      r1,[r4,#0x18]
        0x000014cc:    f7fefebc    ....    BL       __2printf ; 0x248
        0x000014d0:    a017        ..      ADR      r0,{pc}+0x60 ; 0x1530
        0x000014d2:    69e1        .i      LDR      r1,[r4,#0x1c]
        0x000014d4:    f7fefeb8    ....    BL       __2printf ; 0x248
        0x000014d8:    bd10        ..      POP      {r4,pc}
    $d
        0x000014da:    0000        ..      DCW    0
        0x000014dc:    20203072    r0      DCD    538980466
        0x000014e0:    7830203d    = 0x    DCD    2016419901
        0x000014e4:    000a7825    %x..    DCD    686117
        0x000014e8:    20203172    r1      DCD    538980722
        0x000014ec:    7830203d    = 0x    DCD    2016419901
        0x000014f0:    000a7825    %x..    DCD    686117
        0x000014f4:    20203272    r2      DCD    538980978
        0x000014f8:    7830203d    = 0x    DCD    2016419901
        0x000014fc:    000a7825    %x..    DCD    686117
        0x00001500:    20203372    r3      DCD    538981234
        0x00001504:    7830203d    = 0x    DCD    2016419901
        0x00001508:    000a7825    %x..    DCD    686117
        0x0000150c:    20323172    r12     DCD    540160370
        0x00001510:    7830203d    = 0x    DCD    2016419901
        0x00001514:    000a7825    %x..    DCD    686117
        0x00001518:    2020726c    lr      DCD    538997356
        0x0000151c:    7830203d    = 0x    DCD    2016419901
        0x00001520:    000a7825    %x..    DCD    686117
        0x00001524:    20206370    pc      DCD    538993520
        0x00001528:    7830203d    = 0x    DCD    2016419901
        0x0000152c:    000a7825    %x..    DCD    686117
        0x00001530:    20727370    psr     DCD    544371568
        0x00001534:    7830203d    = 0x    DCD    2016419901
        0x00001538:    000a7825    %x..    DCD    686117
    $t
    i.sysPrintf
    sysPrintf
        0x0000153c:    b510        ..      PUSH     {r4,lr}
        0x0000153e:    4604        .F      MOV      r4,r0
        0x00001540:    e003        ..      B        0x154a ; sysPrintf + 14
        0x00001542:    7820         x      LDRB     r0,[r4,#0]
        0x00001544:    1c64        d.      ADDS     r4,r4,#1
        0x00001546:    f7ffff1b    ....    BL       _PutChar_f ; 0x1380
        0x0000154a:    7820         x      LDRB     r0,[r4,#0]
        0x0000154c:    2800        .(      CMP      r0,#0
        0x0000154e:    d1f8        ..      BNE      0x1542 ; sysPrintf + 6
        0x00001550:    bd10        ..      POP      {r4,pc}
        0x00001552:    0000        ..      MOVS     r0,r0
    $d.realdata
    .constdata
    gau32ClkSrcTbl
        0x00001554:    00b71b00    ....    DCD    12000000
        0x00001558:    00000000    ....    DCD    0
        0x0000155c:    02faf080    ....    DCD    50000000
        0x00001560:    00002710    .'..    DCD    10000
        0x00001564:    00000000    ....    DCD    0
        0x00001568:    00000000    ....    DCD    0
        0x0000156c:    00000000    ....    DCD    0
        0x00001570:    01518000    ..Q.    DCD    22118400
    .constdata
        0x00001574:    00b71b00    ....    DCD    12000000
        0x00001578:    00000000    ....    DCD    0
        0x0000157c:    00000000    ....    DCD    0
        0x00001580:    00000000    ....    DCD    0
        0x00001584:    00000000    ....    DCD    0
        0x00001588:    00002710    .'..    DCD    10000
        0x0000158c:    00000000    ....    DCD    0
        0x00001590:    01518000    ..Q.    DCD    22118400
    .constdata
        0x00001594:    00b71b00    ....    DCD    12000000
        0x00001598:    00000000    ....    DCD    0
        0x0000159c:    00000000    ....    DCD    0
        0x000015a0:    01518000    ..Q.    DCD    22118400
        0x000015a4:    00b71b00    ....    DCD    12000000
        0x000015a8:    00000000    ....    DCD    0
        0x000015ac:    00000000    ....    DCD    0
        0x000015b0:    01518000    ..Q.    DCD    22118400
        0x000015b4:    00b71b00    ....    DCD    12000000
        0x000015b8:    00000000    ....    DCD    0
        0x000015bc:    00000000    ....    DCD    0
        0x000015c0:    01518000    ..Q.    DCD    22118400
    .constdata
    uc_hextab
        0x000015c4:    33323130    0123    DCD    858927408
        0x000015c8:    37363534    4567    DCD    926299444
        0x000015cc:    42413938    89AB    DCD    1111570744
        0x000015d0:    46454443    CDEF    DCD    1178944579
        0x000015d4:    00583040    @0X.    DCD    5779520
    lc_hextab
        0x000015d8:    33323130    0123    DCD    858927408
        0x000015dc:    37363534    4567    DCD    926299444
        0x000015e0:    62613938    89ab    DCD    1650538808
        0x000015e4:    66656463    cdef    DCD    1717920867
        0x000015e8:    00783040    @0x.    DCD    7876672
    Region$$Table$$Base
        0x000015ec:    0000160c    ....    DCD    5644
        0x000015f0:    20000000    ...     DCD    536870912
        0x000015f4:    00000434    4...    DCD    1076
        0x000015f8:    00000104    ....    DCD    260
        0x000015fc:    00001a40    @...    DCD    6720
        0x00001600:    20000434    4..     DCD    536871988
        0x00001604:    00000964    d...    DCD    2404
        0x00001608:    00000120     ...    DCD    288
    Region$$Table$$Limit

** Section #2 'ER_RW' (SHT_PROGBITS) [SHF_ALLOC + SHF_WRITE]
    Size   : 1076 bytes (alignment 4)
    Address: 0x20000000


** Section #3 'ER_ZI' (SHT_NOBITS) [SHF_ALLOC + SHF_WRITE]
    Size   : 2404 bytes (alignment 8)
    Address: 0x20000434


** Section #4 '.debug_abbrev' (SHT_PROGBITS)
    Size   : 1476 bytes


** Section #5 '.debug_frame' (SHT_PROGBITS)
    Size   : 1812 bytes


** Section #6 '.debug_info' (SHT_PROGBITS)
    Size   : 22324 bytes


** Section #7 '.debug_line' (SHT_PROGBITS)
    Size   : 7560 bytes


** Section #8 '.debug_loc' (SHT_PROGBITS)
    Size   : 3196 bytes


** Section #9 '.debug_macinfo' (SHT_PROGBITS)
    Size   : 116784 bytes


** Section #10 '.debug_pubnames' (SHT_PROGBITS)
    Size   : 1455 bytes


** Section #11 '.symtab' (SHT_SYMTAB)
    Size   : 7840 bytes (alignment 4)
    String table #12 '.strtab'
    Last local symbol no. 332


** Section #12 '.strtab' (SHT_STRTAB)
    Size   : 6476 bytes


** Section #13 '.note' (SHT_NOTE)
    Size   : 28 bytes (alignment 4)


** Section #14 '.comment' (SHT_PROGBITS)
    Size   : 11024 bytes


** Section #15 '.shstrtab' (SHT_STRTAB)
    Size   : 156 bytes


