
========================================================================

** ELF Header Information

    File Name: .\obj\UART_TxRxFunction.axf

    Machine class: ELFCLASS32 (32-bit)
    Data encoding: ELFDATA2LSB (Little endian)
    Header version: EV_CURRENT (Current version)
    Operating System ABI: none
    ABI Version: 0
    File Type: ET_EXEC (Executable) (2)
    Machine: EM_ARM (ARM)

    Image Entry point: 0x000000d5
    Flags: EF_ARM_HASENTRY (0x05000002)

    ARM ELF revision: 5 (ABI version 2)

    Built with
    ARM C/C++ Compiler, 4.1 [Build 481]
    ARM Assembler, 4.1 [Build 481]
    ARM Linker, 4.1 [Build 481] 

    Header size: 52 bytes (0x34)
    Program header entry size: 32 bytes (0x20)
    Section header entry size: 40 bytes (0x28)

    Program header entries: 1
    Section header entries: 16

    Program header offset: 446616 (0x0006d098)
    Section header offset: 446648 (0x0006d0b8)

    Section header string table index: 15

========================================================================

** Program header #0 (PT_LOAD) [PF_X + PF_W + PF_R + PF_ARM_ENTRY]
    Size : 21272 bytes (17564 bytes in file)
    Virtual address: 0x00000000 (Alignment 8)


========================================================================

** Section #1 'ER_RO' (SHT_PROGBITS) [SHF_ALLOC + SHF_EXECINSTR]
    Size   : 17000 bytes (alignment 4)
    Address: 0x00000000

    $d.realdata
    RESET
    __Vectors
        0x00000000:    200010b0    ...     DCD    536875184
        0x00000004:    000000d5    ....    DCD    213
        0x00000008:    000000f5    ....    DCD    245
        0x0000000c:    000000f7    ....    DCD    247
        0x00000010:    00000000    ....    DCD    0
        0x00000014:    00000000    ....    DCD    0
        0x00000018:    00000000    ....    DCD    0
        0x0000001c:    00000000    ....    DCD    0
        0x00000020:    00000000    ....    DCD    0
        0x00000024:    00000000    ....    DCD    0
        0x00000028:    00000000    ....    DCD    0
        0x0000002c:    000000f9    ....    DCD    249
        0x00000030:    00000000    ....    DCD    0
        0x00000034:    00000000    ....    DCD    0
        0x00000038:    000000fb    ....    DCD    251
        0x0000003c:    000000fd    ....    DCD    253
        0x00000040:    000000ff    ....    DCD    255
        0x00000044:    000000ff    ....    DCD    255
        0x00000048:    0000156d    m...    DCD    5485
        0x0000004c:    000000ff    ....    DCD    255
        0x00000050:    00001645    E...    DCD    5701
        0x00000054:    000000ff    ....    DCD    255
        0x00000058:    000000ff    ....    DCD    255
        0x0000005c:    000000ff    ....    DCD    255
        0x00000060:    00002539    9%..    DCD    9529
        0x00000064:    000025e9    .%..    DCD    9705
        0x00000068:    000025f5    .%..    DCD    9717
        0x0000006c:    0000277d    }'..    DCD    10109
        0x00000070:    000027a1    .'..    DCD    10145
        0x00000074:    00002955    U)..    DCD    10581
        0x00000078:    000000ff    ....    DCD    255
        0x0000007c:    000000ff    ....    DCD    255
        0x00000080:    000000ff    ....    DCD    255
        0x00000084:    000000ff    ....    DCD    255
        0x00000088:    000000ff    ....    DCD    255
        0x0000008c:    000000ff    ....    DCD    255
        0x00000090:    000005c9    ....    DCD    1481
        0x00000094:    000000ff    ....    DCD    255
        0x00000098:    000000ff    ....    DCD    255
        0x0000009c:    000000ff    ....    DCD    255
        0x000000a0:    000000ff    ....    DCD    255
        0x000000a4:    000000ff    ....    DCD    255
        0x000000a8:    000000ff    ....    DCD    255
        0x000000ac:    000000ff    ....    DCD    255
        0x000000b0:    000000ff    ....    DCD    255
        0x000000b4:    000000ff    ....    DCD    255
        0x000000b8:    000000ff    ....    DCD    255
        0x000000bc:    000000ff    ....    DCD    255
    $t
    .ARM.Collect$$$$00000000
    .ARM.Collect$$$$00000001
    __main
    _main_stk
        0x000000c0:    4803        .H      LDR      r0,__lit__00000000 ; [0xd0] = 0x200010b0
        0x000000c2:    4685        .F      MOV      sp,r0
    .ARM.Collect$$$$00000004
    _main_scatterload
        0x000000c4:    f000f934    ..4.    BL       __scatterload ; 0x330
    .ARM.Collect$$$$00000007
    __main_after_scatterload
    _main_init
        0x000000c8:    4800        .H      LDR      r0,[pc,#0] ; [0xcc] = 0x3149
        0x000000ca:    4700        .G      BX       r0
    $d
        0x000000cc:    00003149    I1..    DCD    12617
    .ARM.Collect$$$$00002712
    __lit__00000000
        0x000000d0:    200010b0    ...     DCD    536875184
    $t
    .text
    Reset_Handler
        0x000000d4:    480a        .H      LDR      r0,[pc,#40] ; [0x100] = 0x50000100
        0x000000d6:    490b        .I      LDR      r1,[pc,#44] ; [0x104] = 0x59
        0x000000d8:    6001        .`      STR      r1,[r0,#0]
        0x000000da:    490b        .I      LDR      r1,[pc,#44] ; [0x108] = 0x16
        0x000000dc:    6001        .`      STR      r1,[r0,#0]
        0x000000de:    490b        .I      LDR      r1,[pc,#44] ; [0x10c] = 0x88
        0x000000e0:    6001        .`      STR      r1,[r0,#0]
        0x000000e2:    4a0b        .J      LDR      r2,[pc,#44] ; [0x110] = 0x50000024
        0x000000e4:    490b        .I      LDR      r1,[pc,#44] ; [0x114] = 0x5aa5
        0x000000e6:    6011        .`      STR      r1,[r2,#0]
        0x000000e8:    2100        .!      MOVS     r1,#0
        0x000000ea:    6001        .`      STR      r1,[r0,#0]
        0x000000ec:    480a        .H      LDR      r0,[pc,#40] ; [0x118] = 0x23a1
        0x000000ee:    4780        .G      BLX      r0
        0x000000f0:    480a        .H      LDR      r0,[pc,#40] ; [0x11c] = 0xc1
        0x000000f2:    4700        .G      BX       r0
    NMI_Handler
        0x000000f4:    e7fe        ..      B        NMI_Handler ; 0xf4
    HardFault_Handler
        0x000000f6:    e7fe        ..      B        HardFault_Handler ; 0xf6
    SVC_Handler
        0x000000f8:    e7fe        ..      B        SVC_Handler ; 0xf8
    PendSV_Handler
        0x000000fa:    e7fe        ..      B        PendSV_Handler ; 0xfa
    SysTick_Handler
        0x000000fc:    e7fe        ..      B        SysTick_Handler ; 0xfc
    Default_Handler
    ADC_IRQHandler
    BOD_IRQHandler
    BPWM0_IRQHandler
    BPWM1_IRQHandler
    BRAKE0_IRQHandler
    BRAKE1_IRQHandler
    CAN1_IRQHandler
    CKD_IRQHandler
    EINT1_IRQHandler
    GPCDEF_IRQHandler
    I2C0_IRQHandler
    I2C1_IRQHandler
    PWM0_IRQHandler
    PWM1_IRQHandler
    PWRWU_IRQHandler
    RTC_IRQHandler
    SPI0_IRQHandler
    UART3_IRQHandler
    UART4_IRQHandler
    UART5_IRQHandler
    WDT_IRQHandler
        0x000000fe:    e7fe        ..      B        Default_Handler ; 0xfe
    $d
        0x00000100:    50000100    ...P    DCD    1342177536
        0x00000104:    00000059    Y...    DCD    89
        0x00000108:    00000016    ....    DCD    22
        0x0000010c:    00000088    ....    DCD    136
        0x00000110:    50000024    $..P    DCD    1342177316
        0x00000114:    00005aa5    .Z..    DCD    23205
        0x00000118:    000023a1    .#..    DCD    9121
        0x0000011c:    000000c1    ....    DCD    193
    $t
    .text
    __aeabi_uidiv
    __aeabi_uidivmod
        0x00000120:    b530        0.      PUSH     {r4,r5,lr}
        0x00000122:    460b        .F      MOV      r3,r1
        0x00000124:    4601        .F      MOV      r1,r0
        0x00000126:    2000        .       MOVS     r0,#0
        0x00000128:    2220         "      MOVS     r2,#0x20
        0x0000012a:    2401        .$      MOVS     r4,#1
        0x0000012c:    e009        ..      B        0x142 ; __aeabi_uidiv + 34
        0x0000012e:    460d        .F      MOV      r5,r1
        0x00000130:    40d5        .@      LSRS     r5,r5,r2
        0x00000132:    429d        .B      CMP      r5,r3
        0x00000134:    d305        ..      BCC      0x142 ; __aeabi_uidiv + 34
        0x00000136:    461d        .F      MOV      r5,r3
        0x00000138:    4095        .@      LSLS     r5,r5,r2
        0x0000013a:    1b49        I.      SUBS     r1,r1,r5
        0x0000013c:    4625        %F      MOV      r5,r4
        0x0000013e:    4095        .@      LSLS     r5,r5,r2
        0x00000140:    1940        @.      ADDS     r0,r0,r5
        0x00000142:    4615        .F      MOV      r5,r2
        0x00000144:    1e52        R.      SUBS     r2,r2,#1
        0x00000146:    2d00        .-      CMP      r5,#0
        0x00000148:    dcf1        ..      BGT      0x12e ; __aeabi_uidiv + 14
        0x0000014a:    bd30        0.      POP      {r4,r5,pc}
    .text
    __aeabi_idiv
    __aeabi_idivmod
        0x0000014c:    b570        p.      PUSH     {r4-r6,lr}
        0x0000014e:    2400        .$      MOVS     r4,#0
        0x00000150:    4625        %F      MOV      r5,r4
        0x00000152:    2800        .(      CMP      r0,#0
        0x00000154:    da01        ..      BGE      0x15a ; __aeabi_idiv + 14
        0x00000156:    2401        .$      MOVS     r4,#1
        0x00000158:    4240        @B      RSBS     r0,r0,#0
        0x0000015a:    2900        .)      CMP      r1,#0
        0x0000015c:    da01        ..      BGE      0x162 ; __aeabi_idiv + 22
        0x0000015e:    2501        .%      MOVS     r5,#1
        0x00000160:    4249        IB      RSBS     r1,r1,#0
        0x00000162:    f7ffffdd    ....    BL       __aeabi_uidiv ; 0x120
        0x00000166:    42ac        .B      CMP      r4,r5
        0x00000168:    d000        ..      BEQ      0x16c ; __aeabi_idiv + 32
        0x0000016a:    4240        @B      RSBS     r0,r0,#0
        0x0000016c:    2c00        .,      CMP      r4,#0
        0x0000016e:    d000        ..      BEQ      0x172 ; __aeabi_idiv + 38
        0x00000170:    4249        IB      RSBS     r1,r1,#0
        0x00000172:    bd70        p.      POP      {r4-r6,pc}
    .text
    __aeabi_uldivmod
        0x00000174:    b5f0        ..      PUSH     {r4-r7,lr}
        0x00000176:    b41f        ..      PUSH     {r0-r4}
        0x00000178:    4606        .F      MOV      r6,r0
        0x0000017a:    2000        .       MOVS     r0,#0
        0x0000017c:    b082        ..      SUB      sp,sp,#8
        0x0000017e:    4605        .F      MOV      r5,r0
        0x00000180:    2440        @$      MOVS     r4,#0x40
        0x00000182:    9101        ..      STR      r1,[sp,#4]
        0x00000184:    9000        ..      STR      r0,[sp,#0]
        0x00000186:    e01b        ..      B        0x1c0 ; __aeabi_uldivmod + 76
        0x00000188:    9901        ..      LDR      r1,[sp,#4]
        0x0000018a:    4622        "F      MOV      r2,r4
        0x0000018c:    460f        .F      MOV      r7,r1
        0x0000018e:    4630        0F      MOV      r0,r6
        0x00000190:    f000f8bd    ....    BL       __aeabi_llsr ; 0x30e
        0x00000194:    9a04        ..      LDR      r2,[sp,#0x10]
        0x00000196:    9b05        ..      LDR      r3,[sp,#0x14]
        0x00000198:    1a80        ..      SUBS     r0,r0,r2
        0x0000019a:    4199        .A      SBCS     r1,r1,r3
        0x0000019c:    d310        ..      BCC      0x1c0 ; __aeabi_uldivmod + 76
        0x0000019e:    4610        .F      MOV      r0,r2
        0x000001a0:    4619        .F      MOV      r1,r3
        0x000001a2:    4622        "F      MOV      r2,r4
        0x000001a4:    f000f8a3    ....    BL       __aeabi_llsl ; 0x2ee
        0x000001a8:    1a36        6.      SUBS     r6,r6,r0
        0x000001aa:    418f        .A      SBCS     r7,r7,r1
        0x000001ac:    9701        ..      STR      r7,[sp,#4]
        0x000001ae:    4622        "F      MOV      r2,r4
        0x000001b0:    2001        .       MOVS     r0,#1
        0x000001b2:    2100        .!      MOVS     r1,#0
        0x000001b4:    9f00        ..      LDR      r7,[sp,#0]
        0x000001b6:    f000f89a    ....    BL       __aeabi_llsl ; 0x2ee
        0x000001ba:    1838        8.      ADDS     r0,r7,r0
        0x000001bc:    414d        MA      ADCS     r5,r5,r1
        0x000001be:    9000        ..      STR      r0,[sp,#0]
        0x000001c0:    4620         F      MOV      r0,r4
        0x000001c2:    1e64        d.      SUBS     r4,r4,#1
        0x000001c4:    2800        .(      CMP      r0,#0
        0x000001c6:    dcdf        ..      BGT      0x188 ; __aeabi_uldivmod + 20
        0x000001c8:    9b01        ..      LDR      r3,[sp,#4]
        0x000001ca:    9800        ..      LDR      r0,[sp,#0]
        0x000001cc:    4629        )F      MOV      r1,r5
        0x000001ce:    4632        2F      MOV      r2,r6
        0x000001d0:    b007        ..      ADD      sp,sp,#0x1c
        0x000001d2:    bdf0        ..      POP      {r4-r7,pc}
    .text
    __aeabi_lmul
    _ll_mul
        0x000001d4:    b5f0        ..      PUSH     {r4-r7,lr}
        0x000001d6:    b41f        ..      PUSH     {r0-r4}
        0x000001d8:    b086        ..      SUB      sp,sp,#0x18
        0x000001da:    2000        .       MOVS     r0,#0
        0x000001dc:    9000        ..      STR      r0,[sp,#0]
        0x000001de:    9001        ..      STR      r0,[sp,#4]
        0x000001e0:    9002        ..      STR      r0,[sp,#8]
        0x000001e2:    9806        ..      LDR      r0,[sp,#0x18]
        0x000001e4:    9906        ..      LDR      r1,[sp,#0x18]
        0x000001e6:    b280        ..      UXTH     r0,r0
        0x000001e8:    9004        ..      STR      r0,[sp,#0x10]
        0x000001ea:    9807        ..      LDR      r0,[sp,#0x1c]
        0x000001ec:    0c09        ..      LSRS     r1,r1,#16
        0x000001ee:    0402        ..      LSLS     r2,r0,#16
        0x000001f0:    1400        ..      ASRS     r0,r0,#16
        0x000001f2:    4311        .C      ORRS     r1,r1,r2
        0x000001f4:    9007        ..      STR      r0,[sp,#0x1c]
        0x000001f6:    2700        .'      MOVS     r7,#0
        0x000001f8:    9d08        ..      LDR      r5,[sp,#0x20]
        0x000001fa:    9809        ..      LDR      r0,[sp,#0x24]
        0x000001fc:    9106        ..      STR      r1,[sp,#0x18]
        0x000001fe:    463e        >F      MOV      r6,r7
        0x00000200:    463c        <F      MOV      r4,r7
        0x00000202:    9003        ..      STR      r0,[sp,#0xc]
        0x00000204:    9803        ..      LDR      r0,[sp,#0xc]
        0x00000206:    b2a9        ..      UXTH     r1,r5
        0x00000208:    0402        ..      LSLS     r2,r0,#16
        0x0000020a:    0c00        ..      LSRS     r0,r0,#16
        0x0000020c:    9003        ..      STR      r0,[sp,#0xc]
        0x0000020e:    9804        ..      LDR      r0,[sp,#0x10]
        0x00000210:    0c2d        -.      LSRS     r5,r5,#16
        0x00000212:    4315        .C      ORRS     r5,r5,r2
        0x00000214:    4348        HC      MULS     r0,r1,r0
        0x00000216:    2100        .!      MOVS     r1,#0
        0x00000218:    4622        "F      MOV      r2,r4
        0x0000021a:    f000f868    ..h.    BL       __aeabi_llsl ; 0x2ee
        0x0000021e:    19c7        ..      ADDS     r7,r0,r7
        0x00000220:    4171        qA      ADCS     r1,r1,r6
        0x00000222:    3410        .4      ADDS     r4,r4,#0x10
        0x00000224:    460e        .F      MOV      r6,r1
        0x00000226:    2c40        @,      CMP      r4,#0x40
        0x00000228:    dbec        ..      BLT      0x204 ; __aeabi_lmul + 48
        0x0000022a:    4638        8F      MOV      r0,r7
        0x0000022c:    9a02        ..      LDR      r2,[sp,#8]
        0x0000022e:    f000f85e    ..^.    BL       __aeabi_llsl ; 0x2ee
        0x00000232:    9a00        ..      LDR      r2,[sp,#0]
        0x00000234:    9b01        ..      LDR      r3,[sp,#4]
        0x00000236:    1880        ..      ADDS     r0,r0,r2
        0x00000238:    9000        ..      STR      r0,[sp,#0]
        0x0000023a:    4159        YA      ADCS     r1,r1,r3
        0x0000023c:    9802        ..      LDR      r0,[sp,#8]
        0x0000023e:    9101        ..      STR      r1,[sp,#4]
        0x00000240:    3010        .0      ADDS     r0,r0,#0x10
        0x00000242:    9002        ..      STR      r0,[sp,#8]
        0x00000244:    2840        @(      CMP      r0,#0x40
        0x00000246:    dbcc        ..      BLT      0x1e2 ; __aeabi_lmul + 14
        0x00000248:    9800        ..      LDR      r0,[sp,#0]
        0x0000024a:    b00b        ..      ADD      sp,sp,#0x2c
        0x0000024c:    bdf0        ..      POP      {r4-r7,pc}
    .text
    __aeabi_memcpy
    __aeabi_memcpy4
    __aeabi_memcpy8
        0x0000024e:    4603        .F      MOV      r3,r0
        0x00000250:    430b        .C      ORRS     r3,r3,r1
        0x00000252:    079b        ..      LSLS     r3,r3,#30
        0x00000254:    d003        ..      BEQ      0x25e ; __aeabi_memcpy + 16
        0x00000256:    e009        ..      B        0x26c ; __aeabi_memcpy + 30
        0x00000258:    c908        ..      LDM      r1!,{r3}
        0x0000025a:    1f12        ..      SUBS     r2,r2,#4
        0x0000025c:    c008        ..      STM      r0!,{r3}
        0x0000025e:    2a04        .*      CMP      r2,#4
        0x00000260:    d2fa        ..      BCS      0x258 ; __aeabi_memcpy + 10
        0x00000262:    e003        ..      B        0x26c ; __aeabi_memcpy + 30
        0x00000264:    780b        .x      LDRB     r3,[r1,#0]
        0x00000266:    1c49        I.      ADDS     r1,r1,#1
        0x00000268:    7003        .p      STRB     r3,[r0,#0]
        0x0000026a:    1c40        @.      ADDS     r0,r0,#1
        0x0000026c:    1e52        R.      SUBS     r2,r2,#1
        0x0000026e:    d2f9        ..      BCS      0x264 ; __aeabi_memcpy + 22
        0x00000270:    4770        pG      BX       lr
    .text
    __aeabi_memset
    __aeabi_memset4
    __aeabi_memset8
        0x00000272:    b2d2        ..      UXTB     r2,r2
        0x00000274:    e001        ..      B        0x27a ; __aeabi_memset + 8
        0x00000276:    7002        .p      STRB     r2,[r0,#0]
        0x00000278:    1c40        @.      ADDS     r0,r0,#1
        0x0000027a:    1e49        I.      SUBS     r1,r1,#1
        0x0000027c:    d2fb        ..      BCS      0x276 ; __aeabi_memset + 4
        0x0000027e:    4770        pG      BX       lr
    __aeabi_memclr
    __aeabi_memclr4
    __aeabi_memclr8
        0x00000280:    2200        ."      MOVS     r2,#0
        0x00000282:    e7f6        ..      B        __aeabi_memset ; 0x272
    _memset$wrapper
        0x00000284:    b510        ..      PUSH     {r4,lr}
        0x00000286:    4604        .F      MOV      r4,r0
        0x00000288:    4608        .F      MOV      r0,r1
        0x0000028a:    4611        .F      MOV      r1,r2
        0x0000028c:    4602        .F      MOV      r2,r0
        0x0000028e:    4620         F      MOV      r0,r4
        0x00000290:    f7ffffef    ....    BL       __aeabi_memset ; 0x272
        0x00000294:    4620         F      MOV      r0,r4
        0x00000296:    bd10        ..      POP      {r4,pc}
    .text
    strstr
        0x00000298:    b530        0.      PUSH     {r4,r5,lr}
        0x0000029a:    e00e        ..      B        0x2ba ; strstr + 34
        0x0000029c:    4603        .F      MOV      r3,r0
        0x0000029e:    460a        .F      MOV      r2,r1
        0x000002a0:    e001        ..      B        0x2a6 ; strstr + 14
        0x000002a2:    1c5b        [.      ADDS     r3,r3,#1
        0x000002a4:    1c52        R.      ADDS     r2,r2,#1
        0x000002a6:    781c        .x      LDRB     r4,[r3,#0]
        0x000002a8:    7815        .x      LDRB     r5,[r2,#0]
        0x000002aa:    42ac        .B      CMP      r4,r5
        0x000002ac:    d101        ..      BNE      0x2b2 ; strstr + 26
        0x000002ae:    2c00        .,      CMP      r4,#0
        0x000002b0:    d1f7        ..      BNE      0x2a2 ; strstr + 10
        0x000002b2:    062a        *.      LSLS     r2,r5,#24
        0x000002b4:    0e12        ..      LSRS     r2,r2,#24
        0x000002b6:    d004        ..      BEQ      0x2c2 ; strstr + 42
        0x000002b8:    1c40        @.      ADDS     r0,r0,#1
        0x000002ba:    7802        .x      LDRB     r2,[r0,#0]
        0x000002bc:    2a00        .*      CMP      r2,#0
        0x000002be:    d1ed        ..      BNE      0x29c ; strstr + 4
        0x000002c0:    2000        .       MOVS     r0,#0
        0x000002c2:    bd30        0.      POP      {r4,r5,pc}
    .text
    strlen
        0x000002c4:    4601        .F      MOV      r1,r0
        0x000002c6:    2000        .       MOVS     r0,#0
        0x000002c8:    e000        ..      B        0x2cc ; strlen + 8
        0x000002ca:    1c40        @.      ADDS     r0,r0,#1
        0x000002cc:    5c0a        .\      LDRB     r2,[r1,r0]
        0x000002ce:    2a00        .*      CMP      r2,#0
        0x000002d0:    d1fb        ..      BNE      0x2ca ; strlen + 6
        0x000002d2:    4770        pG      BX       lr
    .text
    memcmp
        0x000002d4:    b530        0.      PUSH     {r4,r5,lr}
        0x000002d6:    4604        .F      MOV      r4,r0
        0x000002d8:    2000        .       MOVS     r0,#0
        0x000002da:    4603        .F      MOV      r3,r0
        0x000002dc:    e000        ..      B        0x2e0 ; memcmp + 12
        0x000002de:    1c5b        [.      ADDS     r3,r3,#1
        0x000002e0:    4293        .B      CMP      r3,r2
        0x000002e2:    d203        ..      BCS      0x2ec ; memcmp + 24
        0x000002e4:    5ce0        .\      LDRB     r0,[r4,r3]
        0x000002e6:    5ccd        .\      LDRB     r5,[r1,r3]
        0x000002e8:    1b40        @.      SUBS     r0,r0,r5
        0x000002ea:    d0f8        ..      BEQ      0x2de ; memcmp + 10
        0x000002ec:    bd30        0.      POP      {r4,r5,pc}
    .text
    __aeabi_llsl
    _ll_shift_l
        0x000002ee:    b510        ..      PUSH     {r4,lr}
        0x000002f0:    2a20         *      CMP      r2,#0x20
        0x000002f2:    db04        ..      BLT      0x2fe ; __aeabi_llsl + 16
        0x000002f4:    4601        .F      MOV      r1,r0
        0x000002f6:    3a20         :      SUBS     r2,r2,#0x20
        0x000002f8:    4091        .@      LSLS     r1,r1,r2
        0x000002fa:    2000        .       MOVS     r0,#0
        0x000002fc:    bd10        ..      POP      {r4,pc}
        0x000002fe:    4091        .@      LSLS     r1,r1,r2
        0x00000300:    2320         #      MOVS     r3,#0x20
        0x00000302:    1a9c        ..      SUBS     r4,r3,r2
        0x00000304:    4603        .F      MOV      r3,r0
        0x00000306:    40e3        .@      LSRS     r3,r3,r4
        0x00000308:    4319        .C      ORRS     r1,r1,r3
        0x0000030a:    4090        .@      LSLS     r0,r0,r2
        0x0000030c:    bd10        ..      POP      {r4,pc}
    .text
    __aeabi_llsr
    _ll_ushift_r
        0x0000030e:    b510        ..      PUSH     {r4,lr}
        0x00000310:    2a20         *      CMP      r2,#0x20
        0x00000312:    db04        ..      BLT      0x31e ; __aeabi_llsr + 16
        0x00000314:    4608        .F      MOV      r0,r1
        0x00000316:    3a20         :      SUBS     r2,r2,#0x20
        0x00000318:    40d0        .@      LSRS     r0,r0,r2
        0x0000031a:    2100        .!      MOVS     r1,#0
        0x0000031c:    bd10        ..      POP      {r4,pc}
        0x0000031e:    460b        .F      MOV      r3,r1
        0x00000320:    40d3        .@      LSRS     r3,r3,r2
        0x00000322:    40d0        .@      LSRS     r0,r0,r2
        0x00000324:    2420         $      MOVS     r4,#0x20
        0x00000326:    1aa2        ..      SUBS     r2,r4,r2
        0x00000328:    4091        .@      LSLS     r1,r1,r2
        0x0000032a:    4308        .C      ORRS     r0,r0,r1
        0x0000032c:    4619        .F      MOV      r1,r3
        0x0000032e:    bd10        ..      POP      {r4,pc}
    .text
    __scatterload
    __scatterload_rt2
        0x00000330:    4c06        .L      LDR      r4,[pc,#24] ; [0x34c] = 0x4248
        0x00000332:    2501        .%      MOVS     r5,#1
        0x00000334:    4e06        .N      LDR      r6,[pc,#24] ; [0x350] = 0x4268
        0x00000336:    e005        ..      B        0x344 ; __scatterload + 20
        0x00000338:    4620         F      MOV      r0,r4
        0x0000033a:    68e3        .h      LDR      r3,[r4,#0xc]
        0x0000033c:    c807        ..      LDM      r0,{r0-r2}
        0x0000033e:    432b        +C      ORRS     r3,r3,r5
        0x00000340:    4798        .G      BLX      r3
        0x00000342:    3410        .4      ADDS     r4,r4,#0x10
        0x00000344:    42b4        .B      CMP      r4,r6
        0x00000346:    d3f7        ..      BCC      0x338 ; __scatterload + 8
        0x00000348:    f7fffebe    ....    BL       __main_after_scatterload ; 0xc8
    $d
        0x0000034c:    00004248    HB..    DCD    16968
        0x00000350:    00004268    hB..    DCD    17000
    $t
    i.ADC_INIT
    ADC_INIT
        0x00000354:    480b        .H      LDR      r0,[pc,#44] ; [0x384] = 0x50004000
        0x00000356:    6841        Ah      LDR      r1,[r0,#4]
        0x00000358:    22a3        ."      MOVS     r2,#0xa3
        0x0000035a:    0412        ..      LSLS     r2,r2,#16
        0x0000035c:    4311        .C      ORRS     r1,r1,r2
        0x0000035e:    6041        A`      STR      r1,[r0,#4]
        0x00000360:    2005        .       MOVS     r0,#5
        0x00000362:    0700        ..      LSLS     r0,r0,#28
        0x00000364:    6b02        .k      LDR      r2,[r0,#0x30]
        0x00000366:    21a3        .!      MOVS     r1,#0xa3
        0x00000368:    438a        .C      BICS     r2,r2,r1
        0x0000036a:    6302        .c      STR      r2,[r0,#0x30]
        0x0000036c:    6b02        .k      LDR      r2,[r0,#0x30]
        0x0000036e:    430a        .C      ORRS     r2,r2,r1
        0x00000370:    6302        .c      STR      r2,[r0,#0x30]
        0x00000372:    2100        .!      MOVS     r1,#0
        0x00000374:    6281        .b      STR      r1,[r0,#0x28]
        0x00000376:    4804        .H      LDR      r0,[pc,#16] ; [0x388] = 0x400e0000
        0x00000378:    6a02        .j      LDR      r2,[r0,#0x20]
        0x0000037a:    2101        .!      MOVS     r1,#1
        0x0000037c:    430a        .C      ORRS     r2,r2,r1
        0x0000037e:    6202        .b      STR      r2,[r0,#0x20]
        0x00000380:    6301        .c      STR      r1,[r0,#0x30]
        0x00000382:    4770        pG      BX       lr
    $d
        0x00000384:    50004000    .@.P    DCD    1342193664
        0x00000388:    400e0000    ...@    DCD    1074659328
    $t
    i.ADC_Open
    ADC_Open
        0x0000038c:    b530        0.      PUSH     {r4,r5,lr}
        0x0000038e:    4806        .H      LDR      r0,[pc,#24] ; [0x3a8] = 0x400e0000
        0x00000390:    6a04        .j      LDR      r4,[r0,#0x20]
        0x00000392:    4d06        .M      LDR      r5,[pc,#24] ; [0x3ac] = 0xfffffbf3
        0x00000394:    402c        ,@      ANDS     r4,r4,r5
        0x00000396:    430c        .C      ORRS     r4,r4,r1
        0x00000398:    4314        .C      ORRS     r4,r4,r2
        0x0000039a:    6204        .b      STR      r4,[r0,#0x20]
        0x0000039c:    6a41        Aj      LDR      r1,[r0,#0x24]
        0x0000039e:    0a09        ..      LSRS     r1,r1,#8
        0x000003a0:    0209        ..      LSLS     r1,r1,#8
        0x000003a2:    4319        .C      ORRS     r1,r1,r3
        0x000003a4:    6241        Ab      STR      r1,[r0,#0x24]
        0x000003a6:    bd30        0.      POP      {r4,r5,pc}
    $d
        0x000003a8:    400e0000    ...@    DCD    1074659328
        0x000003ac:    fffffbf3    ....    DCD    4294966259
    $t
    i.AVclose
    AVclose
        0x000003b0:    b510        ..      PUSH     {r4,lr}
        0x000003b2:    4806        .H      LDR      r0,[pc,#24] ; [0x3cc] = 0x20000a0c
        0x000003b4:    21aa        .!      MOVS     r1,#0xaa
        0x000003b6:    7001        .p      STRB     r1,[r0,#0]
        0x000003b8:    21bb        .!      MOVS     r1,#0xbb
        0x000003ba:    7041        Ap      STRB     r1,[r0,#1]
        0x000003bc:    2101        .!      MOVS     r1,#1
        0x000003be:    7081        .p      STRB     r1,[r0,#2]
        0x000003c0:    70c1        .p      STRB     r1,[r0,#3]
        0x000003c2:    2104        .!      MOVS     r1,#4
        0x000003c4:    f003fcac    ....    BL       sysPrintf1 ; 0x3d20
        0x000003c8:    bd10        ..      POP      {r4,pc}
    $d
        0x000003ca:    0000        ..      DCW    0
        0x000003cc:    20000a0c    ...     DCD    536873484
    $t
    i.Adc_Data
    Adc_Data
        0x000003d0:    b5f8        ..      PUSH     {r3-r7,lr}
        0x000003d2:    2400        .$      MOVS     r4,#0
        0x000003d4:    4626        &F      MOV      r6,r4
        0x000003d6:    4625        %F      MOV      r5,r4
        0x000003d8:    2000        .       MOVS     r0,#0
        0x000003da:    f001fe67    ..g.    BL       Read_ADC ; 0x20ac
        0x000003de:    1c64        d.      ADDS     r4,r4,#1
        0x000003e0:    1986        ..      ADDS     r6,r0,r6
        0x000003e2:    b2e4        ..      UXTB     r4,r4
        0x000003e4:    2c0a        .,      CMP      r4,#0xa
        0x000003e6:    d3f7        ..      BCC      0x3d8 ; Adc_Data + 8
        0x000003e8:    20ff        .       MOVS     r0,#0xff
        0x000003ea:    2755        U'      MOVS     r7,#0x55
        0x000003ec:    30c6        .0      ADDS     r0,r0,#0xc6
        0x000003ee:    033f        ?.      LSLS     r7,r7,#12
        0x000003f0:    4370        pC      MULS     r0,r6,r0
        0x000003f2:    4639        9F      MOV      r1,r7
        0x000003f4:    f7fffe94    ....    BL       __aeabi_uidiv ; 0x120
        0x000003f8:    4e09        .N      LDR      r6,[pc,#36] ; [0x420] = 0x200000b0
        0x000003fa:    2400        .$      MOVS     r4,#0
        0x000003fc:    67f0        .g      STR      r0,[r6,#0x7c]
        0x000003fe:    2001        .       MOVS     r0,#1
        0x00000400:    f001fe54    ..T.    BL       Read_ADC ; 0x20ac
        0x00000404:    1c64        d.      ADDS     r4,r4,#1
        0x00000406:    1945        E.      ADDS     r5,r0,r5
        0x00000408:    b2e4        ..      UXTB     r4,r4
        0x0000040a:    2c0a        .,      CMP      r4,#0xa
        0x0000040c:    d3f7        ..      BCC      0x3fe ; Adc_Data + 46
        0x0000040e:    4805        .H      LDR      r0,[pc,#20] ; [0x424] = 0xc51
        0x00000410:    4639        9F      MOV      r1,r7
        0x00000412:    4368        hC      MULS     r0,r5,r0
        0x00000414:    f7fffe84    ....    BL       __aeabi_uidiv ; 0x120
        0x00000418:    3009        .0      ADDS     r0,r0,#9
        0x0000041a:    65f0        .e      STR      r0,[r6,#0x5c]
        0x0000041c:    bdf8        ..      POP      {r3-r7,pc}
    $d
        0x0000041e:    0000        ..      DCW    0
        0x00000420:    200000b0    ...     DCD    536871088
        0x00000424:    00000c51    Q...    DCD    3153
    $t
    i.AlarmBDRSSend
    AlarmBDRSSend
        0x00000428:    b40f        ..      PUSH     {r0-r3}
        0x0000042a:    b5f8        ..      PUSH     {r3-r7,lr}
        0x0000042c:    4c44        DL      LDR      r4,[pc,#272] ; [0x540] = 0x20000070
        0x0000042e:    a806        ..      ADD      r0,sp,#0x18
        0x00000430:    9000        ..      STR      r0,[sp,#0]
        0x00000432:    78e0        .x      LDRB     r0,[r4,#3]
        0x00000434:    4627        'F      MOV      r7,r4
        0x00000436:    4625        %F      MOV      r5,r4
        0x00000438:    2600        .&      MOVS     r6,#0
        0x0000043a:    37c0        .7      ADDS     r7,r7,#0xc0
        0x0000043c:    3d20         =      SUBS     r5,r5,#0x20
        0x0000043e:    2800        .(      CMP      r0,#0
        0x00000440:    d016        ..      BEQ      0x470 ; AlarmBDRSSend + 72
        0x00000442:    a140        @.      ADR      r1,{pc}+0x102 ; 0x544
        0x00000444:    4841        AH      LDR      r0,[pc,#260] ; [0x54c] = 0x20000b3b
        0x00000446:    f7ffff27    ..'.    BL       strstr ; 0x298
        0x0000044a:    2800        .(      CMP      r0,#0
        0x0000044c:    d064        d.      BEQ      0x518 ; AlarmBDRSSend + 240
        0x0000044e:    21ff        .!      MOVS     r1,#0xff
        0x00000450:    312d        -1      ADDS     r1,r1,#0x2d
        0x00000452:    483e        >H      LDR      r0,[pc,#248] ; [0x54c] = 0x20000b3b
        0x00000454:    f7ffff14    ....    BL       __aeabi_memclr ; 0x280
        0x00000458:    8366        f.      STRH     r6,[r4,#0x1a]
        0x0000045a:    70e6        .p      STRB     r6,[r4,#3]
        0x0000045c:    4620         F      MOV      r0,r4
        0x0000045e:    70a6        .p      STRB     r6,[r4,#2]
        0x00000460:    3040        @0      ADDS     r0,r0,#0x40
        0x00000462:    6186        .a      STR      r6,[r0,#0x18]
        0x00000464:    2004        .       MOVS     r0,#4
        0x00000466:    613e        >a      STR      r6,[r7,#0x10]
        0x00000468:    bcf8        ..      POP      {r3-r7}
        0x0000046a:    bc08        ..      POP      {r3}
        0x0000046c:    b004        ..      ADD      sp,sp,#0x10
        0x0000046e:    4718        .G      BX       r3
        0x00000470:    78a0        .x      LDRB     r0,[r4,#2]
        0x00000472:    2800        .(      CMP      r0,#0
        0x00000474:    d041        A.      BEQ      0x4fa ; AlarmBDRSSend + 210
        0x00000476:    4836        6H      LDR      r0,[pc,#216] ; [0x550] = 0x20000208
        0x00000478:    6a41        Aj      LDR      r1,[r0,#0x24]
        0x0000047a:    4834        4H      LDR      r0,[pc,#208] ; [0x54c] = 0x20000b3b
        0x0000047c:    f7ffff0c    ....    BL       strstr ; 0x298
        0x00000480:    2800        .(      CMP      r0,#0
        0x00000482:    d036        6.      BEQ      0x4f2 ; AlarmBDRSSend + 202
        0x00000484:    f002fbd4    ....    BL       WaiBuDianYuanPowerOffFun ; 0x2c30
        0x00000488:    4d31        1M      LDR      r5,[pc,#196] ; [0x550] = 0x20000208
        0x0000048a:    3030        00      ADDS     r0,r0,#0x30
        0x0000048c:    3dbf        .=      SUBS     r5,r5,#0xbf
        0x0000048e:    7028        (p      STRB     r0,[r5,#0]
        0x00000490:    2030        0       MOVS     r0,#0x30
        0x00000492:    7068        hp      STRB     r0,[r5,#1]
        0x00000494:    f000f876    ..v.    BL       BackBatteryPowerOffFun ; 0x584
        0x00000498:    3030        00      ADDS     r0,r0,#0x30
        0x0000049a:    70a8        .p      STRB     r0,[r5,#2]
        0x0000049c:    f001fe20    .. .    BL       SIMCardChangeAlarmFun ; 0x20e0
        0x000004a0:    3030        00      ADDS     r0,r0,#0x30
        0x000004a2:    70e8        .p      STRB     r0,[r5,#3]
        0x000004a4:    2001        .       MOVS     r0,#1
        0x000004a6:    f000ffed    ....    BL       Delay_Ms ; 0x1484
        0x000004aa:    a02a        *.      ADR      r0,{pc}+0xaa ; 0x554
        0x000004ac:    f001fb94    ....    BL       GprsSendComm ; 0x1bd8
        0x000004b0:    9800        ..      LDR      r0,[sp,#0]
        0x000004b2:    1cc0        ..      ADDS     r0,r0,#3
        0x000004b4:    f001fb90    ....    BL       GprsSendComm ; 0x1bd8
        0x000004b8:    9800        ..      LDR      r0,[sp,#0]
        0x000004ba:    3012        .0      ADDS     r0,r0,#0x12
        0x000004bc:    f001fb8c    ....    BL       GprsSendComm ; 0x1bd8
        0x000004c0:    a025        %.      ADR      r0,{pc}+0x98 ; 0x558
        0x000004c2:    f001fb89    ....    BL       GprsSendComm ; 0x1bd8
        0x000004c6:    4628        (F      MOV      r0,r5
        0x000004c8:    f001fb86    ....    BL       GprsSendComm ; 0x1bd8
        0x000004cc:    1c68        h.      ADDS     r0,r5,#1
        0x000004ce:    f001fb83    ....    BL       GprsSendComm ; 0x1bd8
        0x000004d2:    1ca8        ..      ADDS     r0,r5,#2
        0x000004d4:    f001fb80    ....    BL       GprsSendComm ; 0x1bd8
        0x000004d8:    1ce8        ..      ADDS     r0,r5,#3
        0x000004da:    f001fb7d    ..}.    BL       GprsSendComm ; 0x1bd8
        0x000004de:    1d28        (.      ADDS     r0,r5,#4
        0x000004e0:    f001fb7a    ..z.    BL       GprsSendComm ; 0x1bd8
        0x000004e4:    a01d        ..      ADR      r0,{pc}+0x78 ; 0x55c
        0x000004e6:    f001fb77    ..w.    BL       GprsSendComm ; 0x1bd8
        0x000004ea:    2001        .       MOVS     r0,#1
        0x000004ec:    70e0        .p      STRB     r0,[r4,#3]
        0x000004ee:    613e        >a      STR      r6,[r7,#0x10]
        0x000004f0:    e024        $.      B        0x53c ; AlarmBDRSSend + 276
        0x000004f2:    21ff        .!      MOVS     r1,#0xff
        0x000004f4:    31f5        .1      ADDS     r1,r1,#0xf5
        0x000004f6:    6938        8i      LDR      r0,[r7,#0x10]
        0x000004f8:    e011        ..      B        0x51e ; AlarmBDRSSend + 246
        0x000004fa:    4815        .H      LDR      r0,[pc,#84] ; [0x550] = 0x20000208
        0x000004fc:    3828        (8      SUBS     r0,r0,#0x28
        0x000004fe:    6a40        @j      LDR      r0,[r0,#0x24]
        0x00000500:    f001fb6a    ..j.    BL       GprsSendComm ; 0x1bd8
        0x00000504:    a016        ..      ADR      r0,{pc}+0x5c ; 0x560
        0x00000506:    f001fb67    ..g.    BL       GprsSendComm ; 0x1bd8
        0x0000050a:    a014        ..      ADR      r0,{pc}+0x52 ; 0x55c
        0x0000050c:    f001fb64    ..d.    BL       GprsSendComm ; 0x1bd8
        0x00000510:    2001        .       MOVS     r0,#1
        0x00000512:    613e        >a      STR      r6,[r7,#0x10]
        0x00000514:    70a0        .p      STRB     r0,[r4,#2]
        0x00000516:    e011        ..      B        0x53c ; AlarmBDRSSend + 276
        0x00000518:    217d        }!      MOVS     r1,#0x7d
        0x0000051a:    6938        8i      LDR      r0,[r7,#0x10]
        0x0000051c:    00c9        ..      LSLS     r1,r1,#3
        0x0000051e:    4288        .B      CMP      r0,r1
        0x00000520:    d30c        ..      BCC      0x53c ; AlarmBDRSSend + 276
        0x00000522:    21ff        .!      MOVS     r1,#0xff
        0x00000524:    312d        -1      ADDS     r1,r1,#0x2d
        0x00000526:    4809        .H      LDR      r0,[pc,#36] ; [0x54c] = 0x20000b3b
        0x00000528:    613e        >a      STR      r6,[r7,#0x10]
        0x0000052a:    f7fffea9    ....    BL       __aeabi_memclr ; 0x280
        0x0000052e:    8366        f.      STRH     r6,[r4,#0x1a]
        0x00000530:    71ee        .q      STRB     r6,[r5,#7]
        0x00000532:    722e        .r      STRB     r6,[r5,#8]
        0x00000534:    70e6        .p      STRB     r6,[r4,#3]
        0x00000536:    70a6        .p      STRB     r6,[r4,#2]
        0x00000538:    2000        .       MOVS     r0,#0
        0x0000053a:    e795        ..      B        0x468 ; AlarmBDRSSend + 64
        0x0000053c:    2003        .       MOVS     r0,#3
        0x0000053e:    e793        ..      B        0x468 ; AlarmBDRSSend + 64
    $d
        0x00000540:    20000070    p..     DCD    536871024
        0x00000544:    444e4553    SEND    DCD    1145980243
        0x00000548:    004b4f20     OK.    DCD    4935456
        0x0000054c:    20000b3b    ;..     DCD    536873787
        0x00000550:    20000208    ...     DCD    536871432
        0x00000554:    00003b58    X;..    DCD    15192
        0x00000558:    0000003b    ;...    DCD    59
        0x0000055c:    0000000d    ....    DCD    13
        0x00000560:    00003938    89..    DCD    14648
    $t
    i.AscToHex
    AscToHex
        0x00000564:    4601        .F      MOV      r1,r0
        0x00000566:    3930        09      SUBS     r1,r1,#0x30
        0x00000568:    2909        .)      CMP      r1,#9
        0x0000056a:    d801        ..      BHI      0x570 ; AscToHex + 12
        0x0000056c:    b2c8        ..      UXTB     r0,r1
        0x0000056e:    4770        pG      BX       lr
        0x00000570:    4601        .F      MOV      r1,r0
        0x00000572:    3941        A9      SUBS     r1,r1,#0x41
        0x00000574:    2905        .)      CMP      r1,#5
        0x00000576:    d802        ..      BHI      0x57e ; AscToHex + 26
        0x00000578:    3837        78      SUBS     r0,r0,#0x37
        0x0000057a:    b2c0        ..      UXTB     r0,r0
        0x0000057c:    4770        pG      BX       lr
        0x0000057e:    20ff        .       MOVS     r0,#0xff
        0x00000580:    4770        pG      BX       lr
        0x00000582:    0000        ..      MOVS     r0,r0
    i.BackBatteryPowerOffFun
    BackBatteryPowerOffFun
        0x00000584:    4803        .H      LDR      r0,[pc,#12] ; [0x594] = 0x200000b0
        0x00000586:    6fc0        .o      LDR      r0,[r0,#0x7c]
        0x00000588:    2825        %(      CMP      r0,#0x25
        0x0000058a:    d201        ..      BCS      0x590 ; BackBatteryPowerOffFun + 12
        0x0000058c:    2001        .       MOVS     r0,#1
        0x0000058e:    4770        pG      BX       lr
        0x00000590:    2000        .       MOVS     r0,#0
        0x00000592:    4770        pG      BX       lr
    $d
        0x00000594:    200000b0    ...     DCD    536871088
    $t
    i.BatteryChargeMangment
    BatteryChargeMangment
        0x00000598:    b530        0.      PUSH     {r4,r5,lr}
        0x0000059a:    4a09        .J      LDR      r2,[pc,#36] ; [0x5c0] = 0x200000b0
        0x0000059c:    4809        .H      LDR      r0,[pc,#36] ; [0x5c4] = 0x50004200
        0x0000059e:    6fd4        .o      LDR      r4,[r2,#0x7c]
        0x000005a0:    4b08        .K      LDR      r3,[pc,#32] ; [0x5c4] = 0x50004200
        0x000005a2:    2500        .%      MOVS     r5,#0
        0x000005a4:    3040        @0      ADDS     r0,r0,#0x40
        0x000005a6:    2101        .!      MOVS     r1,#1
        0x000005a8:    2c27        ',      CMP      r4,#0x27
        0x000005aa:    d302        ..      BCC      0x5b2 ; BatteryChargeMangment + 26
        0x000005ac:    6dd2        .m      LDR      r2,[r2,#0x5c]
        0x000005ae:    2af0        .*      CMP      r2,#0xf0
        0x000005b0:    d903        ..      BLS      0x5ba ; BatteryChargeMangment + 34
        0x000005b2:    6b9a        .k      LDR      r2,[r3,#0x38]
        0x000005b4:    2a00        .*      CMP      r2,#0
        0x000005b6:    d001        ..      BEQ      0x5bc ; BatteryChargeMangment + 36
        0x000005b8:    6081        .`      STR      r1,[r0,#8]
        0x000005ba:    bd30        0.      POP      {r4,r5,pc}
        0x000005bc:    6085        .`      STR      r5,[r0,#8]
        0x000005be:    bd30        0.      POP      {r4,r5,pc}
    $d
        0x000005c0:    200000b0    ...     DCD    536871088
        0x000005c4:    50004200    .B.P    DCD    1342194176
    $t
    i.CAN0_IRQHandler
    CAN0_IRQHandler
        0x000005c8:    b570        p.      PUSH     {r4-r6,lr}
        0x000005ca:    4c14        .L      LDR      r4,[pc,#80] ; [0x61c] = 0x40180000
        0x000005cc:    6921        !i      LDR      r1,[r4,#0x10]
        0x000005ce:    2001        .       MOVS     r0,#1
        0x000005d0:    03c0        ..      LSLS     r0,r0,#15
        0x000005d2:    4281        .B      CMP      r1,r0
        0x000005d4:    d10e        ..      BNE      0x5f4 ; CAN0_IRQHandler + 44
        0x000005d6:    6860        `h      LDR      r0,[r4,#4]
        0x000005d8:    06c0        ..      LSLS     r0,r0,#27
        0x000005da:    d503        ..      BPL      0x5e4 ; CAN0_IRQHandler + 28
        0x000005dc:    6860        `h      LDR      r0,[r4,#4]
        0x000005de:    2110        .!      MOVS     r1,#0x10
        0x000005e0:    4388        .C      BICS     r0,r0,r1
        0x000005e2:    6060        ``      STR      r0,[r4,#4]
        0x000005e4:    6860        `h      LDR      r0,[r4,#4]
        0x000005e6:    0700        ..      LSLS     r0,r0,#28
        0x000005e8:    d503        ..      BPL      0x5f2 ; CAN0_IRQHandler + 42
        0x000005ea:    6860        `h      LDR      r0,[r4,#4]
        0x000005ec:    2108        .!      MOVS     r1,#8
        0x000005ee:    4388        .C      BICS     r0,r0,r1
        0x000005f0:    6060        ``      STR      r0,[r4,#4]
        0x000005f2:    bd70        p.      POP      {r4-r6,pc}
        0x000005f4:    1e4a        J.      SUBS     r2,r1,#1
        0x000005f6:    4615        .F      MOV      r5,r2
        0x000005f8:    2a1f        .*      CMP      r2,#0x1f
        0x000005fa:    d807        ..      BHI      0x60c ; CAN0_IRQHandler + 68
        0x000005fc:    4620         F      MOV      r0,r4
        0x000005fe:    f000f927    ..'.    BL       CAN_MsgInterrupt ; 0x850
        0x00000602:    b2e9        ..      UXTB     r1,r5
        0x00000604:    4620         F      MOV      r0,r4
        0x00000606:    f000f8b6    ....    BL       CAN_CLR_INT_PENDING_BIT ; 0x776
        0x0000060a:    bd70        p.      POP      {r4-r6,pc}
        0x0000060c:    4804        .H      LDR      r0,[pc,#16] ; [0x620] = 0x40180140
        0x0000060e:    6ac1        .j      LDR      r1,[r0,#0x2c]
        0x00000610:    2901        .)      CMP      r1,#1
        0x00000612:    d1fa        ..      BNE      0x60a ; CAN0_IRQHandler + 66
        0x00000614:    2100        .!      MOVS     r1,#0
        0x00000616:    62c1        .b      STR      r1,[r0,#0x2c]
        0x00000618:    bd70        p.      POP      {r4-r6,pc}
    $d
        0x0000061a:    0000        ..      DCW    0
        0x0000061c:    40180000    ...@    DCD    1075314688
        0x00000620:    40180140    @..@    DCD    1075315008
    $t
    i.CANRx_initial
    CANRx_initial
        0x00000624:    b510        ..      PUSH     {r4,lr}
        0x00000626:    4604        .F      MOV      r4,r0
        0x00000628:    2106        .!      MOVS     r1,#6
        0x0000062a:    f000f8c0    ....    BL       CAN_EnableInt ; 0x7ae
        0x0000062e:    4928        (I      LDR      r1,[pc,#160] ; [0x6d0] = 0xe000e414
        0x00000630:    6808        .h      LDR      r0,[r1,#0]
        0x00000632:    0a02        ..      LSRS     r2,r0,#8
        0x00000634:    0212        ..      LSLS     r2,r2,#8
        0x00000636:    2080        .       MOVS     r0,#0x80
        0x00000638:    4302        .C      ORRS     r2,r2,r0
        0x0000063a:    600a        .`      STR      r2,[r1,#0]
        0x0000063c:    2014        .       MOVS     r0,#0x14
        0x0000063e:    f001fd21    ..!.    BL       NVIC_EnableIRQ ; 0x2084
        0x00000642:    4b24        $K      LDR      r3,[pc,#144] ; [0x6d4] = 0xcf00400
        0x00000644:    2201        ."      MOVS     r2,#1
        0x00000646:    2100        .!      MOVS     r1,#0
        0x00000648:    4620         F      MOV      r0,r4
        0x0000064a:    f000fa2f    ../.    BL       CAN_SetRxMsg ; 0xaac
        0x0000064e:    2800        .(      CMP      r0,#0
        0x00000650:    d03d        =.      BEQ      0x6ce ; CANRx_initial + 170
        0x00000652:    2201        ."      MOVS     r2,#1
        0x00000654:    4b20         K      LDR      r3,[pc,#128] ; [0x6d8] = 0x18feef00
        0x00000656:    4611        .F      MOV      r1,r2
        0x00000658:    4620         F      MOV      r0,r4
        0x0000065a:    f000fa27    ..'.    BL       CAN_SetRxMsg ; 0xaac
        0x0000065e:    2800        .(      CMP      r0,#0
        0x00000660:    d035        5.      BEQ      0x6ce ; CANRx_initial + 170
        0x00000662:    4b1e        .K      LDR      r3,[pc,#120] ; [0x6dc] = 0x18feee00
        0x00000664:    2201        ."      MOVS     r2,#1
        0x00000666:    2102        .!      MOVS     r1,#2
        0x00000668:    4620         F      MOV      r0,r4
        0x0000066a:    f000fa1f    ....    BL       CAN_SetRxMsg ; 0xaac
        0x0000066e:    2800        .(      CMP      r0,#0
        0x00000670:    d02d        -.      BEQ      0x6ce ; CANRx_initial + 170
        0x00000672:    4b1b        .K      LDR      r3,[pc,#108] ; [0x6e0] = 0x18feca00
        0x00000674:    2201        ."      MOVS     r2,#1
        0x00000676:    2103        .!      MOVS     r1,#3
        0x00000678:    4620         F      MOV      r0,r4
        0x0000067a:    f000fa17    ....    BL       CAN_SetRxMsg ; 0xaac
        0x0000067e:    2800        .(      CMP      r0,#0
        0x00000680:    d025        %.      BEQ      0x6ce ; CANRx_initial + 170
        0x00000682:    4b18        .K      LDR      r3,[pc,#96] ; [0x6e4] = 0x18fee500
        0x00000684:    2201        ."      MOVS     r2,#1
        0x00000686:    2104        .!      MOVS     r1,#4
        0x00000688:    4620         F      MOV      r0,r4
        0x0000068a:    f000fa0f    ....    BL       CAN_SetRxMsg ; 0xaac
        0x0000068e:    2800        .(      CMP      r0,#0
        0x00000690:    d01d        ..      BEQ      0x6ce ; CANRx_initial + 170
        0x00000692:    4b15        .K      LDR      r3,[pc,#84] ; [0x6e8] = 0x18feff00
        0x00000694:    2201        ."      MOVS     r2,#1
        0x00000696:    2105        .!      MOVS     r1,#5
        0x00000698:    4620         F      MOV      r0,r4
        0x0000069a:    f000fa07    ....    BL       CAN_SetRxMsg ; 0xaac
        0x0000069e:    2800        .(      CMP      r0,#0
        0x000006a0:    d015        ..      BEQ      0x6ce ; CANRx_initial + 170
        0x000006a2:    4b12        .K      LDR      r3,[pc,#72] ; [0x6ec] = 0x18fd0100
        0x000006a4:    2201        ."      MOVS     r2,#1
        0x000006a6:    2106        .!      MOVS     r1,#6
        0x000006a8:    4620         F      MOV      r0,r4
        0x000006aa:    f000f9ff    ....    BL       CAN_SetRxMsg ; 0xaac
        0x000006ae:    2800        .(      CMP      r0,#0
        0x000006b0:    d00d        ..      BEQ      0x6ce ; CANRx_initial + 170
        0x000006b2:    4b0f        .K      LDR      r3,[pc,#60] ; [0x6f0] = 0x18ecff00
        0x000006b4:    2201        ."      MOVS     r2,#1
        0x000006b6:    2107        .!      MOVS     r1,#7
        0x000006b8:    4620         F      MOV      r0,r4
        0x000006ba:    f000f9f7    ....    BL       CAN_SetRxMsg ; 0xaac
        0x000006be:    2800        .(      CMP      r0,#0
        0x000006c0:    d005        ..      BEQ      0x6ce ; CANRx_initial + 170
        0x000006c2:    4b0c        .K      LDR      r3,[pc,#48] ; [0x6f4] = 0x18ebff00
        0x000006c4:    2201        ."      MOVS     r2,#1
        0x000006c6:    2108        .!      MOVS     r1,#8
        0x000006c8:    4620         F      MOV      r0,r4
        0x000006ca:    f000f9ef    ....    BL       CAN_SetRxMsg ; 0xaac
        0x000006ce:    bd10        ..      POP      {r4,pc}
    $d
        0x000006d0:    e000e414    ....    DCD    3758154772
        0x000006d4:    0cf00400    ....    DCD    217056256
        0x000006d8:    18feef00    ....    DCD    419360512
        0x000006dc:    18feee00    ....    DCD    419360256
        0x000006e0:    18feca00    ....    DCD    419351040
        0x000006e4:    18fee500    ....    DCD    419357952
        0x000006e8:    18feff00    ....    DCD    419364608
        0x000006ec:    18fd0100    ....    DCD    419234048
        0x000006f0:    18ecff00    ....    DCD    418184960
        0x000006f4:    18ebff00    ....    DCD    418119424
    $t
    i.CAN_BasicReceiveMsg
    CAN_BasicReceiveMsg
        0x000006f8:    b510        ..      PUSH     {r4,lr}
        0x000006fa:    4602        .F      MOV      r2,r0
        0x000006fc:    3280        .2      ADDS     r2,r2,#0x80
        0x000006fe:    6993        .i      LDR      r3,[r2,#0x18]
        0x00000700:    041b        ..      LSLS     r3,r3,#16
        0x00000702:    d401        ..      BMI      0x708 ; CAN_BasicReceiveMsg + 16
        0x00000704:    2000        .       MOVS     r0,#0
        0x00000706:    bd10        ..      POP      {r4,pc}
        0x00000708:    6843        Ch      LDR      r3,[r0,#4]
        0x0000070a:    2410        .$      MOVS     r4,#0x10
        0x0000070c:    43a3        .C      BICS     r3,r3,r4
        0x0000070e:    6043        C`      STR      r3,[r0,#4]
        0x00000710:    2033        3       MOVS     r0,#0x33
        0x00000712:    6050        P`      STR      r0,[r2,#4]
        0x00000714:    6950        Pi      LDR      r0,[r2,#0x14]
        0x00000716:    0440        @.      LSLS     r0,r0,#17
        0x00000718:    d405        ..      BMI      0x726 ; CAN_BasicReceiveMsg + 46
        0x0000071a:    2000        .       MOVS     r0,#0
        0x0000071c:    6008        .`      STR      r0,[r1,#0]
        0x0000071e:    6950        Pi      LDR      r0,[r2,#0x14]
        0x00000720:    04c0        ..      LSLS     r0,r0,#19
        0x00000722:    0d40        @.      LSRS     r0,r0,#21
        0x00000724:    e007        ..      B        0x736 ; CAN_BasicReceiveMsg + 62
        0x00000726:    2001        .       MOVS     r0,#1
        0x00000728:    6008        .`      STR      r0,[r1,#0]
        0x0000072a:    6950        Pi      LDR      r0,[r2,#0x14]
        0x0000072c:    04c0        ..      LSLS     r0,r0,#19
        0x0000072e:    08c0        ..      LSRS     r0,r0,#3
        0x00000730:    6088        .`      STR      r0,[r1,#8]
        0x00000732:    6913        .i      LDR      r3,[r2,#0x10]
        0x00000734:    4318        .C      ORRS     r0,r0,r3
        0x00000736:    6088        .`      STR      r0,[r1,#8]
        0x00000738:    6950        Pi      LDR      r0,[r2,#0x14]
        0x0000073a:    0480        ..      LSLS     r0,r0,#18
        0x0000073c:    17c0        ..      ASRS     r0,r0,#31
        0x0000073e:    1c40        @.      ADDS     r0,r0,#1
        0x00000740:    6048        H`      STR      r0,[r1,#4]
        0x00000742:    6990        .i      LDR      r0,[r2,#0x18]
        0x00000744:    0700        ..      LSLS     r0,r0,#28
        0x00000746:    0f00        ..      LSRS     r0,r0,#28
        0x00000748:    7308        .s      STRB     r0,[r1,#0xc]
        0x0000074a:    69d0        .i      LDR      r0,[r2,#0x1c]
        0x0000074c:    7348        Hs      STRB     r0,[r1,#0xd]
        0x0000074e:    69d0        .i      LDR      r0,[r2,#0x1c]
        0x00000750:    0a00        ..      LSRS     r0,r0,#8
        0x00000752:    7388        .s      STRB     r0,[r1,#0xe]
        0x00000754:    6a10        .j      LDR      r0,[r2,#0x20]
        0x00000756:    73c8        .s      STRB     r0,[r1,#0xf]
        0x00000758:    6a10        .j      LDR      r0,[r2,#0x20]
        0x0000075a:    0a00        ..      LSRS     r0,r0,#8
        0x0000075c:    7408        .t      STRB     r0,[r1,#0x10]
        0x0000075e:    6a50        Pj      LDR      r0,[r2,#0x24]
        0x00000760:    7448        Ht      STRB     r0,[r1,#0x11]
        0x00000762:    6a50        Pj      LDR      r0,[r2,#0x24]
        0x00000764:    0a00        ..      LSRS     r0,r0,#8
        0x00000766:    7488        .t      STRB     r0,[r1,#0x12]
        0x00000768:    6a90        .j      LDR      r0,[r2,#0x28]
        0x0000076a:    74c8        .t      STRB     r0,[r1,#0x13]
        0x0000076c:    6a90        .j      LDR      r0,[r2,#0x28]
        0x0000076e:    0a00        ..      LSRS     r0,r0,#8
        0x00000770:    7508        .u      STRB     r0,[r1,#0x14]
        0x00000772:    2001        .       MOVS     r0,#1
        0x00000774:    bd10        ..      POP      {r4,pc}
    i.CAN_CLR_INT_PENDING_BIT
    CAN_CLR_INT_PENDING_BIT
        0x00000776:    b570        p.      PUSH     {r4-r6,lr}
        0x00000778:    2300        .#      MOVS     r3,#0
        0x0000077a:    4604        .F      MOV      r4,r0
        0x0000077c:    3480        .4      ADDS     r4,r4,#0x80
        0x0000077e:    2501        .%      MOVS     r5,#1
        0x00000780:    461a        .F      MOV      r2,r3
        0x00000782:    072d        -.      LSLS     r5,r5,#28
        0x00000784:    6a06        .j      LDR      r6,[r0,#0x20]
        0x00000786:    0436        6.      LSLS     r6,r6,#16
        0x00000788:    d401        ..      BMI      0x78e ; CAN_CLR_INT_PENDING_BIT + 24
        0x0000078a:    2300        .#      MOVS     r3,#0
        0x0000078c:    e007        ..      B        0x79e ; CAN_CLR_INT_PENDING_BIT + 40
        0x0000078e:    6826        &h      LDR      r6,[r4,#0]
        0x00000790:    0436        6.      LSLS     r6,r6,#16
        0x00000792:    d401        ..      BMI      0x798 ; CAN_CLR_INT_PENDING_BIT + 34
        0x00000794:    2301        .#      MOVS     r3,#1
        0x00000796:    e002        ..      B        0x79e ; CAN_CLR_INT_PENDING_BIT + 40
        0x00000798:    1c52        R.      ADDS     r2,r2,#1
        0x0000079a:    42aa        .B      CMP      r2,r5
        0x0000079c:    d3f2        ..      BCC      0x784 ; CAN_CLR_INT_PENDING_BIT + 14
        0x0000079e:    2460        `$      MOVS     r4,#0x60
        0x000007a0:    220c        ."      MOVS     r2,#0xc
        0x000007a2:    4363        cC      MULS     r3,r4,r3
        0x000007a4:    1818        ..      ADDS     r0,r3,r0
        0x000007a6:    6242        Bb      STR      r2,[r0,#0x24]
        0x000007a8:    1c49        I.      ADDS     r1,r1,#1
        0x000007aa:    6201        .b      STR      r1,[r0,#0x20]
        0x000007ac:    bd70        p.      POP      {r4-r6,pc}
    i.CAN_EnableInt
    CAN_EnableInt
        0x000007ae:    b510        ..      PUSH     {r4,lr}
        0x000007b0:    460b        .F      MOV      r3,r1
        0x000007b2:    4604        .F      MOV      r4,r0
        0x000007b4:    f000f814    ....    BL       CAN_EnterInitMode ; 0x7e0
        0x000007b8:    6820         h      LDR      r0,[r4,#0]
        0x000007ba:    21f1        .!      MOVS     r1,#0xf1
        0x000007bc:    4008        .@      ANDS     r0,r0,r1
        0x000007be:    0799        ..      LSLS     r1,r3,#30
        0x000007c0:    0fc9        ..      LSRS     r1,r1,#31
        0x000007c2:    0049        I.      LSLS     r1,r1,#1
        0x000007c4:    4308        .C      ORRS     r0,r0,r1
        0x000007c6:    0759        Y.      LSLS     r1,r3,#29
        0x000007c8:    0fc9        ..      LSRS     r1,r1,#31
        0x000007ca:    0089        ..      LSLS     r1,r1,#2
        0x000007cc:    4308        .C      ORRS     r0,r0,r1
        0x000007ce:    0719        ..      LSLS     r1,r3,#28
        0x000007d0:    0fc9        ..      LSRS     r1,r1,#31
        0x000007d2:    00c9        ..      LSLS     r1,r1,#3
        0x000007d4:    4308        .C      ORRS     r0,r0,r1
        0x000007d6:    6020         `      STR      r0,[r4,#0]
        0x000007d8:    4620         F      MOV      r0,r4
        0x000007da:    f000f831    ..1.    BL       CAN_LeaveInitMode ; 0x840
        0x000007de:    bd10        ..      POP      {r4,pc}
    i.CAN_EnterInitMode
    CAN_EnterInitMode
        0x000007e0:    6801        .h      LDR      r1,[r0,#0]
        0x000007e2:    2201        ."      MOVS     r2,#1
        0x000007e4:    4311        .C      ORRS     r1,r1,r2
        0x000007e6:    6001        .`      STR      r1,[r0,#0]
        0x000007e8:    6801        .h      LDR      r1,[r0,#0]
        0x000007ea:    2240        @"      MOVS     r2,#0x40
        0x000007ec:    4311        .C      ORRS     r1,r1,r2
        0x000007ee:    6001        .`      STR      r1,[r0,#0]
        0x000007f0:    4770        pG      BX       lr
        0x000007f2:    0000        ..      MOVS     r0,r0
    i.CAN_GetCANBitRate
    CAN_GetCANBitRate
        0x000007f4:    b570        p.      PUSH     {r4-r6,lr}
        0x000007f6:    68c1        .h      LDR      r1,[r0,#0xc]
        0x000007f8:    0509        ..      LSLS     r1,r1,#20
        0x000007fa:    0f0c        ..      LSRS     r4,r1,#28
        0x000007fc:    68c1        .h      LDR      r1,[r0,#0xc]
        0x000007fe:    0449        I.      LSLS     r1,r1,#17
        0x00000800:    0f4d        M.      LSRS     r5,r1,#29
        0x00000802:    68c1        .h      LDR      r1,[r0,#0xc]
        0x00000804:    6980        .i      LDR      r0,[r0,#0x18]
        0x00000806:    0689        ..      LSLS     r1,r1,#26
        0x00000808:    0e89        ..      LSRS     r1,r1,#26
        0x0000080a:    0180        ..      LSLS     r0,r0,#6
        0x0000080c:    4301        .C      ORRS     r1,r1,r0
        0x0000080e:    4805        .H      LDR      r0,[pc,#20] ; [0x824] = 0x20000000
        0x00000810:    1c49        I.      ADDS     r1,r1,#1
        0x00000812:    6800        .h      LDR      r0,[r0,#0]
        0x00000814:    f7fffc84    ....    BL       __aeabi_uidiv ; 0x120
        0x00000818:    1961        a.      ADDS     r1,r4,r5
        0x0000081a:    1cc9        ..      ADDS     r1,r1,#3
        0x0000081c:    f7fffc80    ....    BL       __aeabi_uidiv ; 0x120
        0x00000820:    bd70        p.      POP      {r4-r6,pc}
    $d
        0x00000822:    0000        ..      DCW    0
        0x00000824:    20000000    ...     DCD    536870912
    $t
    i.CAN_IsNewDataReceived
    CAN_IsNewDataReceived
        0x00000828:    30ff        .0      ADDS     r0,r0,#0xff
        0x0000082a:    3001        .0      ADDS     r0,#1
        0x0000082c:    2201        ."      MOVS     r2,#1
        0x0000082e:    2910        .)      CMP      r1,#0x10
        0x00000830:    d201        ..      BCS      0x836 ; CAN_IsNewDataReceived + 14
        0x00000832:    6a00        .j      LDR      r0,[r0,#0x20]
        0x00000834:    e001        ..      B        0x83a ; CAN_IsNewDataReceived + 18
        0x00000836:    6a40        @j      LDR      r0,[r0,#0x24]
        0x00000838:    3910        .9      SUBS     r1,r1,#0x10
        0x0000083a:    408a        .@      LSLS     r2,r2,r1
        0x0000083c:    4010        .@      ANDS     r0,r0,r2
        0x0000083e:    4770        pG      BX       lr
    i.CAN_LeaveInitMode
    CAN_LeaveInitMode
        0x00000840:    6801        .h      LDR      r1,[r0,#0]
        0x00000842:    2241        A"      MOVS     r2,#0x41
        0x00000844:    4391        .C      BICS     r1,r1,r2
        0x00000846:    6001        .`      STR      r1,[r0,#0]
        0x00000848:    6801        .h      LDR      r1,[r0,#0]
        0x0000084a:    07c9        ..      LSLS     r1,r1,#31
        0x0000084c:    d1fc        ..      BNE      0x848 ; CAN_LeaveInitMode + 8
        0x0000084e:    4770        pG      BX       lr
    i.CAN_MsgInterrupt
    CAN_MsgInterrupt
        0x00000850:    b5f8        ..      PUSH     {r3-r7,lr}
        0x00000852:    4c3c        <L      LDR      r4,[pc,#240] ; [0x944] = 0x20000030
        0x00000854:    460b        .F      MOV      r3,r1
        0x00000856:    4621        !F      MOV      r1,r4
        0x00000858:    3140        @1      ADDS     r1,r1,#0x40
        0x0000085a:    2601        .&      MOVS     r6,#1
        0x0000085c:    2500        .%      MOVS     r5,#0
        0x0000085e:    f002fa29    ..).    BL       __ARM_common_switch8 ; 0x2cb4
    $d
        0x00000862:    6f0a        .o      DCW    28426
        0x00000864:    120e0a06    ....    DCD    302909958
        0x00000868:    261f1b17    ...&    DCD    639572759
        0x0000086c:    6f2a        *o      DCW    28458
    $t
        0x0000086e:    744e        Nt      STRB     r6,[r1,#0x11]
        0x00000870:    7165        eq      STRB     r5,[r4,#5]
        0x00000872:    2701        .'      MOVS     r7,#1
        0x00000874:    e022        ".      B        0x8bc ; CAN_MsgInterrupt + 108
        0x00000876:    744e        Nt      STRB     r6,[r1,#0x11]
        0x00000878:    7165        eq      STRB     r5,[r4,#5]
        0x0000087a:    2702        .'      MOVS     r7,#2
        0x0000087c:    e01e        ..      B        0x8bc ; CAN_MsgInterrupt + 108
        0x0000087e:    744e        Nt      STRB     r6,[r1,#0x11]
        0x00000880:    7165        eq      STRB     r5,[r4,#5]
        0x00000882:    2703        .'      MOVS     r7,#3
        0x00000884:    e01a        ..      B        0x8bc ; CAN_MsgInterrupt + 108
        0x00000886:    744e        Nt      STRB     r6,[r1,#0x11]
        0x00000888:    7165        eq      STRB     r5,[r4,#5]
        0x0000088a:    70e5        .p      STRB     r5,[r4,#3]
        0x0000088c:    2704        .'      MOVS     r7,#4
        0x0000088e:    e015        ..      B        0x8bc ; CAN_MsgInterrupt + 108
        0x00000890:    744e        Nt      STRB     r6,[r1,#0x11]
        0x00000892:    7165        eq      STRB     r5,[r4,#5]
        0x00000894:    2705        .'      MOVS     r7,#5
        0x00000896:    e011        ..      B        0x8bc ; CAN_MsgInterrupt + 108
        0x00000898:    744e        Nt      STRB     r6,[r1,#0x11]
        0x0000089a:    7165        eq      STRB     r5,[r4,#5]
        0x0000089c:    2706        .'      MOVS     r7,#6
        0x0000089e:    e00d        ..      B        0x8bc ; CAN_MsgInterrupt + 108
        0x000008a0:    744e        Nt      STRB     r6,[r1,#0x11]
        0x000008a2:    4928        (I      LDR      r1,[pc,#160] ; [0x944] = 0x20000030
        0x000008a4:    3120         1      ADDS     r1,r1,#0x20
        0x000008a6:    70ce        .p      STRB     r6,[r1,#3]
        0x000008a8:    7165        eq      STRB     r5,[r4,#5]
        0x000008aa:    2707        .'      MOVS     r7,#7
        0x000008ac:    e006        ..      B        0x8bc ; CAN_MsgInterrupt + 108
        0x000008ae:    744e        Nt      STRB     r6,[r1,#0x11]
        0x000008b0:    7165        eq      STRB     r5,[r4,#5]
        0x000008b2:    2708        .'      MOVS     r7,#8
        0x000008b4:    e002        ..      B        0x8bc ; CAN_MsgInterrupt + 108
        0x000008b6:    744e        Nt      STRB     r6,[r1,#0x11]
        0x000008b8:    7165        eq      STRB     r5,[r4,#5]
        0x000008ba:    2709        .'      MOVS     r7,#9
        0x000008bc:    4a22        "J      LDR      r2,[pc,#136] ; [0x948] = 0x200008dc
        0x000008be:    1e79        y.      SUBS     r1,r7,#1
        0x000008c0:    f000f89a    ....    BL       CAN_Receive ; 0x9f8
        0x000008c4:    4b21        !K      LDR      r3,[pc,#132] ; [0x94c] = 0x200007cc
        0x000008c6:    2000        .       MOVS     r0,#0
        0x000008c8:    00f9        ..      LSLS     r1,r7,#3
        0x000008ca:    18c9        ..      ADDS     r1,r1,r3
        0x000008cc:    4a1e        .J      LDR      r2,[pc,#120] ; [0x948] = 0x200008dc
        0x000008ce:    1812        ..      ADDS     r2,r2,r0
        0x000008d0:    7b52        R{      LDRB     r2,[r2,#0xd]
        0x000008d2:    540a        .T      STRB     r2,[r1,r0]
        0x000008d4:    1c40        @.      ADDS     r0,r0,#1
        0x000008d6:    b2c0        ..      UXTB     r0,r0
        0x000008d8:    2808        .(      CMP      r0,#8
        0x000008da:    d3f7        ..      BCC      0x8cc ; CAN_MsgInterrupt + 124
        0x000008dc:    4a1b        .J      LDR      r2,[pc,#108] ; [0x94c] = 0x200007cc
        0x000008de:    3240        @2      ADDS     r2,r2,#0x40
        0x000008e0:    2f08        ./      CMP      r7,#8
        0x000008e2:    d110        ..      BNE      0x906 ; CAN_MsgInterrupt + 182
        0x000008e4:    7950        Py      LDRB     r0,[r2,#5]
        0x000008e6:    28ca        .(      CMP      r0,#0xca
        0x000008e8:    d12a        *.      BNE      0x940 ; CAN_MsgInterrupt + 240
        0x000008ea:    7125        %q      STRB     r5,[r4,#4]
        0x000008ec:    7626        &v      STRB     r6,[r4,#0x18]
        0x000008ee:    2000        .       MOVS     r0,#0
        0x000008f0:    4916        .I      LDR      r1,[pc,#88] ; [0x94c] = 0x200007cc
        0x000008f2:    1809        ..      ADDS     r1,r1,r0
        0x000008f4:    3140        @1      ADDS     r1,r1,#0x40
        0x000008f6:    784b        Kx      LDRB     r3,[r1,#1]
        0x000008f8:    4914        .I      LDR      r1,[pc,#80] ; [0x94c] = 0x200007cc
        0x000008fa:    3150        P1      ADDS     r1,r1,#0x50
        0x000008fc:    540b        .T      STRB     r3,[r1,r0]
        0x000008fe:    1c40        @.      ADDS     r0,r0,#1
        0x00000900:    b2c0        ..      UXTB     r0,r0
        0x00000902:    2807        .(      CMP      r0,#7
        0x00000904:    d3f4        ..      BCC      0x8f0 ; CAN_MsgInterrupt + 160
        0x00000906:    2f09        ./      CMP      r7,#9
        0x00000908:    d11a        ..      BNE      0x940 ; CAN_MsgInterrupt + 240
        0x0000090a:    7e20         ~      LDRB     r0,[r4,#0x18]
        0x0000090c:    2800        .(      CMP      r0,#0
        0x0000090e:    d017        ..      BEQ      0x940 ; CAN_MsgInterrupt + 240
        0x00000910:    4b0e        .K      LDR      r3,[pc,#56] ; [0x94c] = 0x200007cc
        0x00000912:    7125        %q      STRB     r5,[r4,#4]
        0x00000914:    3350        P3      ADDS     r3,r3,#0x50
        0x00000916:    7a12        .z      LDRB     r2,[r2,#8]
        0x00000918:    7898        .x      LDRB     r0,[r3,#2]
        0x0000091a:    4290        .B      CMP      r0,r2
        0x0000091c:    d100        ..      BNE      0x920 ; CAN_MsgInterrupt + 208
        0x0000091e:    7625        %v      STRB     r5,[r4,#0x18]
        0x00000920:    00d5        ..      LSLS     r5,r2,#3
        0x00000922:    2000        .       MOVS     r0,#0
        0x00000924:    4909        .I      LDR      r1,[pc,#36] ; [0x94c] = 0x200007cc
        0x00000926:    1aaa        ..      SUBS     r2,r5,r2
        0x00000928:    18d3        ..      ADDS     r3,r2,r3
        0x0000092a:    180a        ..      ADDS     r2,r1,r0
        0x0000092c:    3240        @2      ADDS     r2,r2,#0x40
        0x0000092e:    7a52        Rz      LDRB     r2,[r2,#9]
        0x00000930:    541a        .T      STRB     r2,[r3,r0]
        0x00000932:    1c40        @.      ADDS     r0,r0,#1
        0x00000934:    b2c0        ..      UXTB     r0,r0
        0x00000936:    2807        .(      CMP      r0,#7
        0x00000938:    d3f7        ..      BCC      0x92a ; CAN_MsgInterrupt + 218
        0x0000093a:    7a20         z      LDRB     r0,[r4,#8]
        0x0000093c:    4330        0C      ORRS     r0,r0,r6
        0x0000093e:    7220         r      STRB     r0,[r4,#8]
        0x00000940:    bdf8        ..      POP      {r3-r7,pc}
    $d
        0x00000942:    0000        ..      DCW    0
        0x00000944:    20000030    0..     DCD    536870960
        0x00000948:    200008dc    ...     DCD    536873180
        0x0000094c:    200007cc    ...     DCD    536872908
    $t
    i.CAN_Open
    CAN_Open
        0x00000950:    b570        p.      PUSH     {r4-r6,lr}
        0x00000952:    4604        .F      MOV      r4,r0
        0x00000954:    4615        .F      MOV      r5,r2
        0x00000956:    f000f863    ..c.    BL       CAN_SetBaudRate ; 0xa20
        0x0000095a:    2d01        .-      CMP      r5,#1
        0x0000095c:    d105        ..      BNE      0x96a ; CAN_Open + 26
        0x0000095e:    6821        !h      LDR      r1,[r4,#0]
        0x00000960:    2280        ."      MOVS     r2,#0x80
        0x00000962:    4311        .C      ORRS     r1,r1,r2
        0x00000964:    6021        !`      STR      r1,[r4,#0]
        0x00000966:    2104        .!      MOVS     r1,#4
        0x00000968:    6161        aa      STR      r1,[r4,#0x14]
        0x0000096a:    bd70        p.      POP      {r4-r6,pc}
    i.CAN_ReadMsgObj
    CAN_ReadMsgObj
        0x0000096c:    b570        p.      PUSH     {r4-r6,lr}
        0x0000096e:    4604        .F      MOV      r4,r0
        0x00000970:    460d        .F      MOV      r5,r1
        0x00000972:    4616        .F      MOV      r6,r2
        0x00000974:    f7ffff58    ..X.    BL       CAN_IsNewDataReceived ; 0x828
        0x00000978:    2800        .(      CMP      r0,#0
        0x0000097a:    d03c        <.      BEQ      0x9f6 ; CAN_ReadMsgObj + 138
        0x0000097c:    6860        `h      LDR      r0,[r4,#4]
        0x0000097e:    2110        .!      MOVS     r1,#0x10
        0x00000980:    4388        .C      BICS     r0,r0,r1
        0x00000982:    6060        ``      STR      r0,[r4,#4]
        0x00000984:    2e00        ..      CMP      r6,#0
        0x00000986:    d001        ..      BEQ      0x98c ; CAN_ReadMsgObj + 32
        0x00000988:    2004        .       MOVS     r0,#4
        0x0000098a:    e000        ..      B        0x98e ; CAN_ReadMsgObj + 34
        0x0000098c:    2000        .       MOVS     r0,#0
        0x0000098e:    3078        x0      ADDS     r0,r0,#0x78
        0x00000990:    2103        .!      MOVS     r1,#3
        0x00000992:    4308        .C      ORRS     r0,r0,r1
        0x00000994:    3480        .4      ADDS     r4,r4,#0x80
        0x00000996:    6060        ``      STR      r0,[r4,#4]
        0x00000998:    1c6d        m.      ADDS     r5,r5,#1
        0x0000099a:    6025        %`      STR      r5,[r4,#0]
        0x0000099c:    6820         h      LDR      r0,[r4,#0]
        0x0000099e:    0400        ..      LSLS     r0,r0,#16
        0x000009a0:    d4fc        ..      BMI      0x99c ; CAN_ReadMsgObj + 48
        0x000009a2:    6960        `i      LDR      r0,[r4,#0x14]
        0x000009a4:    0440        @.      LSLS     r0,r0,#17
        0x000009a6:    d405        ..      BMI      0x9b4 ; CAN_ReadMsgObj + 72
        0x000009a8:    2000        .       MOVS     r0,#0
        0x000009aa:    6018        .`      STR      r0,[r3,#0]
        0x000009ac:    6960        `i      LDR      r0,[r4,#0x14]
        0x000009ae:    04c0        ..      LSLS     r0,r0,#19
        0x000009b0:    0d40        @.      LSRS     r0,r0,#21
        0x000009b2:    e006        ..      B        0x9c2 ; CAN_ReadMsgObj + 86
        0x000009b4:    2001        .       MOVS     r0,#1
        0x000009b6:    6018        .`      STR      r0,[r3,#0]
        0x000009b8:    6960        `i      LDR      r0,[r4,#0x14]
        0x000009ba:    6921        !i      LDR      r1,[r4,#0x10]
        0x000009bc:    04c0        ..      LSLS     r0,r0,#19
        0x000009be:    08c0        ..      LSRS     r0,r0,#3
        0x000009c0:    4308        .C      ORRS     r0,r0,r1
        0x000009c2:    6098        .`      STR      r0,[r3,#8]
        0x000009c4:    69a0        .i      LDR      r0,[r4,#0x18]
        0x000009c6:    0700        ..      LSLS     r0,r0,#28
        0x000009c8:    0f00        ..      LSRS     r0,r0,#28
        0x000009ca:    7318        .s      STRB     r0,[r3,#0xc]
        0x000009cc:    69e0        .i      LDR      r0,[r4,#0x1c]
        0x000009ce:    7358        Xs      STRB     r0,[r3,#0xd]
        0x000009d0:    69e0        .i      LDR      r0,[r4,#0x1c]
        0x000009d2:    0a00        ..      LSRS     r0,r0,#8
        0x000009d4:    7398        .s      STRB     r0,[r3,#0xe]
        0x000009d6:    6a20         j      LDR      r0,[r4,#0x20]
        0x000009d8:    73d8        .s      STRB     r0,[r3,#0xf]
        0x000009da:    6a20         j      LDR      r0,[r4,#0x20]
        0x000009dc:    0a00        ..      LSRS     r0,r0,#8
        0x000009de:    7418        .t      STRB     r0,[r3,#0x10]
        0x000009e0:    6a60        `j      LDR      r0,[r4,#0x24]
        0x000009e2:    7458        Xt      STRB     r0,[r3,#0x11]
        0x000009e4:    6a60        `j      LDR      r0,[r4,#0x24]
        0x000009e6:    0a00        ..      LSRS     r0,r0,#8
        0x000009e8:    7498        .t      STRB     r0,[r3,#0x12]
        0x000009ea:    6aa0        .j      LDR      r0,[r4,#0x28]
        0x000009ec:    74d8        .t      STRB     r0,[r3,#0x13]
        0x000009ee:    6aa0        .j      LDR      r0,[r4,#0x28]
        0x000009f0:    0a00        ..      LSRS     r0,r0,#8
        0x000009f2:    7518        .u      STRB     r0,[r3,#0x14]
        0x000009f4:    2001        .       MOVS     r0,#1
        0x000009f6:    bd70        p.      POP      {r4-r6,pc}
    i.CAN_Receive
    CAN_Receive
        0x000009f8:    b510        ..      PUSH     {r4,lr}
        0x000009fa:    460b        .F      MOV      r3,r1
        0x000009fc:    4611        .F      MOV      r1,r2
        0x000009fe:    6802        .h      LDR      r2,[r0,#0]
        0x00000a00:    0612        ..      LSLS     r2,r2,#24
        0x00000a02:    d505        ..      BPL      0xa10 ; CAN_Receive + 24
        0x00000a04:    6942        Bi      LDR      r2,[r0,#0x14]
        0x00000a06:    0752        R.      LSLS     r2,r2,#29
        0x00000a08:    d502        ..      BPL      0xa10 ; CAN_Receive + 24
        0x00000a0a:    f7fffe75    ..u.    BL       CAN_BasicReceiveMsg ; 0x6f8
        0x00000a0e:    bd10        ..      POP      {r4,pc}
        0x00000a10:    b2dc        ..      UXTB     r4,r3
        0x00000a12:    460b        .F      MOV      r3,r1
        0x00000a14:    2201        ."      MOVS     r2,#1
        0x00000a16:    4621        !F      MOV      r1,r4
        0x00000a18:    f7ffffa8    ....    BL       CAN_ReadMsgObj ; 0x96c
        0x00000a1c:    bd10        ..      POP      {r4,pc}
        0x00000a1e:    0000        ..      MOVS     r0,r0
    i.CAN_SetBaudRate
    CAN_SetBaudRate
        0x00000a20:    b5f8        ..      PUSH     {r3-r7,lr}
        0x00000a22:    460f        .F      MOV      r7,r1
        0x00000a24:    4606        .F      MOV      r6,r0
        0x00000a26:    f7fffedb    ....    BL       CAN_EnterInitMode ; 0x7e0
        0x00000a2a:    f001fc71    ..q.    BL       SystemCoreClockUpdate ; 0x2310
        0x00000a2e:    481e        .H      LDR      r0,[pc,#120] ; [0xaa8] = 0x20000000
        0x00000a30:    2402        .$      MOVS     r4,#2
        0x00000a32:    2501        .%      MOVS     r5,#1
        0x00000a34:    4639        9F      MOV      r1,r7
        0x00000a36:    6800        .h      LDR      r0,[r0,#0]
        0x00000a38:    f7fffb72    ..r.    BL       __aeabi_uidiv ; 0x120
        0x00000a3c:    4607        .F      MOV      r7,r0
        0x00000a3e:    1961        a.      ADDS     r1,r4,r5
        0x00000a40:    1cc9        ..      ADDS     r1,r1,#3
        0x00000a42:    4638        8F      MOV      r0,r7
        0x00000a44:    f7fffb6c    ..l.    BL       __aeabi_uidiv ; 0x120
        0x00000a48:    2900        .)      CMP      r1,#0
        0x00000a4a:    d011        ..      BEQ      0xa70 ; CAN_SetBaudRate + 80
        0x00000a4c:    2c07        .,      CMP      r4,#7
        0x00000a4e:    d201        ..      BCS      0xa54 ; CAN_SetBaudRate + 52
        0x00000a50:    1c6d        m.      ADDS     r5,r5,#1
        0x00000a52:    b2ed        ..      UXTB     r5,r5
        0x00000a54:    1961        a.      ADDS     r1,r4,r5
        0x00000a56:    1cc9        ..      ADDS     r1,r1,#3
        0x00000a58:    4638        8F      MOV      r0,r7
        0x00000a5a:    f7fffb61    ..a.    BL       __aeabi_uidiv ; 0x120
        0x00000a5e:    2900        .)      CMP      r1,#0
        0x00000a60:    d006        ..      BEQ      0xa70 ; CAN_SetBaudRate + 80
        0x00000a62:    2c0f        .,      CMP      r4,#0xf
        0x00000a64:    d202        ..      BCS      0xa6c ; CAN_SetBaudRate + 76
        0x00000a66:    1c64        d.      ADDS     r4,r4,#1
        0x00000a68:    b2e4        ..      UXTB     r4,r4
        0x00000a6a:    e7e8        ..      B        0xa3e ; CAN_SetBaudRate + 30
        0x00000a6c:    2402        .$      MOVS     r4,#2
        0x00000a6e:    2501        .%      MOVS     r5,#1
        0x00000a70:    1961        a.      ADDS     r1,r4,r5
        0x00000a72:    4638        8F      MOV      r0,r7
        0x00000a74:    1cc9        ..      ADDS     r1,r1,#3
        0x00000a76:    f7fffb53    ..S.    BL       __aeabi_uidiv ; 0x120
        0x00000a7a:    0329        ).      LSLS     r1,r5,#12
        0x00000a7c:    0222        ".      LSLS     r2,r4,#8
        0x00000a7e:    1e40        @.      SUBS     r0,r0,#1
        0x00000a80:    4311        .C      ORRS     r1,r1,r2
        0x00000a82:    0682        ..      LSLS     r2,r0,#26
        0x00000a84:    0e92        ..      LSRS     r2,r2,#26
        0x00000a86:    4311        .C      ORRS     r1,r1,r2
        0x00000a88:    68f2        .h      LDR      r2,[r6,#0xc]
        0x00000a8a:    23c0        .#      MOVS     r3,#0xc0
        0x00000a8c:    401a        .@      ANDS     r2,r2,r3
        0x00000a8e:    4311        .C      ORRS     r1,r1,r2
        0x00000a90:    60f1        .`      STR      r1,[r6,#0xc]
        0x00000a92:    0580        ..      LSLS     r0,r0,#22
        0x00000a94:    0f00        ..      LSRS     r0,r0,#28
        0x00000a96:    61b0        .a      STR      r0,[r6,#0x18]
        0x00000a98:    4630        0F      MOV      r0,r6
        0x00000a9a:    f7fffed1    ....    BL       CAN_LeaveInitMode ; 0x840
        0x00000a9e:    4630        0F      MOV      r0,r6
        0x00000aa0:    f7fffea8    ....    BL       CAN_GetCANBitRate ; 0x7f4
        0x00000aa4:    bdf8        ..      POP      {r3-r7,pc}
    $d
        0x00000aa6:    0000        ..      DCW    0
        0x00000aa8:    20000000    ...     DCD    536870912
    $t
    i.CAN_SetRxMsg
    CAN_SetRxMsg
        0x00000aac:    b5ff        ..      PUSH     {r0-r7,lr}
        0x00000aae:    2400        .$      MOVS     r4,#0
        0x00000ab0:    2701        .'      MOVS     r7,#1
        0x00000ab2:    b081        ..      SUB      sp,sp,#4
        0x00000ab4:    460d        .F      MOV      r5,r1
        0x00000ab6:    4616        .F      MOV      r6,r2
        0x00000ab8:    073f        ?.      LSLS     r7,r7,#28
        0x00000aba:    e005        ..      B        0xac8 ; CAN_SetRxMsg + 28
        0x00000abc:    1c64        d.      ADDS     r4,r4,#1
        0x00000abe:    42bc        .B      CMP      r4,r7
        0x00000ac0:    d302        ..      BCC      0xac8 ; CAN_SetRxMsg + 28
        0x00000ac2:    2000        .       MOVS     r0,#0
        0x00000ac4:    b005        ..      ADD      sp,sp,#0x14
        0x00000ac6:    bdf0        ..      POP      {r4-r7,pc}
        0x00000ac8:    2301        .#      MOVS     r3,#1
        0x00000aca:    9300        ..      STR      r3,[sp,#0]
        0x00000acc:    b2f2        ..      UXTB     r2,r6
        0x00000ace:    b2e9        ..      UXTB     r1,r5
        0x00000ad0:    9b04        ..      LDR      r3,[sp,#0x10]
        0x00000ad2:    9801        ..      LDR      r0,[sp,#4]
        0x00000ad4:    f000f804    ....    BL       CAN_SetRxMsgObj ; 0xae0
        0x00000ad8:    2800        .(      CMP      r0,#0
        0x00000ada:    d0ef        ..      BEQ      0xabc ; CAN_SetRxMsg + 16
        0x00000adc:    2001        .       MOVS     r0,#1
        0x00000ade:    e7f1        ..      B        0xac4 ; CAN_SetRxMsg + 24
    i.CAN_SetRxMsgObj
    CAN_SetRxMsgObj
        0x00000ae0:    b5ff        ..      PUSH     {r0-r7,lr}
        0x00000ae2:    b081        ..      SUB      sp,sp,#4
        0x00000ae4:    4607        .F      MOV      r7,r0
        0x00000ae6:    460d        .F      MOV      r5,r1
        0x00000ae8:    4616        .F      MOV      r6,r2
        0x00000aea:    461c        .F      MOV      r4,r3
        0x00000aec:    f000ff66    ..f.    BL       GetFreeIF ; 0x19bc
        0x00000af0:    b2c0        ..      UXTB     r0,r0
        0x00000af2:    2802        .(      CMP      r0,#2
        0x00000af4:    d019        ..      BEQ      0xb2a ; CAN_SetRxMsgObj + 74
        0x00000af6:    2260        `"      MOVS     r2,#0x60
        0x00000af8:    21f3        .!      MOVS     r1,#0xf3
        0x00000afa:    4350        PC      MULS     r0,r2,r0
        0x00000afc:    19c0        ..      ADDS     r0,r0,r7
        0x00000afe:    6241        Ab      STR      r1,[r0,#0x24]
        0x00000b00:    2100        .!      MOVS     r1,#0
        0x00000b02:    2e00        ..      CMP      r6,#0
        0x00000b04:    d014        ..      BEQ      0xb30 ; CAN_SetRxMsgObj + 80
        0x00000b06:    b2a2        ..      UXTH     r2,r4
        0x00000b08:    6302        .c      STR      r2,[r0,#0x30]
        0x00000b0a:    00e2        ..      LSLS     r2,r4,#3
        0x00000b0c:    0cd2        ..      LSRS     r2,r2,#19
        0x00000b0e:    2303        .#      MOVS     r3,#3
        0x00000b10:    039b        ..      LSLS     r3,r3,#14
        0x00000b12:    18d2        ..      ADDS     r2,r2,r3
        0x00000b14:    6342        Bc      STR      r2,[r0,#0x34]
        0x00000b16:    2205        ."      MOVS     r2,#5
        0x00000b18:    0292        ..      LSLS     r2,r2,#10
        0x00000b1a:    6382        .c      STR      r2,[r0,#0x38]
        0x00000b1c:    9b0a        ..      LDR      r3,[sp,#0x28]
        0x00000b1e:    2280        ."      MOVS     r2,#0x80
        0x00000b20:    2b00        .+      CMP      r3,#0
        0x00000b22:    6b83        .k      LDR      r3,[r0,#0x38]
        0x00000b24:    d00a        ..      BEQ      0xb3c ; CAN_SetRxMsgObj + 92
        0x00000b26:    4313        .C      ORRS     r3,r3,r2
        0x00000b28:    e009        ..      B        0xb3e ; CAN_SetRxMsgObj + 94
        0x00000b2a:    2000        .       MOVS     r0,#0
        0x00000b2c:    b005        ..      ADD      sp,sp,#0x14
        0x00000b2e:    bdf0        ..      POP      {r4-r7,pc}
        0x00000b30:    6301        .c      STR      r1,[r0,#0x30]
        0x00000b32:    0562        b.      LSLS     r2,r4,#21
        0x00000b34:    0cd2        ..      LSRS     r2,r2,#19
        0x00000b36:    2301        .#      MOVS     r3,#1
        0x00000b38:    03db        ..      LSLS     r3,r3,#15
        0x00000b3a:    e7ea        ..      B        0xb12 ; CAN_SetRxMsgObj + 50
        0x00000b3c:    4393        .C      BICS     r3,r3,r2
        0x00000b3e:    6383        .c      STR      r3,[r0,#0x38]
        0x00000b40:    63c1        .c      STR      r1,[r0,#0x3c]
        0x00000b42:    6401        .d      STR      r1,[r0,#0x40]
        0x00000b44:    6441        Ad      STR      r1,[r0,#0x44]
        0x00000b46:    6481        .d      STR      r1,[r0,#0x48]
        0x00000b48:    1c6d        m.      ADDS     r5,r5,#1
        0x00000b4a:    6205        .b      STR      r5,[r0,#0x20]
        0x00000b4c:    2001        .       MOVS     r0,#1
        0x00000b4e:    e7ed        ..      B        0xb2c ; CAN_SetRxMsgObj + 76
    i.CAN_data
    CAN_data
        0x00000b50:    b5f8        ..      PUSH     {r3-r7,lr}
        0x00000b52:    4d3c        <M      LDR      r5,[pc,#240] ; [0xc44] = 0x20000030
        0x00000b54:    4c3c        <L      LDR      r4,[pc,#240] ; [0xc48] = 0x200007cc
        0x00000b56:    7968        hy      LDRB     r0,[r5,#5]
        0x00000b58:    2832        2(      CMP      r0,#0x32
        0x00000b5a:    d30f        ..      BCC      0xb7c ; CAN_data + 44
        0x00000b5c:    2100        .!      MOVS     r1,#0
        0x00000b5e:    460a        .F      MOV      r2,r1
        0x00000b60:    2000        .       MOVS     r0,#0
        0x00000b62:    00cb        ..      LSLS     r3,r1,#3
        0x00000b64:    191b        ..      ADDS     r3,r3,r4
        0x00000b66:    541a        .T      STRB     r2,[r3,r0]
        0x00000b68:    1c40        @.      ADDS     r0,r0,#1
        0x00000b6a:    b2c0        ..      UXTB     r0,r0
        0x00000b6c:    2808        .(      CMP      r0,#8
        0x00000b6e:    d3fa        ..      BCC      0xb66 ; CAN_data + 22
        0x00000b70:    1c49        I.      ADDS     r1,r1,#1
        0x00000b72:    b2c9        ..      UXTB     r1,r1
        0x00000b74:    290a        .)      CMP      r1,#0xa
        0x00000b76:    d3f3        ..      BCC      0xb60 ; CAN_data + 16
        0x00000b78:    2028        (       MOVS     r0,#0x28
        0x00000b7a:    7620         v      STRB     r0,[r4,#0x18]
        0x00000b7c:    4832        2H      LDR      r0,[pc,#200] ; [0xc48] = 0x200007cc
        0x00000b7e:    220a        ."      MOVS     r2,#0xa
        0x00000b80:    7b01        .{      LDRB     r1,[r0,#0xc]
        0x00000b82:    7ac0        .z      LDRB     r0,[r0,#0xb]
        0x00000b84:    0209        ..      LSLS     r1,r1,#8
        0x00000b86:    4301        .C      ORRS     r1,r1,r0
        0x00000b88:    4830        0H      LDR      r0,[pc,#192] ; [0xc4c] = 0x20000490
        0x00000b8a:    66e9        .f      STR      r1,[r5,#0x6c]
        0x00000b8c:    f000ff23    ..#.    BL       Get_Data ; 0x19d6
        0x00000b90:    08c0        ..      LSRS     r0,r0,#3
        0x00000b92:    492f        /I      LDR      r1,[pc,#188] ; [0xc50] = 0xbb8
        0x00000b94:    66e8        .f      STR      r0,[r5,#0x6c]
        0x00000b96:    4288        .B      CMP      r0,r1
        0x00000b98:    d900        ..      BLS      0xb9c ; CAN_data + 76
        0x00000b9a:    66e9        .f      STR      r1,[r5,#0x6c]
        0x00000b9c:    4e29        )N      LDR      r6,[pc,#164] ; [0xc44] = 0x20000030
        0x00000b9e:    7ce0        .|      LDRB     r0,[r4,#0x13]
        0x00000ba0:    3640        @6      ADDS     r6,r6,#0x40
        0x00000ba2:    4637        7F      MOV      r7,r6
        0x00000ba4:    71b0        .q      STRB     r0,[r6,#6]
        0x00000ba6:    3740        @7      ADDS     r7,r7,#0x40
        0x00000ba8:    68b9        .h      LDR      r1,[r7,#8]
        0x00000baa:    2814        .(      CMP      r0,#0x14
        0x00000bac:    d202        ..      BCS      0xbb4 ; CAN_data + 100
        0x00000bae:    2201        ."      MOVS     r2,#1
        0x00000bb0:    4311        .C      ORRS     r1,r1,r2
        0x00000bb2:    e001        ..      B        0xbb8 ; CAN_data + 104
        0x00000bb4:    0849        I.      LSRS     r1,r1,#1
        0x00000bb6:    0049        I.      LSLS     r1,r1,#1
        0x00000bb8:    60b9        .`      STR      r1,[r7,#8]
        0x00000bba:    28fa        .(      CMP      r0,#0xfa
        0x00000bbc:    d901        ..      BLS      0xbc2 ; CAN_data + 114
        0x00000bbe:    20fa        .       MOVS     r0,#0xfa
        0x00000bc0:    71b0        .q      STRB     r0,[r6,#6]
        0x00000bc2:    b2c1        ..      UXTB     r1,r0
        0x00000bc4:    4821        !H      LDR      r0,[pc,#132] ; [0xc4c] = 0x20000490
        0x00000bc6:    220a        ."      MOVS     r2,#0xa
        0x00000bc8:    3050        P0      ADDS     r0,r0,#0x50
        0x00000bca:    f000ff04    ....    BL       Get_Data ; 0x19d6
        0x00000bce:    b2c0        ..      UXTB     r0,r0
        0x00000bd0:    2105        .!      MOVS     r1,#5
        0x00000bd2:    f7fffaa5    ....    BL       __aeabi_uidiv ; 0x120
        0x00000bd6:    0040        @.      LSLS     r0,r0,#1
        0x00000bd8:    71b0        .q      STRB     r0,[r6,#6]
        0x00000bda:    481c        .H      LDR      r0,[pc,#112] ; [0xc4c] = 0x20000490
        0x00000bdc:    7e21        !~      LDRB     r1,[r4,#0x18]
        0x00000bde:    70a9        .p      STRB     r1,[r5,#2]
        0x00000be0:    220a        ."      MOVS     r2,#0xa
        0x00000be2:    3028        (0      ADDS     r0,r0,#0x28
        0x00000be4:    f000fef7    ....    BL       Get_Data ; 0x19d6
        0x00000be8:    b2c0        ..      UXTB     r0,r0
        0x00000bea:    70a8        .p      STRB     r0,[r5,#2]
        0x00000bec:    2828        ((      CMP      r0,#0x28
        0x00000bee:    d901        ..      BLS      0xbf4 ; CAN_data + 164
        0x00000bf0:    3828        (8      SUBS     r0,r0,#0x28
        0x00000bf2:    e000        ..      B        0xbf6 ; CAN_data + 166
        0x00000bf4:    2000        .       MOVS     r0,#0
        0x00000bf6:    70a8        .p      STRB     r0,[r5,#2]
        0x00000bf8:    71f0        .q      STRB     r0,[r6,#7]
        0x00000bfa:    4813        .H      LDR      r0,[pc,#76] ; [0xc48] = 0x200007cc
        0x00000bfc:    3020         0      ADDS     r0,r0,#0x20
        0x00000bfe:    7901        .y      LDRB     r1,[r0,#4]
        0x00000c00:    094a        J.      LSRS     r2,r1,#5
        0x00000c02:    78c1        .x      LDRB     r1,[r0,#3]
        0x00000c04:    0212        ..      LSLS     r2,r2,#8
        0x00000c06:    4311        .C      ORRS     r1,r1,r2
        0x00000c08:    7882        .x      LDRB     r2,[r0,#2]
        0x00000c0a:    0209        ..      LSLS     r1,r1,#8
        0x00000c0c:    430a        .C      ORRS     r2,r2,r1
        0x00000c0e:    663a        :f      STR      r2,[r7,#0x60]
        0x00000c10:    7ac2        .z      LDRB     r2,[r0,#0xb]
        0x00000c12:    7a81        .z      LDRB     r1,[r0,#0xa]
        0x00000c14:    0212        ..      LSLS     r2,r2,#8
        0x00000c16:    4311        .C      ORRS     r1,r1,r2
        0x00000c18:    7a42        Bz      LDRB     r2,[r0,#9]
        0x00000c1a:    0209        ..      LSLS     r1,r1,#8
        0x00000c1c:    430a        .C      ORRS     r2,r2,r1
        0x00000c1e:    7a01        .z      LDRB     r1,[r0,#8]
        0x00000c20:    0212        ..      LSLS     r2,r2,#8
        0x00000c22:    4311        .C      ORRS     r1,r1,r2
        0x00000c24:    0849        I.      LSRS     r1,r1,#1
        0x00000c26:    6729        )g      STR      r1,[r5,#0x70]
        0x00000c28:    7c00        .|      LDRB     r0,[r0,#0x10]
        0x00000c2a:    0780        ..      LSLS     r0,r0,#30
        0x00000c2c:    0f80        ..      LSRS     r0,r0,#30
        0x00000c2e:    2801        .(      CMP      r0,#1
        0x00000c30:    7c28        (|      LDRB     r0,[r5,#0x10]
        0x00000c32:    d003        ..      BEQ      0xc3c ; CAN_data + 236
        0x00000c34:    21f7        .!      MOVS     r1,#0xf7
        0x00000c36:    4008        .@      ANDS     r0,r0,r1
        0x00000c38:    7428        (t      STRB     r0,[r5,#0x10]
        0x00000c3a:    bdf8        ..      POP      {r3-r7,pc}
        0x00000c3c:    2108        .!      MOVS     r1,#8
        0x00000c3e:    4308        .C      ORRS     r0,r0,r1
        0x00000c40:    e7fa        ..      B        0xc38 ; CAN_data + 232
    $d
        0x00000c42:    0000        ..      DCW    0
        0x00000c44:    20000030    0..     DCD    536870960
        0x00000c48:    200007cc    ...     DCD    536872908
        0x00000c4c:    20000490    ...     DCD    536872080
        0x00000c50:    00000bb8    ....    DCD    3000
    $t
    i.CLK_EnableModuleClock
    CLK_EnableModuleClock
        0x00000c54:    b51f        ..      PUSH     {r0-r4,lr}
        0x00000c56:    4c0a        .L      LDR      r4,[pc,#40] ; [0xc80] = 0x4138
        0x00000c58:    3410        .4      ADDS     r4,r4,#0x10
        0x00000c5a:    cc1e        ..      LDM      r4,{r1-r4}
        0x00000c5c:    9403        ..      STR      r4,[sp,#0xc]
        0x00000c5e:    466c        lF      MOV      r4,sp
        0x00000c60:    c40e        ..      STM      r4!,{r1-r3}
        0x00000c62:    0f81        ..      LSRS     r1,r0,#30
        0x00000c64:    008a        ..      LSLS     r2,r1,#2
        0x00000c66:    4669        iF      MOV      r1,sp
        0x00000c68:    588a        .X      LDR      r2,[r1,r2]
        0x00000c6a:    4906        .I      LDR      r1,[pc,#24] ; [0xc84] = 0x50000200
        0x00000c6c:    1851        Q.      ADDS     r1,r2,r1
        0x00000c6e:    684a        Jh      LDR      r2,[r1,#4]
        0x00000c70:    06c3        ..      LSLS     r3,r0,#27
        0x00000c72:    0edb        ..      LSRS     r3,r3,#27
        0x00000c74:    2001        .       MOVS     r0,#1
        0x00000c76:    4098        .@      LSLS     r0,r0,r3
        0x00000c78:    4302        .C      ORRS     r2,r2,r0
        0x00000c7a:    604a        J`      STR      r2,[r1,#4]
        0x00000c7c:    bd1f        ..      POP      {r0-r4,pc}
    $d
        0x00000c7e:    0000        ..      DCW    0
        0x00000c80:    00004138    8A..    DCD    16696
        0x00000c84:    50000200    ...P    DCD    1342177792
    $t
    i.CLK_EnablePLL
    CLK_EnablePLL
        0x00000c88:    b5f0        ..      PUSH     {r4-r7,lr}
        0x00000c8a:    0007        ..      MOVS     r7,r0
        0x00000c8c:    460c        .F      MOV      r4,r1
        0x00000c8e:    4856        VH      LDR      r0,[pc,#344] ; [0xde8] = 0x50000200
        0x00000c90:    b085        ..      SUB      sp,sp,#0x14
        0x00000c92:    4954        TI      LDR      r1,[pc,#336] ; [0xde4] = 0x10000
        0x00000c94:    6201        .b      STR      r1,[r0,#0x20]
        0x00000c96:    4e55        UN      LDR      r6,[pc,#340] ; [0xdec] = 0xb71b00
        0x00000c98:    6801        .h      LDR      r1,[r0,#0]
        0x00000c9a:    d013        ..      BEQ      0xcc4 ; CLK_EnablePLL + 60
        0x00000c9c:    2204        ."      MOVS     r2,#4
        0x00000c9e:    4311        .C      ORRS     r1,r1,r2
        0x00000ca0:    6001        .`      STR      r1,[r0,#0]
        0x00000ca2:    2010        .       MOVS     r0,#0x10
        0x00000ca4:    f000f982    ....    BL       CLK_WaitClockReady ; 0xfac
        0x00000ca8:    2001        .       MOVS     r0,#1
        0x00000caa:    04c0        ..      LSLS     r0,r0,#19
        0x00000cac:    9002        ..      STR      r0,[sp,#8]
        0x00000cae:    4850        PH      LDR      r0,[pc,#320] ; [0xdf0] = 0x1518000
        0x00000cb0:    2504        .%      MOVS     r5,#4
        0x00000cb2:    9003        ..      STR      r0,[sp,#0xc]
        0x00000cb4:    484f        OH      LDR      r0,[pc,#316] ; [0xdf4] = 0xfa0a1eff
        0x00000cb6:    4950        PI      LDR      r1,[pc,#320] ; [0xdf8] = 0x5f5e0ff
        0x00000cb8:    1820         .      ADDS     r0,r4,r0
        0x00000cba:    4288        .B      CMP      r0,r1
        0x00000cbc:    d80d        ..      BHI      0xcda ; CLK_EnablePLL + 82
        0x00000cbe:    2000        .       MOVS     r0,#0
        0x00000cc0:    9004        ..      STR      r0,[sp,#0x10]
        0x00000cc2:    e01c        ..      B        0xcfe ; CLK_EnablePLL + 118
        0x00000cc4:    2201        ."      MOVS     r2,#1
        0x00000cc6:    4311        .C      ORRS     r1,r1,r2
        0x00000cc8:    6001        .`      STR      r1,[r0,#0]
        0x00000cca:    4610        .F      MOV      r0,r2
        0x00000ccc:    f000f96e    ..n.    BL       CLK_WaitClockReady ; 0xfac
        0x00000cd0:    2000        .       MOVS     r0,#0
        0x00000cd2:    2502        .%      MOVS     r5,#2
        0x00000cd4:    9603        ..      STR      r6,[sp,#0xc]
        0x00000cd6:    9002        ..      STR      r0,[sp,#8]
        0x00000cd8:    e7ec        ..      B        0xcb4 ; CLK_EnablePLL + 44
        0x00000cda:    4848        HH      LDR      r0,[pc,#288] ; [0xdfc] = 0xfd050f7f
        0x00000cdc:    4948        HI      LDR      r1,[pc,#288] ; [0xe00] = 0x2faf07f
        0x00000cde:    1820         .      ADDS     r0,r4,r0
        0x00000ce0:    4288        .B      CMP      r0,r1
        0x00000ce2:    d803        ..      BHI      0xcec ; CLK_EnablePLL + 100
        0x00000ce4:    2001        .       MOVS     r0,#1
        0x00000ce6:    0064        d.      LSLS     r4,r4,#1
        0x00000ce8:    9004        ..      STR      r0,[sp,#0x10]
        0x00000cea:    e008        ..      B        0xcfe ; CLK_EnablePLL + 118
        0x00000cec:    4845        EH      LDR      r0,[pc,#276] ; [0xe04] = 0xfe8287c0
        0x00000cee:    4945        EI      LDR      r1,[pc,#276] ; [0xe04] = 0xfe8287c0
        0x00000cf0:    1820         .      ADDS     r0,r4,r0
        0x00000cf2:    4249        IB      RSBS     r1,r1,#0
        0x00000cf4:    4288        .B      CMP      r0,r1
        0x00000cf6:    d849        I.      BHI      0xd8c ; CLK_EnablePLL + 260
        0x00000cf8:    2003        .       MOVS     r0,#3
        0x00000cfa:    00a4        ..      LSLS     r4,r4,#2
        0x00000cfc:    9004        ..      STR      r0,[sp,#0x10]
        0x00000cfe:    2600        .&      MOVS     r6,#0
        0x00000d00:    43f6        .C      MVNS     r6,r6
        0x00000d02:    2000        .       MOVS     r0,#0
        0x00000d04:    9000        ..      STR      r0,[sp,#0]
        0x00000d06:    9001        ..      STR      r0,[sp,#4]
        0x00000d08:    e021        !.      B        0xd4e ; CLK_EnablePLL + 198
        0x00000d0a:    4629        )F      MOV      r1,r5
        0x00000d0c:    9803        ..      LDR      r0,[sp,#0xc]
        0x00000d0e:    f7fffa07    ....    BL       __aeabi_uidiv ; 0x120
        0x00000d12:    493d        =I      LDR      r1,[pc,#244] ; [0xe08] = 0xffe795ff
        0x00000d14:    4a3d        =J      LDR      r2,[pc,#244] ; [0xe0c] = 0xcc77bf
        0x00000d16:    1841        A.      ADDS     r1,r0,r1
        0x00000d18:    4291        .B      CMP      r1,r2
        0x00000d1a:    d217        ..      BCS      0xd4c ; CLK_EnablePLL + 196
        0x00000d1c:    4f36        6O      LDR      r7,[pc,#216] ; [0xdf8] = 0x5f5e0ff
        0x00000d1e:    2202        ."      MOVS     r2,#2
        0x00000d20:    1c7f        ..      ADDS     r7,r7,#1
        0x00000d22:    4b34        4K      LDR      r3,[pc,#208] ; [0xdf4] = 0xfa0a1eff
        0x00000d24:    4601        .F      MOV      r1,r0
        0x00000d26:    4351        QC      MULS     r1,r2,r1
        0x00000d28:    1c5b        [.      ADDS     r3,r3,#1
        0x00000d2a:    18cb        ..      ADDS     r3,r1,r3
        0x00000d2c:    42bb        .B      CMP      r3,r7
        0x00000d2e:    d809        ..      BHI      0xd44 ; CLK_EnablePLL + 188
        0x00000d30:    1b0b        ..      SUBS     r3,r1,r4
        0x00000d32:    42a1        .B      CMP      r1,r4
        0x00000d34:    d800        ..      BHI      0xd38 ; CLK_EnablePLL + 176
        0x00000d36:    1a63        c.      SUBS     r3,r4,r1
        0x00000d38:    42b3        .B      CMP      r3,r6
        0x00000d3a:    d203        ..      BCS      0xd44 ; CLK_EnablePLL + 188
        0x00000d3c:    001e        ..      MOVS     r6,r3
        0x00000d3e:    9500        ..      STR      r5,[sp,#0]
        0x00000d40:    9201        ..      STR      r2,[sp,#4]
        0x00000d42:    d003        ..      BEQ      0xd4c ; CLK_EnablePLL + 196
        0x00000d44:    4932        2I      LDR      r1,[pc,#200] ; [0xe10] = 0x201
        0x00000d46:    1c52        R.      ADDS     r2,r2,#1
        0x00000d48:    428a        .B      CMP      r2,r1
        0x00000d4a:    d9ea        ..      BLS      0xd22 ; CLK_EnablePLL + 154
        0x00000d4c:    1c6d        m.      ADDS     r5,r5,#1
        0x00000d4e:    2d21        !-      CMP      r5,#0x21
        0x00000d50:    d9db        ..      BLS      0xd0a ; CLK_EnablePLL + 130
        0x00000d52:    9804        ..      LDR      r0,[sp,#0x10]
        0x00000d54:    9902        ..      LDR      r1,[sp,#8]
        0x00000d56:    0380        ..      LSLS     r0,r0,#14
        0x00000d58:    4308        .C      ORRS     r0,r0,r1
        0x00000d5a:    9900        ..      LDR      r1,[sp,#0]
        0x00000d5c:    2201        ."      MOVS     r2,#1
        0x00000d5e:    0249        I.      LSLS     r1,r1,#9
        0x00000d60:    0292        ..      LSLS     r2,r2,#10
        0x00000d62:    1a89        ..      SUBS     r1,r1,r2
        0x00000d64:    4308        .C      ORRS     r0,r0,r1
        0x00000d66:    9901        ..      LDR      r1,[sp,#4]
        0x00000d68:    1e89        ..      SUBS     r1,r1,#2
        0x00000d6a:    4308        .C      ORRS     r0,r0,r1
        0x00000d6c:    491e        .I      LDR      r1,[pc,#120] ; [0xde8] = 0x50000200
        0x00000d6e:    6208        .b      STR      r0,[r1,#0x20]
        0x00000d70:    2004        .       MOVS     r0,#4
        0x00000d72:    f000f91b    ....    BL       CLK_WaitClockReady ; 0xfac
        0x00000d76:    9904        ..      LDR      r1,[sp,#0x10]
        0x00000d78:    9800        ..      LDR      r0,[sp,#0]
        0x00000d7a:    1c49        I.      ADDS     r1,r1,#1
        0x00000d7c:    4341        AC      MULS     r1,r0,r1
        0x00000d7e:    9803        ..      LDR      r0,[sp,#0xc]
        0x00000d80:    f7fff9ce    ....    BL       __aeabi_uidiv ; 0x120
        0x00000d84:    9901        ..      LDR      r1,[sp,#4]
        0x00000d86:    4348        HC      MULS     r0,r1,r0
        0x00000d88:    b005        ..      ADD      sp,sp,#0x14
        0x00000d8a:    bdf0        ..      POP      {r4-r7,pc}
        0x00000d8c:    2f00        ./      CMP      r7,#0
        0x00000d8e:    d00f        ..      BEQ      0xdb0 ; CLK_EnablePLL + 296
        0x00000d90:    4920         I      LDR      r1,[pc,#128] ; [0xe14] = 0xd66f
        0x00000d92:    4815        .H      LDR      r0,[pc,#84] ; [0xde8] = 0x50000200
        0x00000d94:    6201        .b      STR      r1,[r0,#0x20]
        0x00000d96:    2004        .       MOVS     r0,#4
        0x00000d98:    f000f908    ....    BL       CLK_WaitClockReady ; 0xfac
        0x00000d9c:    a01e        ..      ADR      r0,{pc}+0x7c ; 0xe18
        0x00000d9e:    6800        .h      LDR      r0,[r0,#0]
        0x00000da0:    9000        ..      STR      r0,[sp,#0]
        0x00000da2:    4811        .H      LDR      r0,[pc,#68] ; [0xde8] = 0x50000200
        0x00000da4:    6a01        .j      LDR      r1,[r0,#0x20]
        0x00000da6:    1300        ..      ASRS     r0,r0,#12
        0x00000da8:    4201        .B      TST      r1,r0
        0x00000daa:    d003        ..      BEQ      0xdb4 ; CLK_EnablePLL + 300
        0x00000dac:    2000        .       MOVS     r0,#0
        0x00000dae:    e7eb        ..      B        0xd88 ; CLK_EnablePLL + 256
        0x00000db0:    491a        .I      LDR      r1,[pc,#104] ; [0xe1c] = 0xc22e
        0x00000db2:    e7ee        ..      B        0xd92 ; CLK_EnablePLL + 266
        0x00000db4:    0308        ..      LSLS     r0,r1,#12
        0x00000db6:    d500        ..      BPL      0xdba ; CLK_EnablePLL + 306
        0x00000db8:    4e0d        .N      LDR      r6,[pc,#52] ; [0xdf0] = 0x1518000
        0x00000dba:    0388        ..      LSLS     r0,r1,#14
        0x00000dbc:    d501        ..      BPL      0xdc2 ; CLK_EnablePLL + 314
        0x00000dbe:    4630        0F      MOV      r0,r6
        0x00000dc0:    e7e2        ..      B        0xd88 ; CLK_EnablePLL + 256
        0x00000dc2:    0408        ..      LSLS     r0,r1,#16
        0x00000dc4:    0f80        ..      LSRS     r0,r0,#30
        0x00000dc6:    466a        jF      MOV      r2,sp
        0x00000dc8:    5c10        .\      LDRB     r0,[r2,r0]
        0x00000dca:    05ca        ..      LSLS     r2,r1,#23
        0x00000dcc:    0489        ..      LSLS     r1,r1,#18
        0x00000dce:    0ec9        ..      LSRS     r1,r1,#27
        0x00000dd0:    1c89        ..      ADDS     r1,r1,#2
        0x00000dd2:    0dd2        ..      LSRS     r2,r2,#23
        0x00000dd4:    4341        AC      MULS     r1,r0,r1
        0x00000dd6:    1c92        ..      ADDS     r2,r2,#2
        0x00000dd8:    08b0        ..      LSRS     r0,r6,#2
        0x00000dda:    4350        PC      MULS     r0,r2,r0
        0x00000ddc:    f7fff9a0    ....    BL       __aeabi_uidiv ; 0x120
        0x00000de0:    0080        ..      LSLS     r0,r0,#2
        0x00000de2:    e7d1        ..      B        0xd88 ; CLK_EnablePLL + 256
    $d
        0x00000de4:    00010000    ....    DCD    65536
        0x00000de8:    50000200    ...P    DCD    1342177792
        0x00000dec:    00b71b00    ....    DCD    12000000
        0x00000df0:    01518000    ..Q.    DCD    22118400
        0x00000df4:    fa0a1eff    ....    DCD    4194967295
        0x00000df8:    05f5e0ff    ....    DCD    99999999
        0x00000dfc:    fd050f7f    ....    DCD    4244967295
        0x00000e00:    02faf07f    ....    DCD    49999999
        0x00000e04:    fe8287c0    ....    DCD    4269967296
        0x00000e08:    ffe795ff    ....    DCD    4293367295
        0x00000e0c:    00cc77bf    .w..    DCD    13399999
        0x00000e10:    00000201    ....    DCD    513
        0x00000e14:    0000d66f    o...    DCD    54895
        0x00000e18:    04020201    ....    DCD    67240449
        0x00000e1c:    0000c22e    ....    DCD    49710
    $t
    i.CLK_EnableXtalRC
    CLK_EnableXtalRC
        0x00000e20:    4902        .I      LDR      r1,[pc,#8] ; [0xe2c] = 0x50000200
        0x00000e22:    680a        .h      LDR      r2,[r1,#0]
        0x00000e24:    4302        .C      ORRS     r2,r2,r0
        0x00000e26:    600a        .`      STR      r2,[r1,#0]
        0x00000e28:    4770        pG      BX       lr
    $d
        0x00000e2a:    0000        ..      DCW    0
        0x00000e2c:    50000200    ...P    DCD    1342177792
    $t
    i.CLK_GetPLLClockFreq
    CLK_GetPLLClockFreq
        0x00000e30:    b508        ..      PUSH     {r3,lr}
        0x00000e32:    a011        ..      ADR      r0,{pc}+0x46 ; 0xe78
        0x00000e34:    6800        .h      LDR      r0,[r0,#0]
        0x00000e36:    9000        ..      STR      r0,[sp,#0]
        0x00000e38:    4810        .H      LDR      r0,[pc,#64] ; [0xe7c] = 0x50000200
        0x00000e3a:    6a01        .j      LDR      r1,[r0,#0x20]
        0x00000e3c:    1300        ..      ASRS     r0,r0,#12
        0x00000e3e:    4201        .B      TST      r1,r0
        0x00000e40:    d001        ..      BEQ      0xe46 ; CLK_GetPLLClockFreq + 22
        0x00000e42:    2000        .       MOVS     r0,#0
        0x00000e44:    bd08        ..      POP      {r3,pc}
        0x00000e46:    0308        ..      LSLS     r0,r1,#12
        0x00000e48:    d501        ..      BPL      0xe4e ; CLK_GetPLLClockFreq + 30
        0x00000e4a:    480d        .H      LDR      r0,[pc,#52] ; [0xe80] = 0x1518000
        0x00000e4c:    e000        ..      B        0xe50 ; CLK_GetPLLClockFreq + 32
        0x00000e4e:    480d        .H      LDR      r0,[pc,#52] ; [0xe84] = 0xb71b00
        0x00000e50:    038a        ..      LSLS     r2,r1,#14
        0x00000e52:    d4f7        ..      BMI      0xe44 ; CLK_GetPLLClockFreq + 20
        0x00000e54:    040a        ..      LSLS     r2,r1,#16
        0x00000e56:    0f92        ..      LSRS     r2,r2,#30
        0x00000e58:    466b        kF      MOV      r3,sp
        0x00000e5a:    5c9b        .\      LDRB     r3,[r3,r2]
        0x00000e5c:    05ca        ..      LSLS     r2,r1,#23
        0x00000e5e:    0489        ..      LSLS     r1,r1,#18
        0x00000e60:    0dd2        ..      LSRS     r2,r2,#23
        0x00000e62:    0ec9        ..      LSRS     r1,r1,#27
        0x00000e64:    1c92        ..      ADDS     r2,r2,#2
        0x00000e66:    1c89        ..      ADDS     r1,r1,#2
        0x00000e68:    0880        ..      LSRS     r0,r0,#2
        0x00000e6a:    4359        YC      MULS     r1,r3,r1
        0x00000e6c:    4350        PC      MULS     r0,r2,r0
        0x00000e6e:    f7fff957    ..W.    BL       __aeabi_uidiv ; 0x120
        0x00000e72:    0080        ..      LSLS     r0,r0,#2
        0x00000e74:    bd08        ..      POP      {r3,pc}
    $d
        0x00000e76:    0000        ..      DCW    0
        0x00000e78:    04020201    ....    DCD    67240449
        0x00000e7c:    50000200    ...P    DCD    1342177792
        0x00000e80:    01518000    ..Q.    DCD    22118400
        0x00000e84:    00b71b00    ....    DCD    12000000
    $t
    i.CLK_SetCoreClock
    CLK_SetCoreClock
        0x00000e88:    b5f8        ..      PUSH     {r3-r7,lr}
        0x00000e8a:    4d1c        .M      LDR      r5,[pc,#112] ; [0xefc] = 0x50000200
        0x00000e8c:    4604        .F      MOV      r4,r0
        0x00000e8e:    68ee        .h      LDR      r6,[r5,#0xc]
        0x00000e90:    2010        .       MOVS     r0,#0x10
        0x00000e92:    4006        .@      ANDS     r6,r6,r0
        0x00000e94:    481a        .H      LDR      r0,[pc,#104] ; [0xf00] = 0x2faf080
        0x00000e96:    4284        .B      CMP      r4,r0
        0x00000e98:    d802        ..      BHI      0xea0 ; CLK_SetCoreClock + 24
        0x00000e9a:    1040        @.      ASRS     r0,r0,#1
        0x00000e9c:    4284        .B      CMP      r4,r0
        0x00000e9e:    d200        ..      BCS      0xea2 ; CLK_SetCoreClock + 26
        0x00000ea0:    4604        .F      MOV      r4,r0
        0x00000ea2:    6828        (h      LDR      r0,[r5,#0]
        0x00000ea4:    2704        .'      MOVS     r7,#4
        0x00000ea6:    4338        8C      ORRS     r0,r0,r7
        0x00000ea8:    6028        (`      STR      r0,[r5,#0]
        0x00000eaa:    2010        .       MOVS     r0,#0x10
        0x00000eac:    f000f87e    ..~.    BL       CLK_WaitClockReady ; 0xfac
        0x00000eb0:    6928        (i      LDR      r0,[r5,#0x10]
        0x00000eb2:    2107        .!      MOVS     r1,#7
        0x00000eb4:    4308        .C      ORRS     r0,r0,r1
        0x00000eb6:    6128        (a      STR      r0,[r5,#0x10]
        0x00000eb8:    69a8        .i      LDR      r0,[r5,#0x18]
        0x00000eba:    0900        ..      LSRS     r0,r0,#4
        0x00000ebc:    0100        ..      LSLS     r0,r0,#4
        0x00000ebe:    61a8        .a      STR      r0,[r5,#0x18]
        0x00000ec0:    6828        (h      LDR      r0,[r5,#0]
        0x00000ec2:    07c0        ..      LSLS     r0,r0,#31
        0x00000ec4:    d005        ..      BEQ      0xed2 ; CLK_SetCoreClock + 74
        0x00000ec6:    0061        a.      LSLS     r1,r4,#1
        0x00000ec8:    2000        .       MOVS     r0,#0
        0x00000eca:    f7fffedd    ....    BL       CLK_EnablePLL ; 0xc88
        0x00000ece:    4604        .F      MOV      r4,r0
        0x00000ed0:    e008        ..      B        0xee4 ; CLK_SetCoreClock + 92
        0x00000ed2:    2001        .       MOVS     r0,#1
        0x00000ed4:    0061        a.      LSLS     r1,r4,#1
        0x00000ed6:    04c0        ..      LSLS     r0,r0,#19
        0x00000ed8:    f7fffed6    ....    BL       CLK_EnablePLL ; 0xc88
        0x00000edc:    68ee        .h      LDR      r6,[r5,#0xc]
        0x00000ede:    4604        .F      MOV      r4,r0
        0x00000ee0:    2010        .       MOVS     r0,#0x10
        0x00000ee2:    4006        .@      ANDS     r6,r6,r0
        0x00000ee4:    2101        .!      MOVS     r1,#1
        0x00000ee6:    2002        .       MOVS     r0,#2
        0x00000ee8:    f000f80c    ....    BL       CLK_SetHCLK ; 0xf04
        0x00000eec:    2e00        ..      CMP      r6,#0
        0x00000eee:    d102        ..      BNE      0xef6 ; CLK_SetCoreClock + 110
        0x00000ef0:    6828        (h      LDR      r0,[r5,#0]
        0x00000ef2:    43b8        .C      BICS     r0,r0,r7
        0x00000ef4:    6028        (`      STR      r0,[r5,#0]
        0x00000ef6:    0860        `.      LSRS     r0,r4,#1
        0x00000ef8:    bdf8        ..      POP      {r3-r7,pc}
    $d
        0x00000efa:    0000        ..      DCW    0
        0x00000efc:    50000200    ...P    DCD    1342177792
        0x00000f00:    02faf080    ....    DCD    50000000
    $t
    i.CLK_SetHCLK
    CLK_SetHCLK
        0x00000f04:    b570        p.      PUSH     {r4-r6,lr}
        0x00000f06:    4c10        .L      LDR      r4,[pc,#64] ; [0xf48] = 0x50000200
        0x00000f08:    68e5        .h      LDR      r5,[r4,#0xc]
        0x00000f0a:    2610        .&      MOVS     r6,#0x10
        0x00000f0c:    6822        "h      LDR      r2,[r4,#0]
        0x00000f0e:    4035        5@      ANDS     r5,r5,r6
        0x00000f10:    2304        .#      MOVS     r3,#4
        0x00000f12:    431a        .C      ORRS     r2,r2,r3
        0x00000f14:    6022        "`      STR      r2,[r4,#0]
        0x00000f16:    68e2        .h      LDR      r2,[r4,#0xc]
        0x00000f18:    06d2        ..      LSLS     r2,r2,#27
        0x00000f1a:    d5fc        ..      BPL      0xf16 ; CLK_SetHCLK + 18
        0x00000f1c:    6922        "i      LDR      r2,[r4,#0x10]
        0x00000f1e:    2307        .#      MOVS     r3,#7
        0x00000f20:    431a        .C      ORRS     r2,r2,r3
        0x00000f22:    6122        "a      STR      r2,[r4,#0x10]
        0x00000f24:    69a2        .i      LDR      r2,[r4,#0x18]
        0x00000f26:    0912        ..      LSRS     r2,r2,#4
        0x00000f28:    0112        ..      LSLS     r2,r2,#4
        0x00000f2a:    430a        .C      ORRS     r2,r2,r1
        0x00000f2c:    61a2        .a      STR      r2,[r4,#0x18]
        0x00000f2e:    6921        !i      LDR      r1,[r4,#0x10]
        0x00000f30:    4399        .C      BICS     r1,r1,r3
        0x00000f32:    4301        .C      ORRS     r1,r1,r0
        0x00000f34:    6121        !a      STR      r1,[r4,#0x10]
        0x00000f36:    f001f9eb    ....    BL       SystemCoreClockUpdate ; 0x2310
        0x00000f3a:    2d00        .-      CMP      r5,#0
        0x00000f3c:    d102        ..      BNE      0xf44 ; CLK_SetHCLK + 64
        0x00000f3e:    6820         h      LDR      r0,[r4,#0]
        0x00000f40:    43b0        .C      BICS     r0,r0,r6
        0x00000f42:    6020         `      STR      r0,[r4,#0]
        0x00000f44:    bd70        p.      POP      {r4-r6,pc}
    $d
        0x00000f46:    0000        ..      DCW    0
        0x00000f48:    50000200    ...P    DCD    1342177792
    $t
    i.CLK_SetModuleClock
    CLK_SetModuleClock
        0x00000f4c:    b57f        ..      PUSH     {r0-r6,lr}
        0x00000f4e:    4e15        .N      LDR      r6,[pc,#84] ; [0xfa4] = 0x4138
        0x00000f50:    ce78        x.      LDM      r6,{r3-r6}
        0x00000f52:    9603        ..      STR      r6,[sp,#0xc]
        0x00000f54:    466e        nF      MOV      r6,sp
        0x00000f56:    c638        8.      STM      r6!,{r3-r5}
        0x00000f58:    0a84        ..      LSRS     r4,r0,#10
        0x00000f5a:    0623        #.      LSLS     r3,r4,#24
        0x00000f5c:    0e1b        ..      LSRS     r3,r3,#24
        0x00000f5e:    d00c        ..      BEQ      0xf7a ; CLK_SetModuleClock + 46
        0x00000f60:    0303        ..      LSLS     r3,r0,#12
        0x00000f62:    0f9b        ..      LSRS     r3,r3,#30
        0x00000f64:    4d10        .M      LDR      r5,[pc,#64] ; [0xfa8] = 0x50000218
        0x00000f66:    009b        ..      LSLS     r3,r3,#2
        0x00000f68:    195b        [.      ADDS     r3,r3,r5
        0x00000f6a:    b2e5        ..      UXTB     r5,r4
        0x00000f6c:    0584        ..      LSLS     r4,r0,#22
        0x00000f6e:    0ee4        ..      LSRS     r4,r4,#27
        0x00000f70:    40a5        .@      LSLS     r5,r5,r4
        0x00000f72:    681c        .h      LDR      r4,[r3,#0]
        0x00000f74:    43ac        .C      BICS     r4,r4,r5
        0x00000f76:    4314        .C      ORRS     r4,r4,r2
        0x00000f78:    601c        .`      STR      r4,[r3,#0]
        0x00000f7a:    0e42        B.      LSRS     r2,r0,#25
        0x00000f7c:    0752        R.      LSLS     r2,r2,#29
        0x00000f7e:    d010        ..      BEQ      0xfa2 ; CLK_SetModuleClock + 86
        0x00000f80:    0082        ..      LSLS     r2,r0,#2
        0x00000f82:    0f92        ..      LSRS     r2,r2,#30
        0x00000f84:    0092        ..      LSLS     r2,r2,#2
        0x00000f86:    466b        kF      MOV      r3,sp
        0x00000f88:    589a        .X      LDR      r2,[r3,r2]
        0x00000f8a:    4b07        .K      LDR      r3,[pc,#28] ; [0xfa8] = 0x50000218
        0x00000f8c:    3b08        .;      SUBS     r3,r3,#8
        0x00000f8e:    18d2        ..      ADDS     r2,r2,r3
        0x00000f90:    0103        ..      LSLS     r3,r0,#4
        0x00000f92:    0f5b        [.      LSRS     r3,r3,#29
        0x00000f94:    01c0        ..      LSLS     r0,r0,#7
        0x00000f96:    0ec0        ..      LSRS     r0,r0,#27
        0x00000f98:    4083        .@      LSLS     r3,r3,r0
        0x00000f9a:    6810        .h      LDR      r0,[r2,#0]
        0x00000f9c:    4398        .C      BICS     r0,r0,r3
        0x00000f9e:    4308        .C      ORRS     r0,r0,r1
        0x00000fa0:    6010        .`      STR      r0,[r2,#0]
        0x00000fa2:    bd7f        ..      POP      {r0-r6,pc}
    $d
        0x00000fa4:    00004138    8A..    DCD    16696
        0x00000fa8:    50000218    ...P    DCD    1342177816
    $t
    i.CLK_WaitClockReady
    CLK_WaitClockReady
        0x00000fac:    b510        ..      PUSH     {r4,lr}
        0x00000fae:    4604        .F      MOV      r4,r0
        0x00000fb0:    4907        .I      LDR      r1,[pc,#28] ; [0xfd0] = 0x124f80
        0x00000fb2:    4a08        .J      LDR      r2,[pc,#32] ; [0xfd4] = 0x50000200
        0x00000fb4:    e005        ..      B        0xfc2 ; CLK_WaitClockReady + 22
        0x00000fb6:    460b        .F      MOV      r3,r1
        0x00000fb8:    1e49        I.      SUBS     r1,r1,#1
        0x00000fba:    2b00        .+      CMP      r3,#0
        0x00000fbc:    dc01        ..      BGT      0xfc2 ; CLK_WaitClockReady + 22
        0x00000fbe:    2000        .       MOVS     r0,#0
        0x00000fc0:    bd10        ..      POP      {r4,pc}
        0x00000fc2:    68d3        .h      LDR      r3,[r2,#0xc]
        0x00000fc4:    4620         F      MOV      r0,r4
        0x00000fc6:    4398        .C      BICS     r0,r0,r3
        0x00000fc8:    d1f5        ..      BNE      0xfb6 ; CLK_WaitClockReady + 10
        0x00000fca:    2001        .       MOVS     r0,#1
        0x00000fcc:    bd10        ..      POP      {r4,pc}
    $d
        0x00000fce:    0000        ..      DCW    0
        0x00000fd0:    00124f80    .O..    DCD    1200000
        0x00000fd4:    50000200    ...P    DCD    1342177792
    $t
    i.ConverIntToASC
    ConverIntToASC
        0x00000fd8:    b570        p.      PUSH     {r4-r6,lr}
        0x00000fda:    460d        .F      MOV      r5,r1
        0x00000fdc:    1e41        A.      SUBS     r1,r0,#1
        0x00000fde:    4614        .F      MOV      r4,r2
        0x00000fe0:    2903        .)      CMP      r1,#3
        0x00000fe2:    d301        ..      BCC      0xfe8 ; ConverIntToASC + 16
        0x00000fe4:    2000        .       MOVS     r0,#0
        0x00000fe6:    bd70        p.      POP      {r4-r6,pc}
        0x00000fe8:    2803        .(      CMP      r0,#3
        0x00000fea:    d009        ..      BEQ      0x1000 ; ConverIntToASC + 40
        0x00000fec:    2802        .(      CMP      r0,#2
        0x00000fee:    d01a        ..      BEQ      0x1026 ; ConverIntToASC + 78
        0x00000ff0:    210a        .!      MOVS     r1,#0xa
        0x00000ff2:    4628        (F      MOV      r0,r5
        0x00000ff4:    f7fff894    ....    BL       __aeabi_uidiv ; 0x120
        0x00000ff8:    3130        01      ADDS     r1,r1,#0x30
        0x00000ffa:    7021        !p      STRB     r1,[r4,#0]
        0x00000ffc:    2001        .       MOVS     r0,#1
        0x00000ffe:    bd70        p.      POP      {r4-r6,pc}
        0x00001000:    2164        d!      MOVS     r1,#0x64
        0x00001002:    4628        (F      MOV      r0,r5
        0x00001004:    f7fff88c    ....    BL       __aeabi_uidiv ; 0x120
        0x00001008:    3030        00      ADDS     r0,r0,#0x30
        0x0000100a:    7020         p      STRB     r0,[r4,#0]
        0x0000100c:    4608        .F      MOV      r0,r1
        0x0000100e:    210a        .!      MOVS     r1,#0xa
        0x00001010:    f7fff886    ....    BL       __aeabi_uidiv ; 0x120
        0x00001014:    3030        00      ADDS     r0,r0,#0x30
        0x00001016:    7060        `p      STRB     r0,[r4,#1]
        0x00001018:    210a        .!      MOVS     r1,#0xa
        0x0000101a:    4628        (F      MOV      r0,r5
        0x0000101c:    f7fff880    ....    BL       __aeabi_uidiv ; 0x120
        0x00001020:    3130        01      ADDS     r1,r1,#0x30
        0x00001022:    70a1        .p      STRB     r1,[r4,#2]
        0x00001024:    e7ea        ..      B        0xffc ; ConverIntToASC + 36
        0x00001026:    2164        d!      MOVS     r1,#0x64
        0x00001028:    4628        (F      MOV      r0,r5
        0x0000102a:    f7fff879    ..y.    BL       __aeabi_uidiv ; 0x120
        0x0000102e:    4608        .F      MOV      r0,r1
        0x00001030:    210a        .!      MOVS     r1,#0xa
        0x00001032:    f7fff875    ..u.    BL       __aeabi_uidiv ; 0x120
        0x00001036:    3030        00      ADDS     r0,r0,#0x30
        0x00001038:    7020         p      STRB     r0,[r4,#0]
        0x0000103a:    210a        .!      MOVS     r1,#0xa
        0x0000103c:    4628        (F      MOV      r0,r5
        0x0000103e:    f7fff86f    ..o.    BL       __aeabi_uidiv ; 0x120
        0x00001042:    3130        01      ADDS     r1,r1,#0x30
        0x00001044:    7061        ap      STRB     r1,[r4,#1]
        0x00001046:    e7d9        ..      B        0xffc ; ConverIntToASC + 36
    i.ConverJMdataToASC
    ConverJMdataToASC
        0x00001048:    b570        p.      PUSH     {r4-r6,lr}
        0x0000104a:    460c        .F      MOV      r4,r1
        0x0000104c:    4605        .F      MOV      r5,r0
        0x0000104e:    4914        .I      LDR      r1,[pc,#80] ; [0x10a0] = 0x2710
        0x00001050:    f7fff866    ..f.    BL       __aeabi_uidiv ; 0x120
        0x00001054:    3030        00      ADDS     r0,r0,#0x30
        0x00001056:    7020         p      STRB     r0,[r4,#0]
        0x00001058:    267d        }&      MOVS     r6,#0x7d
        0x0000105a:    4608        .F      MOV      r0,r1
        0x0000105c:    00f6        ..      LSLS     r6,r6,#3
        0x0000105e:    4631        1F      MOV      r1,r6
        0x00001060:    f7fff85e    ..^.    BL       __aeabi_uidiv ; 0x120
        0x00001064:    3030        00      ADDS     r0,r0,#0x30
        0x00001066:    7060        `p      STRB     r0,[r4,#1]
        0x00001068:    4631        1F      MOV      r1,r6
        0x0000106a:    4628        (F      MOV      r0,r5
        0x0000106c:    f7fff858    ..X.    BL       __aeabi_uidiv ; 0x120
        0x00001070:    4608        .F      MOV      r0,r1
        0x00001072:    2164        d!      MOVS     r1,#0x64
        0x00001074:    f7fff854    ..T.    BL       __aeabi_uidiv ; 0x120
        0x00001078:    3030        00      ADDS     r0,r0,#0x30
        0x0000107a:    70a0        .p      STRB     r0,[r4,#2]
        0x0000107c:    2164        d!      MOVS     r1,#0x64
        0x0000107e:    4628        (F      MOV      r0,r5
        0x00001080:    f7fff84e    ..N.    BL       __aeabi_uidiv ; 0x120
        0x00001084:    4608        .F      MOV      r0,r1
        0x00001086:    210a        .!      MOVS     r1,#0xa
        0x00001088:    f7fff84a    ..J.    BL       __aeabi_uidiv ; 0x120
        0x0000108c:    3030        00      ADDS     r0,r0,#0x30
        0x0000108e:    70e0        .p      STRB     r0,[r4,#3]
        0x00001090:    210a        .!      MOVS     r1,#0xa
        0x00001092:    4628        (F      MOV      r0,r5
        0x00001094:    f7fff844    ..D.    BL       __aeabi_uidiv ; 0x120
        0x00001098:    3130        01      ADDS     r1,r1,#0x30
        0x0000109a:    7121        !q      STRB     r1,[r4,#4]
        0x0000109c:    bd70        p.      POP      {r4-r6,pc}
    $d
        0x0000109e:    0000        ..      DCW    0
        0x000010a0:    00002710    .'..    DCD    10000
    $t
    i.ConverJMsnumToASC
    ConverJMsnumToASC
        0x000010a4:    b570        p.      PUSH     {r4-r6,lr}
        0x000010a6:    460c        .F      MOV      r4,r1
        0x000010a8:    217d        }!      MOVS     r1,#0x7d
        0x000010aa:    4605        .F      MOV      r5,r0
        0x000010ac:    00c9        ..      LSLS     r1,r1,#3
        0x000010ae:    f7fff837    ..7.    BL       __aeabi_uidiv ; 0x120
        0x000010b2:    3030        00      ADDS     r0,r0,#0x30
        0x000010b4:    71e0        .q      STRB     r0,[r4,#7]
        0x000010b6:    4608        .F      MOV      r0,r1
        0x000010b8:    2164        d!      MOVS     r1,#0x64
        0x000010ba:    f7fff831    ..1.    BL       __aeabi_uidiv ; 0x120
        0x000010be:    3030        00      ADDS     r0,r0,#0x30
        0x000010c0:    7220         r      STRB     r0,[r4,#8]
        0x000010c2:    2164        d!      MOVS     r1,#0x64
        0x000010c4:    4628        (F      MOV      r0,r5
        0x000010c6:    f7fff82b    ..+.    BL       __aeabi_uidiv ; 0x120
        0x000010ca:    4608        .F      MOV      r0,r1
        0x000010cc:    210a        .!      MOVS     r1,#0xa
        0x000010ce:    f7fff827    ..'.    BL       __aeabi_uidiv ; 0x120
        0x000010d2:    3030        00      ADDS     r0,r0,#0x30
        0x000010d4:    7260        `r      STRB     r0,[r4,#9]
        0x000010d6:    210a        .!      MOVS     r1,#0xa
        0x000010d8:    4628        (F      MOV      r0,r5
        0x000010da:    f7fff821    ..!.    BL       __aeabi_uidiv ; 0x120
        0x000010de:    3130        01      ADDS     r1,r1,#0x30
        0x000010e0:    72a1        .r      STRB     r1,[r4,#0xa]
        0x000010e2:    bd70        p.      POP      {r4-r6,pc}
    i.ConverStateBitToASC
    ConverStateBitToASC
        0x000010e4:    b570        p.      PUSH     {r4-r6,lr}
        0x000010e6:    2200        ."      MOVS     r2,#0
        0x000010e8:    2601        .&      MOVS     r6,#1
        0x000010ea:    2431        1$      MOVS     r4,#0x31
        0x000010ec:    2530        0%      MOVS     r5,#0x30
        0x000010ee:    4633        3F      MOV      r3,r6
        0x000010f0:    4093        .@      LSLS     r3,r3,r2
        0x000010f2:    4203        .B      TST      r3,r0
        0x000010f4:    d001        ..      BEQ      0x10fa ; ConverStateBitToASC + 22
        0x000010f6:    548c        .T      STRB     r4,[r1,r2]
        0x000010f8:    e000        ..      B        0x10fc ; ConverStateBitToASC + 24
        0x000010fa:    548d        .T      STRB     r5,[r1,r2]
        0x000010fc:    1c52        R.      ADDS     r2,r2,#1
        0x000010fe:    b2d2        ..      UXTB     r2,r2
        0x00001100:    2a10        .*      CMP      r2,#0x10
        0x00001102:    d3f4        ..      BCC      0x10ee ; ConverStateBitToASC + 10
        0x00001104:    bd70        p.      POP      {r4-r6,pc}
        0x00001106:    0000        ..      MOVS     r0,r0
    i.ConvertCanToCarDat
    ConvertCanToCarDat
        0x00001108:    b570        p.      PUSH     {r4-r6,lr}
        0x0000110a:    4c46        FL      LDR      r4,[pc,#280] ; [0x1224] = 0x20000518
        0x0000110c:    4d46        FM      LDR      r5,[pc,#280] ; [0x1228] = 0x200000b0
        0x0000110e:    6820         h      LDR      r0,[r4,#0]
        0x00001110:    2101        .!      MOVS     r1,#1
        0x00001112:    b2c2        ..      UXTB     r2,r0
        0x00001114:    69e8        .i      LDR      r0,[r5,#0x1c]
        0x00001116:    3090        .0      ADDS     r0,r0,#0x90
        0x00001118:    f7fff8ab    ....    BL       __aeabi_memset ; 0x272
        0x0000111c:    6820         h      LDR      r0,[r4,#0]
        0x0000111e:    2101        .!      MOVS     r1,#1
        0x00001120:    0400        ..      LSLS     r0,r0,#16
        0x00001122:    0e02        ..      LSRS     r2,r0,#24
        0x00001124:    69e8        .i      LDR      r0,[r5,#0x1c]
        0x00001126:    3091        .0      ADDS     r0,r0,#0x91
        0x00001128:    f7fff8a3    ....    BL       __aeabi_memset ; 0x272
        0x0000112c:    6820         h      LDR      r0,[r4,#0]
        0x0000112e:    2101        .!      MOVS     r1,#1
        0x00001130:    0200        ..      LSLS     r0,r0,#8
        0x00001132:    0e02        ..      LSRS     r2,r0,#24
        0x00001134:    69e8        .i      LDR      r0,[r5,#0x1c]
        0x00001136:    3092        .0      ADDS     r0,r0,#0x92
        0x00001138:    f7fff89b    ....    BL       __aeabi_memset ; 0x272
        0x0000113c:    6820         h      LDR      r0,[r4,#0]
        0x0000113e:    2101        .!      MOVS     r1,#1
        0x00001140:    0e02        ..      LSRS     r2,r0,#24
        0x00001142:    69e8        .i      LDR      r0,[r5,#0x1c]
        0x00001144:    3093        .0      ADDS     r0,r0,#0x93
        0x00001146:    f7fff894    ....    BL       __aeabi_memset ; 0x272
        0x0000114a:    f000ff53    ..S.    BL       NETERROR_SEND ; 0x1ff4
        0x0000114e:    8b21        !.      LDRH     r1,[r4,#0x18]
        0x00001150:    20e1        .       MOVS     r0,#0xe1
        0x00001152:    0100        ..      LSLS     r0,r0,#4
        0x00001154:    4281        .B      CMP      r1,r0
        0x00001156:    d900        ..      BLS      0x115a ; ConvertCanToCarDat + 82
        0x00001158:    8320         .      STRH     r0,[r4,#0x18]
        0x0000115a:    79a0        .y      LDRB     r0,[r4,#6]
        0x0000115c:    2864        d(      CMP      r0,#0x64
        0x0000115e:    d901        ..      BLS      0x1164 ; ConvertCanToCarDat + 92
        0x00001160:    2064        d       MOVS     r0,#0x64
        0x00001162:    71a0        .q      STRB     r0,[r4,#6]
        0x00001164:    79e0        .y      LDRB     r0,[r4,#7]
        0x00001166:    2878        x(      CMP      r0,#0x78
        0x00001168:    d901        ..      BLS      0x116e ; ConvertCanToCarDat + 102
        0x0000116a:    2078        x       MOVS     r0,#0x78
        0x0000116c:    71e0        .q      STRB     r0,[r4,#7]
        0x0000116e:    7a20         z      LDRB     r0,[r4,#8]
        0x00001170:    2808        .(      CMP      r0,#8
        0x00001172:    d901        ..      BLS      0x1178 ; ConvertCanToCarDat + 112
        0x00001174:    2008        .       MOVS     r0,#8
        0x00001176:    7220         r      STRB     r0,[r4,#8]
        0x00001178:    482c        ,H      LDR      r0,[pc,#176] ; [0x122c] = 0xf423f
        0x0000117a:    68e1        .h      LDR      r1,[r4,#0xc]
        0x0000117c:    4281        .B      CMP      r1,r0
        0x0000117e:    d900        ..      BLS      0x1182 ; ConvertCanToCarDat + 122
        0x00001180:    60e0        .`      STR      r0,[r4,#0xc]
        0x00001182:    8b20         .      LDRH     r0,[r4,#0x18]
        0x00001184:    492a        *I      LDR      r1,[pc,#168] ; [0x1230] = 0x2710
        0x00001186:    f7feffcb    ....    BL       __aeabi_uidiv ; 0x120
        0x0000118a:    267d        }&      MOVS     r6,#0x7d
        0x0000118c:    4608        .F      MOV      r0,r1
        0x0000118e:    00f6        ..      LSLS     r6,r6,#3
        0x00001190:    4631        1F      MOV      r1,r6
        0x00001192:    f7feffc5    ....    BL       __aeabi_uidiv ; 0x120
        0x00001196:    69ea        .i      LDR      r2,[r5,#0x1c]
        0x00001198:    4601        .F      MOV      r1,r0
        0x0000119a:    3288        .2      ADDS     r2,r2,#0x88
        0x0000119c:    2001        .       MOVS     r0,#1
        0x0000119e:    f7ffff1b    ....    BL       ConverIntToASC ; 0xfd8
        0x000011a2:    8b20         .      LDRH     r0,[r4,#0x18]
        0x000011a4:    4631        1F      MOV      r1,r6
        0x000011a6:    f7feffbb    ....    BL       __aeabi_uidiv ; 0x120
        0x000011aa:    69ea        .i      LDR      r2,[r5,#0x1c]
        0x000011ac:    2003        .       MOVS     r0,#3
        0x000011ae:    3289        .2      ADDS     r2,r2,#0x89
        0x000011b0:    f7ffff12    ....    BL       ConverIntToASC ; 0xfd8
        0x000011b4:    69ea        .i      LDR      r2,[r5,#0x1c]
        0x000011b6:    79a1        .y      LDRB     r1,[r4,#6]
        0x000011b8:    3262        b2      ADDS     r2,r2,#0x62
        0x000011ba:    2003        .       MOVS     r0,#3
        0x000011bc:    f7ffff0c    ....    BL       ConverIntToASC ; 0xfd8
        0x000011c0:    69ea        .i      LDR      r2,[r5,#0x1c]
        0x000011c2:    79e1        .y      LDRB     r1,[r4,#7]
        0x000011c4:    3269        i2      ADDS     r2,r2,#0x69
        0x000011c6:    2003        .       MOVS     r0,#3
        0x000011c8:    f7ffff06    ....    BL       ConverIntToASC ; 0xfd8
        0x000011cc:    69ea        .i      LDR      r2,[r5,#0x1c]
        0x000011ce:    7a21        !z      LDRB     r1,[r4,#8]
        0x000011d0:    3270        p2      ADDS     r2,r2,#0x70
        0x000011d2:    2003        .       MOVS     r0,#3
        0x000011d4:    f7ffff00    ....    BL       ConverIntToASC ; 0xfd8
        0x000011d8:    4914        .I      LDR      r1,[pc,#80] ; [0x122c] = 0xf423f
        0x000011da:    68e0        .h      LDR      r0,[r4,#0xc]
        0x000011dc:    1c49        I.      ADDS     r1,r1,#1
        0x000011de:    f7feff9f    ....    BL       __aeabi_uidiv ; 0x120
        0x000011e2:    4608        .F      MOV      r0,r1
        0x000011e4:    4631        1F      MOV      r1,r6
        0x000011e6:    f7feff9b    ....    BL       __aeabi_uidiv ; 0x120
        0x000011ea:    69ea        .i      LDR      r2,[r5,#0x1c]
        0x000011ec:    b281        ..      UXTH     r1,r0
        0x000011ee:    327e        ~2      ADDS     r2,r2,#0x7e
        0x000011f0:    2003        .       MOVS     r0,#3
        0x000011f2:    f7fffef1    ....    BL       ConverIntToASC ; 0xfd8
        0x000011f6:    4631        1F      MOV      r1,r6
        0x000011f8:    68e0        .h      LDR      r0,[r4,#0xc]
        0x000011fa:    f7feff91    ....    BL       __aeabi_uidiv ; 0x120
        0x000011fe:    69ea        .i      LDR      r2,[r5,#0x1c]
        0x00001200:    2003        .       MOVS     r0,#3
        0x00001202:    3281        .2      ADDS     r2,r2,#0x81
        0x00001204:    f7fffee8    ....    BL       ConverIntToASC ; 0xfd8
        0x00001208:    8ae1        ..      LDRH     r1,[r4,#0x16]
        0x0000120a:    20ff        .       MOVS     r0,#0xff
        0x0000120c:    3069        i0      ADDS     r0,r0,#0x69
        0x0000120e:    4281        .B      CMP      r1,r0
        0x00001210:    d900        ..      BLS      0x1214 ; ConvertCanToCarDat + 268
        0x00001212:    82e0        ..      STRH     r0,[r4,#0x16]
        0x00001214:    69ea        .i      LDR      r2,[r5,#0x1c]
        0x00001216:    8ae1        ..      LDRH     r1,[r4,#0x16]
        0x00001218:    3277        w2      ADDS     r2,r2,#0x77
        0x0000121a:    2003        .       MOVS     r0,#3
        0x0000121c:    f7fffedc    ....    BL       ConverIntToASC ; 0xfd8
        0x00001220:    bd70        p.      POP      {r4-r6,pc}
    $d
        0x00001222:    0000        ..      DCW    0
        0x00001224:    20000518    ...     DCD    536872216
        0x00001228:    200000b0    ...     DCD    536871088
        0x0000122c:    000f423f    ?B..    DCD    999999
        0x00001230:    00002710    .'..    DCD    10000
    $t
    i.DF_Erase
    DF_Erase
        0x00001234:    4906        .I      LDR      r1,[pc,#24] ; [0x1250] = 0x5000c000
        0x00001236:    2222        ""      MOVS     r2,#0x22
        0x00001238:    60ca        .`      STR      r2,[r1,#0xc]
        0x0000123a:    6048        H`      STR      r0,[r1,#4]
        0x0000123c:    2001        .       MOVS     r0,#1
        0x0000123e:    6108        .a      STR      r0,[r1,#0x10]
        0x00001240:    f3bf8f6f    ..o.    ISB      
        0x00001244:    6908        .i      LDR      r0,[r1,#0x10]
        0x00001246:    2800        .(      CMP      r0,#0
        0x00001248:    d1fc        ..      BNE      0x1244 ; DF_Erase + 16
        0x0000124a:    6808        .h      LDR      r0,[r1,#0]
        0x0000124c:    4770        pG      BX       lr
    $d
        0x0000124e:    0000        ..      DCW    0
        0x00001250:    5000c000    ...P    DCD    1342226432
    $t
    i.DF_Read
    DF_Read
        0x00001254:    4906        .I      LDR      r1,[pc,#24] ; [0x1270] = 0x5000c000
        0x00001256:    2200        ."      MOVS     r2,#0
        0x00001258:    60ca        .`      STR      r2,[r1,#0xc]
        0x0000125a:    6048        H`      STR      r0,[r1,#4]
        0x0000125c:    2001        .       MOVS     r0,#1
        0x0000125e:    6108        .a      STR      r0,[r1,#0x10]
        0x00001260:    f3bf8f6f    ..o.    ISB      
        0x00001264:    6908        .i      LDR      r0,[r1,#0x10]
        0x00001266:    2800        .(      CMP      r0,#0
        0x00001268:    d1fc        ..      BNE      0x1264 ; DF_Read + 16
        0x0000126a:    6888        .h      LDR      r0,[r1,#8]
        0x0000126c:    4770        pG      BX       lr
    $d
        0x0000126e:    0000        ..      DCW    0
        0x00001270:    5000c000    ...P    DCD    1342226432
    $t
    i.DF_ReadCCIDNumber
    DF_ReadCCIDNumber
        0x00001274:    b5f0        ..      PUSH     {r4-r7,lr}
        0x00001276:    4e0c        .N      LDR      r6,[pc,#48] ; [0x12a8] = 0x5000c000
        0x00001278:    4605        .F      MOV      r5,r0
        0x0000127a:    2300        .#      MOVS     r3,#0
        0x0000127c:    6830        0h      LDR      r0,[r6,#0]
        0x0000127e:    461c        .F      MOV      r4,r3
        0x00001280:    2101        .!      MOVS     r1,#1
        0x00001282:    4308        .C      ORRS     r0,r0,r1
        0x00001284:    6030        0`      STR      r0,[r6,#0]
        0x00001286:    277f        .'      MOVS     r7,#0x7f
        0x00001288:    02bf        ..      LSLS     r7,r7,#10
        0x0000128a:    19d8        ..      ADDS     r0,r3,r7
        0x0000128c:    f7ffffe2    ....    BL       DF_Read ; 0x1254
        0x00001290:    00a1        ..      LSLS     r1,r4,#2
        0x00001292:    1c64        d.      ADDS     r4,r4,#1
        0x00001294:    1d1b        ..      ADDS     r3,r3,#4
        0x00001296:    5068        hP      STR      r0,[r5,r1]
        0x00001298:    b2e4        ..      UXTB     r4,r4
        0x0000129a:    2b14        .+      CMP      r3,#0x14
        0x0000129c:    d3f5        ..      BCC      0x128a ; DF_ReadCCIDNumber + 22
        0x0000129e:    6830        0h      LDR      r0,[r6,#0]
        0x000012a0:    0840        @.      LSRS     r0,r0,#1
        0x000012a2:    0040        @.      LSLS     r0,r0,#1
        0x000012a4:    6030        0`      STR      r0,[r6,#0]
        0x000012a6:    bdf0        ..      POP      {r4-r7,pc}
    $d
        0x000012a8:    5000c000    ...P    DCD    1342226432
    $t
    i.DF_ReadHour
    DF_ReadHour
        0x000012ac:    b5f0        ..      PUSH     {r4-r7,lr}
        0x000012ae:    4d0c        .M      LDR      r5,[pc,#48] ; [0x12e0] = 0x5000c000
        0x000012b0:    2400        .$      MOVS     r4,#0
        0x000012b2:    6828        (h      LDR      r0,[r5,#0]
        0x000012b4:    4623        #F      MOV      r3,r4
        0x000012b6:    2101        .!      MOVS     r1,#1
        0x000012b8:    4308        .C      ORRS     r0,r0,r1
        0x000012ba:    6028        (`      STR      r0,[r5,#0]
        0x000012bc:    26f9        .&      MOVS     r6,#0xf9
        0x000012be:    0276        v.      LSLS     r6,r6,#9
        0x000012c0:    024f        O.      LSLS     r7,r1,#9
        0x000012c2:    1998        ..      ADDS     r0,r3,r6
        0x000012c4:    f7ffffc6    ....    BL       DF_Read ; 0x1254
        0x000012c8:    1c41        A.      ADDS     r1,r0,#1
        0x000012ca:    d003        ..      BEQ      0x12d4 ; DF_ReadHour + 40
        0x000012cc:    1d1b        ..      ADDS     r3,r3,#4
        0x000012ce:    4604        .F      MOV      r4,r0
        0x000012d0:    42bb        .B      CMP      r3,r7
        0x000012d2:    d3f6        ..      BCC      0x12c2 ; DF_ReadHour + 22
        0x000012d4:    6828        (h      LDR      r0,[r5,#0]
        0x000012d6:    0840        @.      LSRS     r0,r0,#1
        0x000012d8:    0040        @.      LSLS     r0,r0,#1
        0x000012da:    6028        (`      STR      r0,[r5,#0]
        0x000012dc:    4620         F      MOV      r0,r4
        0x000012de:    bdf0        ..      POP      {r4-r7,pc}
    $d
        0x000012e0:    5000c000    ...P    DCD    1342226432
    $t
    i.DF_ReadSWstate
    DF_ReadSWstate
        0x000012e4:    b5f0        ..      PUSH     {r4-r7,lr}
        0x000012e6:    4d0c        .M      LDR      r5,[pc,#48] ; [0x1318] = 0x5000c000
        0x000012e8:    2400        .$      MOVS     r4,#0
        0x000012ea:    6828        (h      LDR      r0,[r5,#0]
        0x000012ec:    4623        #F      MOV      r3,r4
        0x000012ee:    2101        .!      MOVS     r1,#1
        0x000012f0:    4308        .C      ORRS     r0,r0,r1
        0x000012f2:    6028        (`      STR      r0,[r5,#0]
        0x000012f4:    261f        .&      MOVS     r6,#0x1f
        0x000012f6:    0336        6.      LSLS     r6,r6,#12
        0x000012f8:    024f        O.      LSLS     r7,r1,#9
        0x000012fa:    1998        ..      ADDS     r0,r3,r6
        0x000012fc:    f7ffffaa    ....    BL       DF_Read ; 0x1254
        0x00001300:    1c41        A.      ADDS     r1,r0,#1
        0x00001302:    d003        ..      BEQ      0x130c ; DF_ReadSWstate + 40
        0x00001304:    1d1b        ..      ADDS     r3,r3,#4
        0x00001306:    4604        .F      MOV      r4,r0
        0x00001308:    42bb        .B      CMP      r3,r7
        0x0000130a:    d3f6        ..      BCC      0x12fa ; DF_ReadSWstate + 22
        0x0000130c:    6828        (h      LDR      r0,[r5,#0]
        0x0000130e:    0840        @.      LSRS     r0,r0,#1
        0x00001310:    0040        @.      LSLS     r0,r0,#1
        0x00001312:    6028        (`      STR      r0,[r5,#0]
        0x00001314:    4620         F      MOV      r0,r4
        0x00001316:    bdf0        ..      POP      {r4-r7,pc}
    $d
        0x00001318:    5000c000    ...P    DCD    1342226432
    $t
    i.DF_Readboundstate
    DF_Readboundstate
        0x0000131c:    b5f0        ..      PUSH     {r4-r7,lr}
        0x0000131e:    4d0c        .M      LDR      r5,[pc,#48] ; [0x1350] = 0x5000c000
        0x00001320:    2400        .$      MOVS     r4,#0
        0x00001322:    6828        (h      LDR      r0,[r5,#0]
        0x00001324:    4623        #F      MOV      r3,r4
        0x00001326:    2101        .!      MOVS     r1,#1
        0x00001328:    4308        .C      ORRS     r0,r0,r1
        0x0000132a:    6028        (`      STR      r0,[r5,#0]
        0x0000132c:    263f        ?&      MOVS     r6,#0x3f
        0x0000132e:    02f6        ..      LSLS     r6,r6,#11
        0x00001330:    024f        O.      LSLS     r7,r1,#9
        0x00001332:    1998        ..      ADDS     r0,r3,r6
        0x00001334:    f7ffff8e    ....    BL       DF_Read ; 0x1254
        0x00001338:    1c41        A.      ADDS     r1,r0,#1
        0x0000133a:    d003        ..      BEQ      0x1344 ; DF_Readboundstate + 40
        0x0000133c:    1d1b        ..      ADDS     r3,r3,#4
        0x0000133e:    4604        .F      MOV      r4,r0
        0x00001340:    42bb        .B      CMP      r3,r7
        0x00001342:    d3f6        ..      BCC      0x1332 ; DF_Readboundstate + 22
        0x00001344:    6828        (h      LDR      r0,[r5,#0]
        0x00001346:    0840        @.      LSRS     r0,r0,#1
        0x00001348:    0040        @.      LSLS     r0,r0,#1
        0x0000134a:    6028        (`      STR      r0,[r5,#0]
        0x0000134c:    4620         F      MOV      r0,r4
        0x0000134e:    bdf0        ..      POP      {r4-r7,pc}
    $d
        0x00001350:    5000c000    ...P    DCD    1342226432
    $t
    i.DF_ReadccidFlag
    DF_ReadccidFlag
        0x00001354:    b5f0        ..      PUSH     {r4-r7,lr}
        0x00001356:    4d0c        .M      LDR      r5,[pc,#48] ; [0x1388] = 0x5000c000
        0x00001358:    2400        .$      MOVS     r4,#0
        0x0000135a:    6828        (h      LDR      r0,[r5,#0]
        0x0000135c:    4623        #F      MOV      r3,r4
        0x0000135e:    2101        .!      MOVS     r1,#1
        0x00001360:    4308        .C      ORRS     r0,r0,r1
        0x00001362:    6028        (`      STR      r0,[r5,#0]
        0x00001364:    26fd        .&      MOVS     r6,#0xfd
        0x00001366:    0276        v.      LSLS     r6,r6,#9
        0x00001368:    024f        O.      LSLS     r7,r1,#9
        0x0000136a:    1998        ..      ADDS     r0,r3,r6
        0x0000136c:    f7ffff72    ..r.    BL       DF_Read ; 0x1254
        0x00001370:    1c41        A.      ADDS     r1,r0,#1
        0x00001372:    d003        ..      BEQ      0x137c ; DF_ReadccidFlag + 40
        0x00001374:    1d1b        ..      ADDS     r3,r3,#4
        0x00001376:    4604        .F      MOV      r4,r0
        0x00001378:    42bb        .B      CMP      r3,r7
        0x0000137a:    d3f6        ..      BCC      0x136a ; DF_ReadccidFlag + 22
        0x0000137c:    6828        (h      LDR      r0,[r5,#0]
        0x0000137e:    0840        @.      LSRS     r0,r0,#1
        0x00001380:    0040        @.      LSLS     r0,r0,#1
        0x00001382:    6028        (`      STR      r0,[r5,#0]
        0x00001384:    4620         F      MOV      r0,r4
        0x00001386:    bdf0        ..      POP      {r4-r7,pc}
    $d
        0x00001388:    5000c000    ...P    DCD    1342226432
    $t
    i.DF_Write
    DF_Write
        0x0000138c:    4a06        .J      LDR      r2,[pc,#24] ; [0x13a8] = 0x5000c000
        0x0000138e:    2321        !#      MOVS     r3,#0x21
        0x00001390:    60d3        .`      STR      r3,[r2,#0xc]
        0x00001392:    6050        P`      STR      r0,[r2,#4]
        0x00001394:    6091        .`      STR      r1,[r2,#8]
        0x00001396:    2001        .       MOVS     r0,#1
        0x00001398:    6110        .a      STR      r0,[r2,#0x10]
        0x0000139a:    f3bf8f6f    ..o.    ISB      
        0x0000139e:    6910        .i      LDR      r0,[r2,#0x10]
        0x000013a0:    2800        .(      CMP      r0,#0
        0x000013a2:    d1fc        ..      BNE      0x139e ; DF_Write + 18
        0x000013a4:    4770        pG      BX       lr
    $d
        0x000013a6:    0000        ..      DCW    0
        0x000013a8:    5000c000    ...P    DCD    1342226432
    $t
    i.DF_WriteCCIDNumber
    DF_WriteCCIDNumber
        0x000013ac:    b5f0        ..      PUSH     {r4-r7,lr}
        0x000013ae:    4f0c        .O      LDR      r7,[pc,#48] ; [0x13e0] = 0x5000c000
        0x000013b0:    4606        .F      MOV      r6,r0
        0x000013b2:    2400        .$      MOVS     r4,#0
        0x000013b4:    6838        8h      LDR      r0,[r7,#0]
        0x000013b6:    4625        %F      MOV      r5,r4
        0x000013b8:    2101        .!      MOVS     r1,#1
        0x000013ba:    4308        .C      ORRS     r0,r0,r1
        0x000013bc:    6038        8`      STR      r0,[r7,#0]
        0x000013be:    00a8        ..      LSLS     r0,r5,#2
        0x000013c0:    5831        1X      LDR      r1,[r6,r0]
        0x000013c2:    207f        .       MOVS     r0,#0x7f
        0x000013c4:    0280        ..      LSLS     r0,r0,#10
        0x000013c6:    1820         .      ADDS     r0,r4,r0
        0x000013c8:    f7ffffe0    ....    BL       DF_Write ; 0x138c
        0x000013cc:    1c6d        m.      ADDS     r5,r5,#1
        0x000013ce:    1d24        $.      ADDS     r4,r4,#4
        0x000013d0:    b2ed        ..      UXTB     r5,r5
        0x000013d2:    2c14        .,      CMP      r4,#0x14
        0x000013d4:    d3f3        ..      BCC      0x13be ; DF_WriteCCIDNumber + 18
        0x000013d6:    6838        8h      LDR      r0,[r7,#0]
        0x000013d8:    0840        @.      LSRS     r0,r0,#1
        0x000013da:    0040        @.      LSLS     r0,r0,#1
        0x000013dc:    6038        8`      STR      r0,[r7,#0]
        0x000013de:    bdf0        ..      POP      {r4-r7,pc}
    $d
        0x000013e0:    5000c000    ...P    DCD    1342226432
    $t
    i.DF_WriteHour
    DF_WriteHour
        0x000013e4:    b5f0        ..      PUSH     {r4-r7,lr}
        0x000013e6:    4e10        .N      LDR      r6,[pc,#64] ; [0x1428] = 0x5000c000
        0x000013e8:    4607        .F      MOV      r7,r0
        0x000013ea:    6830        0h      LDR      r0,[r6,#0]
        0x000013ec:    2300        .#      MOVS     r3,#0
        0x000013ee:    2101        .!      MOVS     r1,#1
        0x000013f0:    4308        .C      ORRS     r0,r0,r1
        0x000013f2:    6030        0`      STR      r0,[r6,#0]
        0x000013f4:    024d        M.      LSLS     r5,r1,#9
        0x000013f6:    24f9        .$      MOVS     r4,#0xf9
        0x000013f8:    0264        d.      LSLS     r4,r4,#9
        0x000013fa:    1918        ..      ADDS     r0,r3,r4
        0x000013fc:    f7ffff2a    ..*.    BL       DF_Read ; 0x1254
        0x00001400:    1c40        @.      ADDS     r0,r0,#1
        0x00001402:    d002        ..      BEQ      0x140a ; DF_WriteHour + 38
        0x00001404:    1d1b        ..      ADDS     r3,r3,#4
        0x00001406:    42ab        .B      CMP      r3,r5
        0x00001408:    d3f7        ..      BCC      0x13fa ; DF_WriteHour + 22
        0x0000140a:    42ab        .B      CMP      r3,r5
        0x0000140c:    d103        ..      BNE      0x1416 ; DF_WriteHour + 50
        0x0000140e:    4620         F      MOV      r0,r4
        0x00001410:    f7ffff10    ....    BL       DF_Erase ; 0x1234
        0x00001414:    2300        .#      MOVS     r3,#0
        0x00001416:    4639        9F      MOV      r1,r7
        0x00001418:    1918        ..      ADDS     r0,r3,r4
        0x0000141a:    f7ffffb7    ....    BL       DF_Write ; 0x138c
        0x0000141e:    6830        0h      LDR      r0,[r6,#0]
        0x00001420:    0840        @.      LSRS     r0,r0,#1
        0x00001422:    0040        @.      LSLS     r0,r0,#1
        0x00001424:    6030        0`      STR      r0,[r6,#0]
        0x00001426:    bdf0        ..      POP      {r4-r7,pc}
    $d
        0x00001428:    5000c000    ...P    DCD    1342226432
    $t
    i.DF_WriteccidFlag
    DF_WriteccidFlag
        0x0000142c:    b5f0        ..      PUSH     {r4-r7,lr}
        0x0000142e:    4e10        .N      LDR      r6,[pc,#64] ; [0x1470] = 0x5000c000
        0x00001430:    4607        .F      MOV      r7,r0
        0x00001432:    6830        0h      LDR      r0,[r6,#0]
        0x00001434:    2300        .#      MOVS     r3,#0
        0x00001436:    2101        .!      MOVS     r1,#1
        0x00001438:    4308        .C      ORRS     r0,r0,r1
        0x0000143a:    6030        0`      STR      r0,[r6,#0]
        0x0000143c:    024d        M.      LSLS     r5,r1,#9
        0x0000143e:    24fd        .$      MOVS     r4,#0xfd
        0x00001440:    0264        d.      LSLS     r4,r4,#9
        0x00001442:    1918        ..      ADDS     r0,r3,r4
        0x00001444:    f7ffff06    ....    BL       DF_Read ; 0x1254
        0x00001448:    1c40        @.      ADDS     r0,r0,#1
        0x0000144a:    d002        ..      BEQ      0x1452 ; DF_WriteccidFlag + 38
        0x0000144c:    1d1b        ..      ADDS     r3,r3,#4
        0x0000144e:    42ab        .B      CMP      r3,r5
        0x00001450:    d3f7        ..      BCC      0x1442 ; DF_WriteccidFlag + 22
        0x00001452:    42ab        .B      CMP      r3,r5
        0x00001454:    d103        ..      BNE      0x145e ; DF_WriteccidFlag + 50
        0x00001456:    4620         F      MOV      r0,r4
        0x00001458:    f7fffeec    ....    BL       DF_Erase ; 0x1234
        0x0000145c:    2300        .#      MOVS     r3,#0
        0x0000145e:    4639        9F      MOV      r1,r7
        0x00001460:    1918        ..      ADDS     r0,r3,r4
        0x00001462:    f7ffff93    ....    BL       DF_Write ; 0x138c
        0x00001466:    6830        0h      LDR      r0,[r6,#0]
        0x00001468:    0840        @.      LSRS     r0,r0,#1
        0x0000146a:    0040        @.      LSLS     r0,r0,#1
        0x0000146c:    6030        0`      STR      r0,[r6,#0]
        0x0000146e:    bdf0        ..      POP      {r4-r7,pc}
    $d
        0x00001470:    5000c000    ...P    DCD    1342226432
    $t
    i.Delay_1ms
    Delay_1ms
        0x00001474:    4902        .I      LDR      r1,[pc,#8] ; [0x1480] = 0x476
        0x00001476:    2000        .       MOVS     r0,#0
        0x00001478:    1c40        @.      ADDS     r0,r0,#1
        0x0000147a:    4288        .B      CMP      r0,r1
        0x0000147c:    d3fc        ..      BCC      0x1478 ; Delay_1ms + 4
        0x0000147e:    4770        pG      BX       lr
    $d
        0x00001480:    00000476    v...    DCD    1142
    $t
    i.Delay_Ms
    Delay_Ms
        0x00001484:    b500        ..      PUSH     {lr}
        0x00001486:    4603        .F      MOV      r3,r0
        0x00001488:    2200        ."      MOVS     r2,#0
        0x0000148a:    e002        ..      B        0x1492 ; Delay_Ms + 14
        0x0000148c:    f7fffff2    ....    BL       Delay_1ms ; 0x1474
        0x00001490:    1c52        R.      ADDS     r2,r2,#1
        0x00001492:    429a        .B      CMP      r2,r3
        0x00001494:    d3fa        ..      BCC      0x148c ; Delay_Ms + 8
        0x00001496:    bd00        ..      POP      {pc}
    i.EEPROMread_CCIDNumber
    EEPROMread_CCIDNumber
        0x00001498:    b510        ..      PUSH     {r4,lr}
        0x0000149a:    4604        .F      MOV      r4,r0
        0x0000149c:    f000fede    ....    BL       SYS_UnlockReg ; 0x225c
        0x000014a0:    4620         F      MOV      r0,r4
        0x000014a2:    f7fffee7    ....    BL       DF_ReadCCIDNumber ; 0x1274
        0x000014a6:    4a02        .J      LDR      r2,[pc,#8] ; [0x14b0] = 0x50000100
        0x000014a8:    2100        .!      MOVS     r1,#0
        0x000014aa:    6011        .`      STR      r1,[r2,#0]
        0x000014ac:    4620         F      MOV      r0,r4
        0x000014ae:    bd10        ..      POP      {r4,pc}
    $d
        0x000014b0:    50000100    ...P    DCD    1342177536
    $t
    i.EEPROMread_Hous
    EEPROMread_Hous
        0x000014b4:    b510        ..      PUSH     {r4,lr}
        0x000014b6:    f000fed1    ....    BL       SYS_UnlockReg ; 0x225c
        0x000014ba:    f7fffef7    ....    BL       DF_ReadHour ; 0x12ac
        0x000014be:    4906        .I      LDR      r1,[pc,#24] ; [0x14d8] = 0x20000030
        0x000014c0:    4a06        .J      LDR      r2,[pc,#24] ; [0x14dc] = 0x1869f
        0x000014c2:    2400        .$      MOVS     r4,#0
        0x000014c4:    6748        Hg      STR      r0,[r1,#0x74]
        0x000014c6:    4290        .B      CMP      r0,r2
        0x000014c8:    d903        ..      BLS      0x14d2 ; EEPROMread_Hous + 30
        0x000014ca:    2000        .       MOVS     r0,#0
        0x000014cc:    674c        Lg      STR      r4,[r1,#0x74]
        0x000014ce:    f7ffff89    ....    BL       DF_WriteHour ; 0x13e4
        0x000014d2:    4803        .H      LDR      r0,[pc,#12] ; [0x14e0] = 0x50000100
        0x000014d4:    6004        .`      STR      r4,[r0,#0]
        0x000014d6:    bd10        ..      POP      {r4,pc}
    $d
        0x000014d8:    20000030    0..     DCD    536870960
        0x000014dc:    0001869f    ....    DCD    99999
        0x000014e0:    50000100    ...P    DCD    1342177536
    $t
    i.EEPROMread_boundstate
    EEPROMread_boundstate
        0x000014e4:    b510        ..      PUSH     {r4,lr}
        0x000014e6:    f000feb9    ....    BL       SYS_UnlockReg ; 0x225c
        0x000014ea:    f7ffff17    ....    BL       DF_Readboundstate ; 0x131c
        0x000014ee:    4a02        .J      LDR      r2,[pc,#8] ; [0x14f8] = 0x50000100
        0x000014f0:    2100        .!      MOVS     r1,#0
        0x000014f2:    6011        .`      STR      r1,[r2,#0]
        0x000014f4:    bd10        ..      POP      {r4,pc}
    $d
        0x000014f6:    0000        ..      DCW    0
        0x000014f8:    50000100    ...P    DCD    1342177536
    $t
    i.EEPROMread_ccidFlag
    EEPROMread_ccidFlag
        0x000014fc:    b510        ..      PUSH     {r4,lr}
        0x000014fe:    f000fead    ....    BL       SYS_UnlockReg ; 0x225c
        0x00001502:    f7ffff27    ..'.    BL       DF_ReadccidFlag ; 0x1354
        0x00001506:    4a02        .J      LDR      r2,[pc,#8] ; [0x1510] = 0x50000100
        0x00001508:    2100        .!      MOVS     r1,#0
        0x0000150a:    6011        .`      STR      r1,[r2,#0]
        0x0000150c:    bd10        ..      POP      {r4,pc}
    $d
        0x0000150e:    0000        ..      DCW    0
        0x00001510:    50000100    ...P    DCD    1342177536
    $t
    i.EEPROMwrite_CCIDNumber
    EEPROMwrite_CCIDNumber
        0x00001514:    b510        ..      PUSH     {r4,lr}
        0x00001516:    4604        .F      MOV      r4,r0
        0x00001518:    f000fea0    ....    BL       SYS_UnlockReg ; 0x225c
        0x0000151c:    4620         F      MOV      r0,r4
        0x0000151e:    f7ffff45    ..E.    BL       DF_WriteCCIDNumber ; 0x13ac
        0x00001522:    4902        .I      LDR      r1,[pc,#8] ; [0x152c] = 0x50000100
        0x00001524:    2000        .       MOVS     r0,#0
        0x00001526:    6008        .`      STR      r0,[r1,#0]
        0x00001528:    bd10        ..      POP      {r4,pc}
    $d
        0x0000152a:    0000        ..      DCW    0
        0x0000152c:    50000100    ...P    DCD    1342177536
    $t
    i.EEPROMwrite_Hours
    EEPROMwrite_Hours
        0x00001530:    b510        ..      PUSH     {r4,lr}
        0x00001532:    f000fe93    ....    BL       SYS_UnlockReg ; 0x225c
        0x00001536:    4804        .H      LDR      r0,[pc,#16] ; [0x1548] = 0x20000030
        0x00001538:    6f40        @o      LDR      r0,[r0,#0x74]
        0x0000153a:    f7ffff53    ..S.    BL       DF_WriteHour ; 0x13e4
        0x0000153e:    4903        .I      LDR      r1,[pc,#12] ; [0x154c] = 0x50000100
        0x00001540:    2000        .       MOVS     r0,#0
        0x00001542:    6008        .`      STR      r0,[r1,#0]
        0x00001544:    bd10        ..      POP      {r4,pc}
    $d
        0x00001546:    0000        ..      DCW    0
        0x00001548:    20000030    0..     DCD    536870960
        0x0000154c:    50000100    ...P    DCD    1342177536
    $t
    i.EEPROMwrite_ccidFlag
    EEPROMwrite_ccidFlag
        0x00001550:    b510        ..      PUSH     {r4,lr}
        0x00001552:    4604        .F      MOV      r4,r0
        0x00001554:    f000fe82    ....    BL       SYS_UnlockReg ; 0x225c
        0x00001558:    4620         F      MOV      r0,r4
        0x0000155a:    f7ffff67    ..g.    BL       DF_WriteccidFlag ; 0x142c
        0x0000155e:    4902        .I      LDR      r1,[pc,#8] ; [0x1568] = 0x50000100
        0x00001560:    2000        .       MOVS     r0,#0
        0x00001562:    6008        .`      STR      r0,[r1,#0]
        0x00001564:    bd10        ..      POP      {r4,pc}
    $d
        0x00001566:    0000        ..      DCW    0
        0x00001568:    50000100    ...P    DCD    1342177536
    $t
    i.EINT0_IRQHandler
    EINT0_IRQHandler
        0x0000156c:    2001        .       MOVS     r0,#1
        0x0000156e:    4905        .I      LDR      r1,[pc,#20] ; [0x1584] = 0x50004040
        0x00001570:    0380        ..      LSLS     r0,r0,#14
        0x00001572:    6208        .b      STR      r0,[r1,#0x20]
        0x00001574:    4804        .H      LDR      r0,[pc,#16] ; [0x1588] = 0x50004240
        0x00001576:    6b80        .k      LDR      r0,[r0,#0x38]
        0x00001578:    2800        .(      CMP      r0,#0
        0x0000157a:    d101        ..      BNE      0x1580 ; EINT0_IRQHandler + 20
        0x0000157c:    4903        .I      LDR      r1,[pc,#12] ; [0x158c] = 0x20000030
        0x0000157e:    7188        .q      STRB     r0,[r1,#6]
        0x00001580:    4770        pG      BX       lr
    $d
        0x00001582:    0000        ..      DCW    0
        0x00001584:    50004040    @@.P    DCD    1342193728
        0x00001588:    50004240    @B.P    DCD    1342194240
        0x0000158c:    20000030    0..     DCD    536870960
    $t
    i.FrameLengthToASC
    FrameLengthToASC
        0x00001590:    b40f        ..      PUSH     {r0-r3}
        0x00001592:    b570        p.      PUSH     {r4-r6,lr}
        0x00001594:    ac04        ..      ADD      r4,sp,#0x10
        0x00001596:    4620         F      MOV      r0,r4
        0x00001598:    f7fefe94    ....    BL       strlen ; 0x2c4
        0x0000159c:    4605        .F      MOV      r5,r0
        0x0000159e:    1ce0        ..      ADDS     r0,r4,#3
        0x000015a0:    f7fefe90    ....    BL       strlen ; 0x2c4
        0x000015a4:    182d        -.      ADDS     r5,r5,r0
        0x000015a6:    4620         F      MOV      r0,r4
        0x000015a8:    3012        .0      ADDS     r0,r0,#0x12
        0x000015aa:    f7fefe8b    ....    BL       strlen ; 0x2c4
        0x000015ae:    182d        -.      ADDS     r5,r5,r0
        0x000015b0:    4620         F      MOV      r0,r4
        0x000015b2:    3060        `0      ADDS     r0,r0,#0x60
        0x000015b4:    f7fefe86    ....    BL       strlen ; 0x2c4
        0x000015b8:    182d        -.      ADDS     r5,r5,r0
        0x000015ba:    4620         F      MOV      r0,r4
        0x000015bc:    3067        g0      ADDS     r0,r0,#0x67
        0x000015be:    f7fefe81    ....    BL       strlen ; 0x2c4
        0x000015c2:    182d        -.      ADDS     r5,r5,r0
        0x000015c4:    4620         F      MOV      r0,r4
        0x000015c6:    1c6d        m.      ADDS     r5,r5,#1
        0x000015c8:    306e        n0      ADDS     r0,r0,#0x6e
        0x000015ca:    f7fefe7b    ..{.    BL       strlen ; 0x2c4
        0x000015ce:    4606        .F      MOV      r6,r0
        0x000015d0:    4620         F      MOV      r0,r4
        0x000015d2:    3075        u0      ADDS     r0,r0,#0x75
        0x000015d4:    f7fefe76    ..v.    BL       strlen ; 0x2c4
        0x000015d8:    1836        6.      ADDS     r6,r6,r0
        0x000015da:    4620         F      MOV      r0,r4
        0x000015dc:    307c        |0      ADDS     r0,r0,#0x7c
        0x000015de:    f7fefe71    ..q.    BL       strlen ; 0x2c4
        0x000015e2:    1830        0.      ADDS     r0,r6,r0
        0x000015e4:    1945        E.      ADDS     r5,r0,r5
        0x000015e6:    4620         F      MOV      r0,r4
        0x000015e8:    3086        .0      ADDS     r0,r0,#0x86
        0x000015ea:    f7fefe6b    ..k.    BL       strlen ; 0x2c4
        0x000015ee:    1940        @.      ADDS     r0,r0,r5
        0x000015f0:    300f        .0      ADDS     r0,r0,#0xf
        0x000015f2:    b2c5        ..      UXTB     r5,r0
        0x000015f4:    217d        }!      MOVS     r1,#0x7d
        0x000015f6:    00c9        ..      LSLS     r1,r1,#3
        0x000015f8:    4628        (F      MOV      r0,r5
        0x000015fa:    f7fefd91    ....    BL       __aeabi_uidiv ; 0x120
        0x000015fe:    4608        .F      MOV      r0,r1
        0x00001600:    2164        d!      MOVS     r1,#0x64
        0x00001602:    f7fefd8d    ....    BL       __aeabi_uidiv ; 0x120
        0x00001606:    4c0e        .L      LDR      r4,[pc,#56] ; [0x1640] = 0x20000144
        0x00001608:    3030        00      ADDS     r0,r0,#0x30
        0x0000160a:    7020         p      STRB     r0,[r4,#0]
        0x0000160c:    2164        d!      MOVS     r1,#0x64
        0x0000160e:    4628        (F      MOV      r0,r5
        0x00001610:    f7fefd86    ....    BL       __aeabi_uidiv ; 0x120
        0x00001614:    4608        .F      MOV      r0,r1
        0x00001616:    210a        .!      MOVS     r1,#0xa
        0x00001618:    f7fefd82    ....    BL       __aeabi_uidiv ; 0x120
        0x0000161c:    3030        00      ADDS     r0,r0,#0x30
        0x0000161e:    7060        `p      STRB     r0,[r4,#1]
        0x00001620:    210a        .!      MOVS     r1,#0xa
        0x00001622:    4628        (F      MOV      r0,r5
        0x00001624:    f7fefd7c    ..|.    BL       __aeabi_uidiv ; 0x120
        0x00001628:    3130        01      ADDS     r1,r1,#0x30
        0x0000162a:    70a1        .p      STRB     r1,[r4,#2]
        0x0000162c:    200d        .       MOVS     r0,#0xd
        0x0000162e:    70e0        .p      STRB     r0,[r4,#3]
        0x00001630:    2000        .       MOVS     r0,#0
        0x00001632:    7120         q      STRB     r0,[r4,#4]
        0x00001634:    4620         F      MOV      r0,r4
        0x00001636:    bc70        p.      POP      {r4-r6}
        0x00001638:    bc08        ..      POP      {r3}
        0x0000163a:    b004        ..      ADD      sp,sp,#0x10
        0x0000163c:    4718        .G      BX       r3
    $d
        0x0000163e:    0000        ..      DCW    0
        0x00001640:    20000144    D..     DCD    536871236
    $t
    i.GPAB_IRQHandler
    GPAB_IRQHandler
        0x00001644:    b510        ..      PUSH     {r4,lr}
        0x00001646:    20ff        .       MOVS     r0,#0xff
        0x00001648:    4918        .I      LDR      r1,[pc,#96] ; [0x16ac] = 0x50004040
        0x0000164a:    3001        .0      ADDS     r0,#1
        0x0000164c:    6208        .b      STR      r0,[r1,#0x20]
        0x0000164e:    4818        .H      LDR      r0,[pc,#96] ; [0x16b0] = 0x50004240
        0x00001650:    6a00        .j      LDR      r0,[r0,#0x20]
        0x00001652:    2800        .(      CMP      r0,#0
        0x00001654:    d128        (.      BNE      0x16a8 ; GPAB_IRQHandler + 100
        0x00001656:    4817        .H      LDR      r0,[pc,#92] ; [0x16b4] = 0x20000508
        0x00001658:    6801        .h      LDR      r1,[r0,#0]
        0x0000165a:    1c49        I.      ADDS     r1,r1,#1
        0x0000165c:    6001        .`      STR      r1,[r0,#0]
        0x0000165e:    6880        .h      LDR      r0,[r0,#8]
        0x00001660:    4915        .I      LDR      r1,[pc,#84] ; [0x16b8] = 0xbb8
        0x00001662:    4288        .B      CMP      r0,r1
        0x00001664:    da20         .      BGE      0x16a8 ; GPAB_IRQHandler + 100
        0x00001666:    4915        .I      LDR      r1,[pc,#84] ; [0x16bc] = 0x20000030
        0x00001668:    4b15        .K      LDR      r3,[pc,#84] ; [0x16c0] = 0xf423f
        0x0000166a:    7b48        H{      LDRB     r0,[r1,#0xd]
        0x0000166c:    2200        ."      MOVS     r2,#0
        0x0000166e:    1c40        @.      ADDS     r0,r0,#1
        0x00001670:    b2c0        ..      UXTB     r0,r0
        0x00001672:    7348        Hs      STRB     r0,[r1,#0xd]
        0x00001674:    280c        .(      CMP      r0,#0xc
        0x00001676:    d308        ..      BCC      0x168a ; GPAB_IRQHandler + 70
        0x00001678:    460c        .F      MOV      r4,r1
        0x0000167a:    734a        Js      STRB     r2,[r1,#0xd]
        0x0000167c:    3480        .4      ADDS     r4,r4,#0x80
        0x0000167e:    6820         h      LDR      r0,[r4,#0]
        0x00001680:    1c40        @.      ADDS     r0,r0,#1
        0x00001682:    6020         `      STR      r0,[r4,#0]
        0x00001684:    4298        .B      CMP      r0,r3
        0x00001686:    d300        ..      BCC      0x168a ; GPAB_IRQHandler + 70
        0x00001688:    6022        "`      STR      r2,[r4,#0]
        0x0000168a:    6f88        .o      LDR      r0,[r1,#0x78]
        0x0000168c:    4c0d        .L      LDR      r4,[pc,#52] ; [0x16c4] = 0x2d6c
        0x0000168e:    1c40        @.      ADDS     r0,r0,#1
        0x00001690:    6788        .g      STR      r0,[r1,#0x78]
        0x00001692:    42a0        .B      CMP      r0,r4
        0x00001694:    d308        ..      BCC      0x16a8 ; GPAB_IRQHandler + 100
        0x00001696:    678a        .g      STR      r2,[r1,#0x78]
        0x00001698:    6fc8        .o      LDR      r0,[r1,#0x7c]
        0x0000169a:    2401        .$      MOVS     r4,#1
        0x0000169c:    1c40        @.      ADDS     r0,r0,#1
        0x0000169e:    67c8        .g      STR      r0,[r1,#0x7c]
        0x000016a0:    72cc        .r      STRB     r4,[r1,#0xb]
        0x000016a2:    4298        .B      CMP      r0,r3
        0x000016a4:    d900        ..      BLS      0x16a8 ; GPAB_IRQHandler + 100
        0x000016a6:    67ca        .g      STR      r2,[r1,#0x7c]
        0x000016a8:    bd10        ..      POP      {r4,pc}
    $d
        0x000016aa:    0000        ..      DCW    0
        0x000016ac:    50004040    @@.P    DCD    1342193728
        0x000016b0:    50004240    @B.P    DCD    1342194240
        0x000016b4:    20000508    ...     DCD    536872200
        0x000016b8:    00000bb8    ....    DCD    3000
        0x000016bc:    20000030    0..     DCD    536870960
        0x000016c0:    000f423f    ?B..    DCD    999999
        0x000016c4:    00002d6c    l-..    DCD    11628
    $t
    i.GPIO_EnableInt
    GPIO_EnableInt
        0x000016c8:    b510        ..      PUSH     {r4,lr}
        0x000016ca:    6983        .i      LDR      r3,[r0,#0x18]
        0x000016cc:    0e14        ..      LSRS     r4,r2,#24
        0x000016ce:    408c        .@      LSLS     r4,r4,r1
        0x000016d0:    4323        #C      ORRS     r3,r3,r4
        0x000016d2:    6183        .a      STR      r3,[r0,#0x18]
        0x000016d4:    69c3        .i      LDR      r3,[r0,#0x1c]
        0x000016d6:    0212        ..      LSLS     r2,r2,#8
        0x000016d8:    0a12        ..      LSRS     r2,r2,#8
        0x000016da:    408a        .@      LSLS     r2,r2,r1
        0x000016dc:    4313        .C      ORRS     r3,r3,r2
        0x000016de:    61c3        .a      STR      r3,[r0,#0x1c]
        0x000016e0:    bd10        ..      POP      {r4,pc}
        0x000016e2:    0000        ..      MOVS     r0,r0
    i.GPIO_INIT
    GPIO_INIT
        0x000016e4:    b5f8        ..      PUSH     {r3-r7,lr}
        0x000016e6:    2005        .       MOVS     r0,#5
        0x000016e8:    0700        ..      LSLS     r0,r0,#28
        0x000016ea:    6b40        @k      LDR      r0,[r0,#0x34]
        0x000016ec:    2105        .!      MOVS     r1,#5
        0x000016ee:    0880        ..      LSRS     r0,r0,#2
        0x000016f0:    0080        ..      LSLS     r0,r0,#2
        0x000016f2:    0709        ..      LSLS     r1,r1,#28
        0x000016f4:    6348        Hc      STR      r0,[r1,#0x34]
        0x000016f6:    6b48        Hk      LDR      r0,[r1,#0x34]
        0x000016f8:    2103        .!      MOVS     r1,#3
        0x000016fa:    4308        .C      ORRS     r0,r0,r1
        0x000016fc:    2105        .!      MOVS     r1,#5
        0x000016fe:    0709        ..      LSLS     r1,r1,#28
        0x00001700:    6348        Hc      STR      r0,[r1,#0x34]
        0x00001702:    6b48        Hk      LDR      r0,[r1,#0x34]
        0x00001704:    2130        0!      MOVS     r1,#0x30
        0x00001706:    4388        .C      BICS     r0,r0,r1
        0x00001708:    2105        .!      MOVS     r1,#5
        0x0000170a:    0709        ..      LSLS     r1,r1,#28
        0x0000170c:    6348        Hc      STR      r0,[r1,#0x34]
        0x0000170e:    6b48        Hk      LDR      r0,[r1,#0x34]
        0x00001710:    2130        0!      MOVS     r1,#0x30
        0x00001712:    4308        .C      ORRS     r0,r0,r1
        0x00001714:    2105        .!      MOVS     r1,#5
        0x00001716:    0709        ..      LSLS     r1,r1,#28
        0x00001718:    6348        Hc      STR      r0,[r1,#0x34]
        0x0000171a:    6bc8        .k      LDR      r0,[r1,#0x3c]
        0x0000171c:    2103        .!      MOVS     r1,#3
        0x0000171e:    0389        ..      LSLS     r1,r1,#14
        0x00001720:    4388        .C      BICS     r0,r0,r1
        0x00001722:    2105        .!      MOVS     r1,#5
        0x00001724:    0709        ..      LSLS     r1,r1,#28
        0x00001726:    63c8        .c      STR      r0,[r1,#0x3c]
        0x00001728:    6bc8        .k      LDR      r0,[r1,#0x3c]
        0x0000172a:    2103        .!      MOVS     r1,#3
        0x0000172c:    0389        ..      LSLS     r1,r1,#14
        0x0000172e:    4308        .C      ORRS     r0,r0,r1
        0x00001730:    2105        .!      MOVS     r1,#5
        0x00001732:    0709        ..      LSLS     r1,r1,#28
        0x00001734:    63c8        .c      STR      r0,[r1,#0x3c]
        0x00001736:    6bc8        .k      LDR      r0,[r1,#0x3c]
        0x00001738:    21c0        .!      MOVS     r1,#0xc0
        0x0000173a:    4388        .C      BICS     r0,r0,r1
        0x0000173c:    2105        .!      MOVS     r1,#5
        0x0000173e:    0709        ..      LSLS     r1,r1,#28
        0x00001740:    63c8        .c      STR      r0,[r1,#0x3c]
        0x00001742:    6bc8        .k      LDR      r0,[r1,#0x3c]
        0x00001744:    21c0        .!      MOVS     r1,#0xc0
        0x00001746:    4308        .C      ORRS     r0,r0,r1
        0x00001748:    2105        .!      MOVS     r1,#5
        0x0000174a:    0709        ..      LSLS     r1,r1,#28
        0x0000174c:    63c8        .c      STR      r0,[r1,#0x3c]
        0x0000174e:    2200        ."      MOVS     r2,#0
        0x00001750:    2101        .!      MOVS     r1,#1
        0x00001752:    488b        .H      LDR      r0,[pc,#556] ; [0x1980] = 0x50004000
        0x00001754:    f000f91e    ....    BL       GPIO_SetMode ; 0x1994
        0x00001758:    2200        ."      MOVS     r2,#0
        0x0000175a:    2102        .!      MOVS     r1,#2
        0x0000175c:    4888        .H      LDR      r0,[pc,#544] ; [0x1980] = 0x50004000
        0x0000175e:    f000f919    ....    BL       GPIO_SetMode ; 0x1994
        0x00001762:    2200        ."      MOVS     r2,#0
        0x00001764:    2104        .!      MOVS     r1,#4
        0x00001766:    4886        .H      LDR      r0,[pc,#536] ; [0x1980] = 0x50004000
        0x00001768:    f000f914    ....    BL       GPIO_SetMode ; 0x1994
        0x0000176c:    2203        ."      MOVS     r2,#3
        0x0000176e:    2108        .!      MOVS     r1,#8
        0x00001770:    4883        .H      LDR      r0,[pc,#524] ; [0x1980] = 0x50004000
        0x00001772:    f000f90f    ....    BL       GPIO_SetMode ; 0x1994
        0x00001776:    4d83        .M      LDR      r5,[pc,#524] ; [0x1984] = 0x50004200
        0x00001778:    2400        .$      MOVS     r4,#0
        0x0000177a:    60ec        .`      STR      r4,[r5,#0xc]
        0x0000177c:    2203        ."      MOVS     r2,#3
        0x0000177e:    2110        .!      MOVS     r1,#0x10
        0x00001780:    487f        .H      LDR      r0,[pc,#508] ; [0x1980] = 0x50004000
        0x00001782:    f000f907    ....    BL       GPIO_SetMode ; 0x1994
        0x00001786:    612c        ,a      STR      r4,[r5,#0x10]
        0x00001788:    2200        ."      MOVS     r2,#0
        0x0000178a:    2120         !      MOVS     r1,#0x20
        0x0000178c:    487c        |H      LDR      r0,[pc,#496] ; [0x1980] = 0x50004000
        0x0000178e:    f000f901    ....    BL       GPIO_SetMode ; 0x1994
        0x00001792:    2203        ."      MOVS     r2,#3
        0x00001794:    2140        @!      MOVS     r1,#0x40
        0x00001796:    487a        zH      LDR      r0,[pc,#488] ; [0x1980] = 0x50004000
        0x00001798:    f000f8fc    ....    BL       GPIO_SetMode ; 0x1994
        0x0000179c:    61ac        .a      STR      r4,[r5,#0x18]
        0x0000179e:    2200        ."      MOVS     r2,#0
        0x000017a0:    2180        .!      MOVS     r1,#0x80
        0x000017a2:    4877        wH      LDR      r0,[pc,#476] ; [0x1980] = 0x50004000
        0x000017a4:    f000f8f6    ....    BL       GPIO_SetMode ; 0x1994
        0x000017a8:    21ff        .!      MOVS     r1,#0xff
        0x000017aa:    2203        ."      MOVS     r2,#3
        0x000017ac:    3101        .1      ADDS     r1,#1
        0x000017ae:    4874        tH      LDR      r0,[pc,#464] ; [0x1980] = 0x50004000
        0x000017b0:    f000f8f0    ....    BL       GPIO_SetMode ; 0x1994
        0x000017b4:    622c        ,b      STR      r4,[r5,#0x20]
        0x000017b6:    2101        .!      MOVS     r1,#1
        0x000017b8:    2200        ."      MOVS     r2,#0
        0x000017ba:    0249        I.      LSLS     r1,r1,#9
        0x000017bc:    4870        pH      LDR      r0,[pc,#448] ; [0x1980] = 0x50004000
        0x000017be:    f000f8e9    ....    BL       GPIO_SetMode ; 0x1994
        0x000017c2:    2201        ."      MOVS     r2,#1
        0x000017c4:    0291        ..      LSLS     r1,r2,#10
        0x000017c6:    486e        nH      LDR      r0,[pc,#440] ; [0x1980] = 0x50004000
        0x000017c8:    f000f8e4    ....    BL       GPIO_SetMode ; 0x1994
        0x000017cc:    62ac        .b      STR      r4,[r5,#0x28]
        0x000017ce:    2101        .!      MOVS     r1,#1
        0x000017d0:    2200        ."      MOVS     r2,#0
        0x000017d2:    02c9        ..      LSLS     r1,r1,#11
        0x000017d4:    486a        jH      LDR      r0,[pc,#424] ; [0x1980] = 0x50004000
        0x000017d6:    f000f8dd    ....    BL       GPIO_SetMode ; 0x1994
        0x000017da:    2101        .!      MOVS     r1,#1
        0x000017dc:    2203        ."      MOVS     r2,#3
        0x000017de:    0309        ..      LSLS     r1,r1,#12
        0x000017e0:    4867        gH      LDR      r0,[pc,#412] ; [0x1980] = 0x50004000
        0x000017e2:    f000f8d7    ....    BL       GPIO_SetMode ; 0x1994
        0x000017e6:    2601        .&      MOVS     r6,#1
        0x000017e8:    632e        .c      STR      r6,[r5,#0x30]
        0x000017ea:    2203        ."      MOVS     r2,#3
        0x000017ec:    0371        q.      LSLS     r1,r6,#13
        0x000017ee:    4864        dH      LDR      r0,[pc,#400] ; [0x1980] = 0x50004000
        0x000017f0:    f000f8d0    ....    BL       GPIO_SetMode ; 0x1994
        0x000017f4:    636e        nc      STR      r6,[r5,#0x34]
        0x000017f6:    2200        ."      MOVS     r2,#0
        0x000017f8:    03b1        ..      LSLS     r1,r6,#14
        0x000017fa:    4861        aH      LDR      r0,[pc,#388] ; [0x1980] = 0x50004000
        0x000017fc:    f000f8ca    ....    BL       GPIO_SetMode ; 0x1994
        0x00001800:    2201        ."      MOVS     r2,#1
        0x00001802:    03d1        ..      LSLS     r1,r2,#15
        0x00001804:    485e        ^H      LDR      r0,[pc,#376] ; [0x1980] = 0x50004000
        0x00001806:    f000f8c5    ....    BL       GPIO_SetMode ; 0x1994
        0x0000180a:    63ec        .c      STR      r4,[r5,#0x3c]
        0x0000180c:    4f5c        \O      LDR      r7,[pc,#368] ; [0x1980] = 0x50004000
        0x0000180e:    2200        ."      MOVS     r2,#0
        0x00001810:    3740        @7      ADDS     r7,r7,#0x40
        0x00001812:    2101        .!      MOVS     r1,#1
        0x00001814:    4638        8F      MOV      r0,r7
        0x00001816:    f000f8bd    ....    BL       GPIO_SetMode ; 0x1994
        0x0000181a:    2200        ."      MOVS     r2,#0
        0x0000181c:    2102        .!      MOVS     r1,#2
        0x0000181e:    4638        8F      MOV      r0,r7
        0x00001820:    f000f8b8    ....    BL       GPIO_SetMode ; 0x1994
        0x00001824:    2203        ."      MOVS     r2,#3
        0x00001826:    2104        .!      MOVS     r1,#4
        0x00001828:    4638        8F      MOV      r0,r7
        0x0000182a:    f000f8b3    ....    BL       GPIO_SetMode ; 0x1994
        0x0000182e:    4d55        UM      LDR      r5,[pc,#340] ; [0x1984] = 0x50004200
        0x00001830:    3540        @5      ADDS     r5,r5,#0x40
        0x00001832:    60ac        .`      STR      r4,[r5,#8]
        0x00001834:    2201        ."      MOVS     r2,#1
        0x00001836:    2108        .!      MOVS     r1,#8
        0x00001838:    4638        8F      MOV      r0,r7
        0x0000183a:    f000f8ab    ....    BL       GPIO_SetMode ; 0x1994
        0x0000183e:    60ec        .`      STR      r4,[r5,#0xc]
        0x00001840:    2200        ."      MOVS     r2,#0
        0x00001842:    2140        @!      MOVS     r1,#0x40
        0x00001844:    4638        8F      MOV      r0,r7
        0x00001846:    f000f8a5    ....    BL       GPIO_SetMode ; 0x1994
        0x0000184a:    2200        ."      MOVS     r2,#0
        0x0000184c:    2180        .!      MOVS     r1,#0x80
        0x0000184e:    4638        8F      MOV      r0,r7
        0x00001850:    f000f8a0    ....    BL       GPIO_SetMode ; 0x1994
        0x00001854:    2203        ."      MOVS     r2,#3
        0x00001856:    0271        q.      LSLS     r1,r6,#9
        0x00001858:    4638        8F      MOV      r0,r7
        0x0000185a:    f000f89b    ....    BL       GPIO_SetMode ; 0x1994
        0x0000185e:    626c        lb      STR      r4,[r5,#0x24]
        0x00001860:    2200        ."      MOVS     r2,#0
        0x00001862:    0331        1.      LSLS     r1,r6,#12
        0x00001864:    4638        8F      MOV      r0,r7
        0x00001866:    f000f895    ....    BL       GPIO_SetMode ; 0x1994
        0x0000186a:    4a47        GJ      LDR      r2,[pc,#284] ; [0x1988] = 0x10001
        0x0000186c:    210c        .!      MOVS     r1,#0xc
        0x0000186e:    4638        8F      MOV      r0,r7
        0x00001870:    f7ffff2a    ..*.    BL       GPIO_EnableInt ; 0x16c8
        0x00001874:    4943        CI      LDR      r1,[pc,#268] ; [0x1984] = 0x50004200
        0x00001876:    203a        :       MOVS     r0,#0x3a
        0x00001878:    3980        .9      SUBS     r1,r1,#0x80
        0x0000187a:    6008        .`      STR      r0,[r1,#0]
        0x0000187c:    6978        xi      LDR      r0,[r7,#0x14]
        0x0000187e:    0331        1.      LSLS     r1,r6,#12
        0x00001880:    4308        .C      ORRS     r0,r0,r1
        0x00001882:    6178        xa      STR      r0,[r7,#0x14]
        0x00001884:    2004        .       MOVS     r0,#4
        0x00001886:    f000fbfd    ....    BL       NVIC_EnableIRQ ; 0x2084
        0x0000188a:    2200        ."      MOVS     r2,#0
        0x0000188c:    03b1        ..      LSLS     r1,r6,#14
        0x0000188e:    4638        8F      MOV      r0,r7
        0x00001890:    f000f880    ....    BL       GPIO_SetMode ; 0x1994
        0x00001894:    2203        ."      MOVS     r2,#3
        0x00001896:    03f1        ..      LSLS     r1,r6,#15
        0x00001898:    4638        8F      MOV      r0,r7
        0x0000189a:    f000f87b    ..{.    BL       GPIO_SetMode ; 0x1994
        0x0000189e:    63ec        .c      STR      r4,[r5,#0x3c]
        0x000018a0:    4f37        7O      LDR      r7,[pc,#220] ; [0x1980] = 0x50004000
        0x000018a2:    2203        ."      MOVS     r2,#3
        0x000018a4:    3780        .7      ADDS     r7,r7,#0x80
        0x000018a6:    2101        .!      MOVS     r1,#1
        0x000018a8:    4638        8F      MOV      r0,r7
        0x000018aa:    f000f873    ..s.    BL       GPIO_SetMode ; 0x1994
        0x000018ae:    4d35        5M      LDR      r5,[pc,#212] ; [0x1984] = 0x50004200
        0x000018b0:    3580        .5      ADDS     r5,r5,#0x80
        0x000018b2:    602e        .`      STR      r6,[r5,#0]
        0x000018b4:    2203        ."      MOVS     r2,#3
        0x000018b6:    2102        .!      MOVS     r1,#2
        0x000018b8:    4638        8F      MOV      r0,r7
        0x000018ba:    f000f86b    ..k.    BL       GPIO_SetMode ; 0x1994
        0x000018be:    606e        n`      STR      r6,[r5,#4]
        0x000018c0:    2200        ."      MOVS     r2,#0
        0x000018c2:    2104        .!      MOVS     r1,#4
        0x000018c4:    4638        8F      MOV      r0,r7
        0x000018c6:    f000f865    ..e.    BL       GPIO_SetMode ; 0x1994
        0x000018ca:    2203        ."      MOVS     r2,#3
        0x000018cc:    2108        .!      MOVS     r1,#8
        0x000018ce:    4638        8F      MOV      r0,r7
        0x000018d0:    f000f860    ..`.    BL       GPIO_SetMode ; 0x1994
        0x000018d4:    60ee        .`      STR      r6,[r5,#0xc]
        0x000018d6:    2201        ."      MOVS     r2,#1
        0x000018d8:    2140        @!      MOVS     r1,#0x40
        0x000018da:    4638        8F      MOV      r0,r7
        0x000018dc:    f000f85a    ..Z.    BL       GPIO_SetMode ; 0x1994
        0x000018e0:    61ac        .a      STR      r4,[r5,#0x18]
        0x000018e2:    2203        ."      MOVS     r2,#3
        0x000018e4:    2180        .!      MOVS     r1,#0x80
        0x000018e6:    4638        8F      MOV      r0,r7
        0x000018e8:    f000f854    ..T.    BL       GPIO_SetMode ; 0x1994
        0x000018ec:    61ec        .a      STR      r4,[r5,#0x1c]
        0x000018ee:    2203        ."      MOVS     r2,#3
        0x000018f0:    0231        1.      LSLS     r1,r6,#8
        0x000018f2:    4638        8F      MOV      r0,r7
        0x000018f4:    f000f84e    ..N.    BL       GPIO_SetMode ; 0x1994
        0x000018f8:    622c        ,b      STR      r4,[r5,#0x20]
        0x000018fa:    2203        ."      MOVS     r2,#3
        0x000018fc:    0271        q.      LSLS     r1,r6,#9
        0x000018fe:    4638        8F      MOV      r0,r7
        0x00001900:    f000f848    ..H.    BL       GPIO_SetMode ; 0x1994
        0x00001904:    626c        lb      STR      r4,[r5,#0x24]
        0x00001906:    2203        ."      MOVS     r2,#3
        0x00001908:    02b1        ..      LSLS     r1,r6,#10
        0x0000190a:    4638        8F      MOV      r0,r7
        0x0000190c:    f000f842    ..B.    BL       GPIO_SetMode ; 0x1994
        0x00001910:    62ac        .b      STR      r4,[r5,#0x28]
        0x00001912:    2203        ."      MOVS     r2,#3
        0x00001914:    02f1        ..      LSLS     r1,r6,#11
        0x00001916:    4638        8F      MOV      r0,r7
        0x00001918:    f000f83c    ..<.    BL       GPIO_SetMode ; 0x1994
        0x0000191c:    62ec        .b      STR      r4,[r5,#0x2c]
        0x0000191e:    2203        ."      MOVS     r2,#3
        0x00001920:    03b1        ..      LSLS     r1,r6,#14
        0x00001922:    4638        8F      MOV      r0,r7
        0x00001924:    f000f836    ..6.    BL       GPIO_SetMode ; 0x1994
        0x00001928:    63ac        .c      STR      r4,[r5,#0x38]
        0x0000192a:    2203        ."      MOVS     r2,#3
        0x0000192c:    03f1        ..      LSLS     r1,r6,#15
        0x0000192e:    4638        8F      MOV      r0,r7
        0x00001930:    f000f830    ..0.    BL       GPIO_SetMode ; 0x1994
        0x00001934:    63ec        .c      STR      r4,[r5,#0x3c]
        0x00001936:    2201        ."      MOVS     r2,#1
        0x00001938:    2120         !      MOVS     r1,#0x20
        0x0000193a:    4814        .H      LDR      r0,[pc,#80] ; [0x198c] = 0x50004100
        0x0000193c:    f000f82a    ..*.    BL       GPIO_SetMode ; 0x1994
        0x00001940:    4813        .H      LDR      r0,[pc,#76] ; [0x1990] = 0x50004300
        0x00001942:    6144        Da      STR      r4,[r0,#0x14]
        0x00001944:    4c11        .L      LDR      r4,[pc,#68] ; [0x198c] = 0x50004100
        0x00001946:    2200        ."      MOVS     r2,#0
        0x00001948:    3440        @4      ADDS     r4,r4,#0x40
        0x0000194a:    2110        .!      MOVS     r1,#0x10
        0x0000194c:    4620         F      MOV      r0,r4
        0x0000194e:    f000f821    ..!.    BL       GPIO_SetMode ; 0x1994
        0x00001952:    2200        ."      MOVS     r2,#0
        0x00001954:    2120         !      MOVS     r1,#0x20
        0x00001956:    4620         F      MOV      r0,r4
        0x00001958:    f000f81c    ....    BL       GPIO_SetMode ; 0x1994
        0x0000195c:    4a0a        .J      LDR      r2,[pc,#40] ; [0x1988] = 0x10001
        0x0000195e:    2105        .!      MOVS     r1,#5
        0x00001960:    4620         F      MOV      r0,r4
        0x00001962:    f7fffeb1    ....    BL       GPIO_EnableInt ; 0x16c8
        0x00001966:    6960        `i      LDR      r0,[r4,#0x14]
        0x00001968:    2120         !      MOVS     r1,#0x20
        0x0000196a:    4308        .C      ORRS     r0,r0,r1
        0x0000196c:    6160        `a      STR      r0,[r4,#0x14]
        0x0000196e:    2005        .       MOVS     r0,#5
        0x00001970:    f000fb88    ....    BL       NVIC_EnableIRQ ; 0x2084
        0x00001974:    2200        ."      MOVS     r2,#0
        0x00001976:    0231        1.      LSLS     r1,r6,#8
        0x00001978:    4620         F      MOV      r0,r4
        0x0000197a:    f000f80b    ....    BL       GPIO_SetMode ; 0x1994
        0x0000197e:    bdf8        ..      POP      {r3-r7,pc}
    $d
        0x00001980:    50004000    .@.P    DCD    1342193664
        0x00001984:    50004200    .B.P    DCD    1342194176
        0x00001988:    00010001    ....    DCD    65537
        0x0000198c:    50004100    .A.P    DCD    1342193920
        0x00001990:    50004300    .C.P    DCD    1342194432
    $t
    i.GPIO_SetMode
    GPIO_SetMode
        0x00001994:    b5f0        ..      PUSH     {r4-r7,lr}
        0x00001996:    2300        .#      MOVS     r3,#0
        0x00001998:    2701        .'      MOVS     r7,#1
        0x0000199a:    463c        <F      MOV      r4,r7
        0x0000199c:    409c        .@      LSLS     r4,r4,r3
        0x0000199e:    420c        .B      TST      r4,r1
        0x000019a0:    d008        ..      BEQ      0x19b4 ; GPIO_SetMode + 32
        0x000019a2:    6805        .h      LDR      r5,[r0,#0]
        0x000019a4:    005c        \.      LSLS     r4,r3,#1
        0x000019a6:    2603        .&      MOVS     r6,#3
        0x000019a8:    40a6        .@      LSLS     r6,r6,r4
        0x000019aa:    43b5        .C      BICS     r5,r5,r6
        0x000019ac:    4616        .F      MOV      r6,r2
        0x000019ae:    40a6        .@      LSLS     r6,r6,r4
        0x000019b0:    4335        5C      ORRS     r5,r5,r6
        0x000019b2:    6005        .`      STR      r5,[r0,#0]
        0x000019b4:    1c5b        [.      ADDS     r3,r3,#1
        0x000019b6:    2b10        .+      CMP      r3,#0x10
        0x000019b8:    d3ef        ..      BCC      0x199a ; GPIO_SetMode + 6
        0x000019ba:    bdf0        ..      POP      {r4-r7,pc}
    i.GetFreeIF
    GetFreeIF
        0x000019bc:    6a01        .j      LDR      r1,[r0,#0x20]
        0x000019be:    0409        ..      LSLS     r1,r1,#16
        0x000019c0:    d401        ..      BMI      0x19c6 ; GetFreeIF + 10
        0x000019c2:    2000        .       MOVS     r0,#0
        0x000019c4:    4770        pG      BX       lr
        0x000019c6:    3080        .0      ADDS     r0,r0,#0x80
        0x000019c8:    6800        .h      LDR      r0,[r0,#0]
        0x000019ca:    0400        ..      LSLS     r0,r0,#16
        0x000019cc:    d401        ..      BMI      0x19d2 ; GetFreeIF + 22
        0x000019ce:    2001        .       MOVS     r0,#1
        0x000019d0:    4770        pG      BX       lr
        0x000019d2:    2002        .       MOVS     r0,#2
        0x000019d4:    4770        pG      BX       lr
    i.Get_Data
    Get_Data
        0x000019d6:    b5f8        ..      PUSH     {r3-r7,lr}
        0x000019d8:    460e        .F      MOV      r6,r1
        0x000019da:    4604        .F      MOV      r4,r0
        0x000019dc:    4611        .F      MOV      r1,r2
        0x000019de:    1e55        U.      SUBS     r5,r2,#1
        0x000019e0:    2000        .       MOVS     r0,#0
        0x000019e2:    0092        ..      LSLS     r2,r2,#2
        0x000019e4:    1917        ..      ADDS     r7,r2,r4
        0x000019e6:    e005        ..      B        0x19f4 ; Get_Data + 30
        0x000019e8:    0082        ..      LSLS     r2,r0,#2
        0x000019ea:    1abb        ..      SUBS     r3,r7,r2
        0x000019ec:    3b40        @;      SUBS     r3,r3,#0x40
        0x000019ee:    6b9a        .k      LDR      r2,[r3,#0x38]
        0x000019f0:    1c40        @.      ADDS     r0,r0,#1
        0x000019f2:    63da        .c      STR      r2,[r3,#0x3c]
        0x000019f4:    42a8        .B      CMP      r0,r5
        0x000019f6:    d3f7        ..      BCC      0x19e8 ; Get_Data + 18
        0x000019f8:    2000        .       MOVS     r0,#0
        0x000019fa:    4603        .F      MOV      r3,r0
        0x000019fc:    6026        &`      STR      r6,[r4,#0]
        0x000019fe:    e003        ..      B        0x1a08 ; Get_Data + 50
        0x00001a00:    009a        ..      LSLS     r2,r3,#2
        0x00001a02:    58a2        .X      LDR      r2,[r4,r2]
        0x00001a04:    1810        ..      ADDS     r0,r2,r0
        0x00001a06:    1c5b        [.      ADDS     r3,r3,#1
        0x00001a08:    428b        .B      CMP      r3,r1
        0x00001a0a:    d3f9        ..      BCC      0x1a00 ; Get_Data + 42
        0x00001a0c:    f7fefb88    ....    BL       __aeabi_uidiv ; 0x120
        0x00001a10:    bdf8        ..      POP      {r3-r7,pc}
        0x00001a12:    0000        ..      MOVS     r0,r0
    i.GprsConnectTcp
    GprsConnectTcp
        0x00001a14:    b5f8        ..      PUSH     {r3-r7,lr}
        0x00001a16:    4c65        eL      LDR      r4,[pc,#404] ; [0x1bac] = 0x20000050
        0x00001a18:    2600        .&      MOVS     r6,#0
        0x00001a1a:    79e0        .y      LDRB     r0,[r4,#7]
        0x00001a1c:    4625        %F      MOV      r5,r4
        0x00001a1e:    3520         5      ADDS     r5,r5,#0x20
        0x00001a20:    9000        ..      STR      r0,[sp,#0]
        0x00001a22:    2828        ((      CMP      r0,#0x28
        0x00001a24:    d272        r.      BCS      0x1b0c ; GprsConnectTcp + 248
        0x00001a26:    7a20         z      LDRB     r0,[r4,#8]
        0x00001a28:    4627        'F      MOV      r7,r4
        0x00001a2a:    37e0        .7      ADDS     r7,r7,#0xe0
        0x00001a2c:    2800        .(      CMP      r0,#0
        0x00001a2e:    d10f        ..      BNE      0x1a50 ; GprsConnectTcp + 60
        0x00001a30:    21ff        .!      MOVS     r1,#0xff
        0x00001a32:    312d        -1      ADDS     r1,r1,#0x2d
        0x00001a34:    485e        ^H      LDR      r0,[pc,#376] ; [0x1bb0] = 0x20000b3b
        0x00001a36:    f7fefc23    ..#.    BL       __aeabi_memclr ; 0x280
        0x00001a3a:    836e        n.      STRH     r6,[r5,#0x1a]
        0x00001a3c:    9800        ..      LDR      r0,[sp,#0]
        0x00001a3e:    4639        9F      MOV      r1,r7
        0x00001a40:    0080        ..      LSLS     r0,r0,#2
        0x00001a42:    31b0        .1      ADDS     r1,r1,#0xb0
        0x00001a44:    5808        .X      LDR      r0,[r1,r0]
        0x00001a46:    f000f8c7    ....    BL       GprsSendComm ; 0x1bd8
        0x00001a4a:    2001        .       MOVS     r0,#1
        0x00001a4c:    7220         r      STRB     r0,[r4,#8]
        0x00001a4e:    613e        >a      STR      r6,[r7,#0x10]
        0x00001a50:    79e0        .y      LDRB     r0,[r4,#7]
        0x00001a52:    4958        XI      LDR      r1,[pc,#352] ; [0x1bb4] = 0x20000208
        0x00001a54:    2803        .(      CMP      r0,#3
        0x00001a56:    d06a        j.      BEQ      0x1b2e ; GprsConnectTcp + 282
        0x00001a58:    0080        ..      LSLS     r0,r0,#2
        0x00001a5a:    5809        .X      LDR      r1,[r1,r0]
        0x00001a5c:    4854        TH      LDR      r0,[pc,#336] ; [0x1bb0] = 0x20000b3b
        0x00001a5e:    f7fefc1b    ....    BL       strstr ; 0x298
        0x00001a62:    2800        .(      CMP      r0,#0
        0x00001a64:    d007        ..      BEQ      0x1a76 ; GprsConnectTcp + 98
        0x00001a66:    2001        .       MOVS     r0,#1
        0x00001a68:    f7fffd0c    ....    BL       Delay_Ms ; 0x1484
        0x00001a6c:    7226        &r      STRB     r6,[r4,#8]
        0x00001a6e:    79e0        .y      LDRB     r0,[r4,#7]
        0x00001a70:    2807        .(      CMP      r0,#7
        0x00001a72:    d010        ..      BEQ      0x1a96 ; GprsConnectTcp + 130
        0x00001a74:    e034        4.      B        0x1ae0 ; GprsConnectTcp + 204
        0x00001a76:    207d        }       MOVS     r0,#0x7d
        0x00001a78:    6939        9i      LDR      r1,[r7,#0x10]
        0x00001a7a:    00c0        ..      LSLS     r0,r0,#3
        0x00001a7c:    4281        .B      CMP      r1,r0
        0x00001a7e:    d378        x.      BCC      0x1b72 ; GprsConnectTcp + 350
        0x00001a80:    21ff        .!      MOVS     r1,#0xff
        0x00001a82:    312d        -1      ADDS     r1,r1,#0x2d
        0x00001a84:    484a        JH      LDR      r0,[pc,#296] ; [0x1bb0] = 0x20000b3b
        0x00001a86:    613e        >a      STR      r6,[r7,#0x10]
        0x00001a88:    f7fefbfa    ....    BL       __aeabi_memclr ; 0x280
        0x00001a8c:    836e        n.      STRH     r6,[r5,#0x1a]
        0x00001a8e:    200a        .       MOVS     r0,#0xa
        0x00001a90:    f7fffcf8    ....    BL       Delay_Ms ; 0x1484
        0x00001a94:    e07a        z.      B        0x1b8c ; GprsConnectTcp + 376
        0x00001a96:    a148        H.      ADR      r1,{pc}+0x122 ; 0x1bb8
        0x00001a98:    4845        EH      LDR      r0,[pc,#276] ; [0x1bb0] = 0x20000b3b
        0x00001a9a:    f7fefbfd    ....    BL       strstr ; 0x298
        0x00001a9e:    2800        .(      CMP      r0,#0
        0x00001aa0:    d01e        ..      BEQ      0x1ae0 ; GprsConnectTcp + 204
        0x00001aa2:    4a43        CJ      LDR      r2,[pc,#268] ; [0x1bb0] = 0x20000b3b
        0x00001aa4:    2100        .!      MOVS     r1,#0
        0x00001aa6:    3a14        .:      SUBS     r2,r2,#0x14
        0x00001aa8:    7a83        .z      LDRB     r3,[r0,#0xa]
        0x00001aaa:    5453        ST      STRB     r3,[r2,r1]
        0x00001aac:    1c49        I.      ADDS     r1,r1,#1
        0x00001aae:    1c40        @.      ADDS     r0,r0,#1
        0x00001ab0:    b2c9        ..      UXTB     r1,r1
        0x00001ab2:    2914        .)      CMP      r1,#0x14
        0x00001ab4:    d3f8        ..      BCC      0x1aa8 ; GprsConnectTcp + 148
        0x00001ab6:    f7fffd21    ..!.    BL       EEPROMread_ccidFlag ; 0x14fc
        0x00001aba:    4f3c        <O      LDR      r7,[pc,#240] ; [0x1bac] = 0x20000050
        0x00001abc:    3760        `7      ADDS     r7,r7,#0x60
        0x00001abe:    64f8        .d      STR      r0,[r7,#0x4c]
        0x00001ac0:    483f        ?H      LDR      r0,[pc,#252] ; [0x1bc0] = 0x20000c68
        0x00001ac2:    f7fffce9    ....    BL       EEPROMread_CCIDNumber ; 0x1498
        0x00001ac6:    6cf8        .l      LDR      r0,[r7,#0x4c]
        0x00001ac8:    2800        .(      CMP      r0,#0
        0x00001aca:    d020         .      BEQ      0x1b0e ; GprsConnectTcp + 250
        0x00001acc:    4938        8I      LDR      r1,[pc,#224] ; [0x1bb0] = 0x20000b3b
        0x00001ace:    2214        ."      MOVS     r2,#0x14
        0x00001ad0:    3914        .9      SUBS     r1,r1,#0x14
        0x00001ad2:    483b        ;H      LDR      r0,[pc,#236] ; [0x1bc0] = 0x20000c68
        0x00001ad4:    f7fefbfe    ....    BL       memcmp ; 0x2d4
        0x00001ad8:    2800        .(      CMP      r0,#0
        0x00001ada:    d026        &.      BEQ      0x1b2a ; GprsConnectTcp + 278
        0x00001adc:    2001        .       MOVS     r0,#1
        0x00001ade:    73e0        .s      STRB     r0,[r4,#0xf]
        0x00001ae0:    21ff        .!      MOVS     r1,#0xff
        0x00001ae2:    312d        -1      ADDS     r1,r1,#0x2d
        0x00001ae4:    4832        2H      LDR      r0,[pc,#200] ; [0x1bb0] = 0x20000b3b
        0x00001ae6:    f7fefbcb    ....    BL       __aeabi_memclr ; 0x280
        0x00001aea:    836e        n.      STRH     r6,[r5,#0x1a]
        0x00001aec:    200a        .       MOVS     r0,#0xa
        0x00001aee:    f7fffcc9    ....    BL       Delay_Ms ; 0x1484
        0x00001af2:    79e0        .y      LDRB     r0,[r4,#7]
        0x00001af4:    1c40        @.      ADDS     r0,r0,#1
        0x00001af6:    b2c0        ..      UXTB     r0,r0
        0x00001af8:    71e0        .q      STRB     r0,[r4,#7]
        0x00001afa:    2809        .(      CMP      r0,#9
        0x00001afc:    d34a        J.      BCC      0x1b94 ; GprsConnectTcp + 384
        0x00001afe:    482b        +H      LDR      r0,[pc,#172] ; [0x1bac] = 0x20000050
        0x00001b00:    7226        &r      STRB     r6,[r4,#8]
        0x00001b02:    3060        `0      ADDS     r0,r0,#0x60
        0x00001b04:    6186        .a      STR      r6,[r0,#0x18]
        0x00001b06:    2001        .       MOVS     r0,#1
        0x00001b08:    7120         q      STRB     r0,[r4,#4]
        0x00001b0a:    e030        0.      B        0x1b6e ; GprsConnectTcp + 346
        0x00001b0c:    e046        F.      B        0x1b9c ; GprsConnectTcp + 392
        0x00001b0e:    2001        .       MOVS     r0,#1
        0x00001b10:    64f8        .d      STR      r0,[r7,#0x4c]
        0x00001b12:    f7fffd1d    ....    BL       EEPROMwrite_ccidFlag ; 0x1550
        0x00001b16:    4926        &I      LDR      r1,[pc,#152] ; [0x1bb0] = 0x20000b3b
        0x00001b18:    2214        ."      MOVS     r2,#0x14
        0x00001b1a:    3914        .9      SUBS     r1,r1,#0x14
        0x00001b1c:    4828        (H      LDR      r0,[pc,#160] ; [0x1bc0] = 0x20000c68
        0x00001b1e:    f7fefb96    ....    BL       __aeabi_memcpy ; 0x24e
        0x00001b22:    4827        'H      LDR      r0,[pc,#156] ; [0x1bc0] = 0x20000c68
        0x00001b24:    f7fffcf6    ....    BL       EEPROMwrite_CCIDNumber ; 0x1514
        0x00001b28:    e7da        ..      B        0x1ae0 ; GprsConnectTcp + 204
        0x00001b2a:    73e6        .s      STRB     r6,[r4,#0xf]
        0x00001b2c:    e7d8        ..      B        0x1ae0 ; GprsConnectTcp + 204
        0x00001b2e:    68c9        .h      LDR      r1,[r1,#0xc]
        0x00001b30:    481f        .H      LDR      r0,[pc,#124] ; [0x1bb0] = 0x20000b3b
        0x00001b32:    f7fefbb1    ....    BL       strstr ; 0x298
        0x00001b36:    2800        .(      CMP      r0,#0
        0x00001b38:    d105        ..      BNE      0x1b46 ; GprsConnectTcp + 306
        0x00001b3a:    a122        ".      ADR      r1,{pc}+0x8a ; 0x1bc4
        0x00001b3c:    481c        .H      LDR      r0,[pc,#112] ; [0x1bb0] = 0x20000b3b
        0x00001b3e:    f7fefbab    ....    BL       strstr ; 0x298
        0x00001b42:    2800        .(      CMP      r0,#0
        0x00001b44:    d016        ..      BEQ      0x1b74 ; GprsConnectTcp + 352
        0x00001b46:    2001        .       MOVS     r0,#1
        0x00001b48:    f7fffc9c    ....    BL       Delay_Ms ; 0x1484
        0x00001b4c:    21ff        .!      MOVS     r1,#0xff
        0x00001b4e:    7226        &r      STRB     r6,[r4,#8]
        0x00001b50:    312d        -1      ADDS     r1,r1,#0x2d
        0x00001b52:    4817        .H      LDR      r0,[pc,#92] ; [0x1bb0] = 0x20000b3b
        0x00001b54:    f7fefb94    ....    BL       __aeabi_memclr ; 0x280
        0x00001b58:    836e        n.      STRH     r6,[r5,#0x1a]
        0x00001b5a:    79e0        .y      LDRB     r0,[r4,#7]
        0x00001b5c:    1c40        @.      ADDS     r0,r0,#1
        0x00001b5e:    b2c0        ..      UXTB     r0,r0
        0x00001b60:    71e0        .q      STRB     r0,[r4,#7]
        0x00001b62:    2809        .(      CMP      r0,#9
        0x00001b64:    d318        ..      BCC      0x1b98 ; GprsConnectTcp + 388
        0x00001b66:    4811        .H      LDR      r0,[pc,#68] ; [0x1bac] = 0x20000050
        0x00001b68:    3060        `0      ADDS     r0,r0,#0x60
        0x00001b6a:    6186        .a      STR      r6,[r0,#0x18]
        0x00001b6c:    613e        >a      STR      r6,[r7,#0x10]
        0x00001b6e:    2002        .       MOVS     r0,#2
        0x00001b70:    bdf8        ..      POP      {r3-r7,pc}
        0x00001b72:    e00f        ..      B        0x1b94 ; GprsConnectTcp + 384
        0x00001b74:    207d        }       MOVS     r0,#0x7d
        0x00001b76:    6939        9i      LDR      r1,[r7,#0x10]
        0x00001b78:    00c0        ..      LSLS     r0,r0,#3
        0x00001b7a:    4281        .B      CMP      r1,r0
        0x00001b7c:    d30a        ..      BCC      0x1b94 ; GprsConnectTcp + 384
        0x00001b7e:    21ff        .!      MOVS     r1,#0xff
        0x00001b80:    312d        -1      ADDS     r1,r1,#0x2d
        0x00001b82:    480b        .H      LDR      r0,[pc,#44] ; [0x1bb0] = 0x20000b3b
        0x00001b84:    613e        >a      STR      r6,[r7,#0x10]
        0x00001b86:    f7fefb7b    ..{.    BL       __aeabi_memclr ; 0x280
        0x00001b8a:    836e        n.      STRH     r6,[r5,#0x1a]
        0x00001b8c:    71e6        .q      STRB     r6,[r4,#7]
        0x00001b8e:    7226        &r      STRB     r6,[r4,#8]
        0x00001b90:    2000        .       MOVS     r0,#0
        0x00001b92:    e7ed        ..      B        0x1b70 ; GprsConnectTcp + 348
        0x00001b94:    2001        .       MOVS     r0,#1
        0x00001b96:    e7eb        ..      B        0x1b70 ; GprsConnectTcp + 348
        0x00001b98:    613e        >a      STR      r6,[r7,#0x10]
        0x00001b9a:    e7fb        ..      B        0x1b94 ; GprsConnectTcp + 384
        0x00001b9c:    21ff        .!      MOVS     r1,#0xff
        0x00001b9e:    312d        -1      ADDS     r1,r1,#0x2d
        0x00001ba0:    4803        .H      LDR      r0,[pc,#12] ; [0x1bb0] = 0x20000b3b
        0x00001ba2:    f7fefb6d    ..m.    BL       __aeabi_memclr ; 0x280
        0x00001ba6:    836e        n.      STRH     r6,[r5,#0x1a]
        0x00001ba8:    71e6        .q      STRB     r6,[r4,#7]
        0x00001baa:    e7f1        ..      B        0x1b90 ; GprsConnectTcp + 380
    $d
        0x00001bac:    20000050    P..     DCD    536870992
        0x00001bb0:    20000b3b    ;..     DCD    536873787
        0x00001bb4:    20000208    ...     DCD    536871432
        0x00001bb8:    432b5441    AT+C    DCD    1126913089
        0x00001bbc:    00444943    CID.    DCD    4475203
        0x00001bc0:    20000c68    h..     DCD    536874088
        0x00001bc4:    4552432b    +CRE    DCD    1163019051
        0x00001bc8:    30203a47    G: 0    DCD    807418439
        0x00001bcc:    0a0d322c    ,2..    DCD    168636972
        0x00001bd0:    4b4f0a0d    ..OK    DCD    1263471117
        0x00001bd4:    00000a0d    ....    DCD    2573
    $t
    i.GprsSendComm
    GprsSendComm
        0x00001bd8:    b510        ..      PUSH     {r4,lr}
        0x00001bda:    4604        .F      MOV      r4,r0
        0x00001bdc:    e002        ..      B        0x1be4 ; GprsSendComm + 12
        0x00001bde:    1c64        d.      ADDS     r4,r4,#1
        0x00001be0:    f001f830    ..0.    BL       _PutChar_f ; 0x2c44
        0x00001be4:    7820         x      LDRB     r0,[r4,#0]
        0x00001be6:    2800        .(      CMP      r0,#0
        0x00001be8:    d1f9        ..      BNE      0x1bde ; GprsSendComm + 6
        0x00001bea:    bd10        ..      POP      {r4,pc}
    i.GprsSendControlState
    GprsSendControlState
        0x00001bec:    b5f8        ..      PUSH     {r3-r7,lr}
        0x00001bee:    4832        2H      LDR      r0,[pc,#200] ; [0x1cb8] = 0x200005df
        0x00001bf0:    4c32        2L      LDR      r4,[pc,#200] ; [0x1cbc] = 0x20000070
        0x00001bf2:    9000        ..      STR      r0,[sp,#0]
        0x00001bf4:    4832        2H      LDR      r0,[pc,#200] ; [0x1cc0] = 0x20000208
        0x00001bf6:    7861        ax      LDRB     r1,[r4,#1]
        0x00001bf8:    4607        .F      MOV      r7,r0
        0x00001bfa:    4625        %F      MOV      r5,r4
        0x00001bfc:    2600        .&      MOVS     r6,#0
        0x00001bfe:    3fd8        .?      SUBS     r7,r7,#0xd8
        0x00001c00:    3d20         =      SUBS     r5,r5,#0x20
        0x00001c02:    2900        .)      CMP      r1,#0
        0x00001c04:    d013        ..      BEQ      0x1c2e ; GprsSendControlState + 66
        0x00001c06:    6a81        .j      LDR      r1,[r0,#0x28]
        0x00001c08:    482e        .H      LDR      r0,[pc,#184] ; [0x1cc4] = 0x20000b3b
        0x00001c0a:    f7fefb45    ..E.    BL       strstr ; 0x298
        0x00001c0e:    2800        .(      CMP      r0,#0
        0x00001c10:    d03d        =.      BEQ      0x1c8e ; GprsSendControlState + 162
        0x00001c12:    21ff        .!      MOVS     r1,#0xff
        0x00001c14:    312d        -1      ADDS     r1,r1,#0x2d
        0x00001c16:    482b        +H      LDR      r0,[pc,#172] ; [0x1cc4] = 0x20000b3b
        0x00001c18:    f7fefb32    ..2.    BL       __aeabi_memclr ; 0x280
        0x00001c1c:    8366        f.      STRH     r6,[r4,#0x1a]
        0x00001c1e:    7066        fp      STRB     r6,[r4,#1]
        0x00001c20:    4620         F      MOV      r0,r4
        0x00001c22:    7026        &p      STRB     r6,[r4,#0]
        0x00001c24:    3040        @0      ADDS     r0,r0,#0x40
        0x00001c26:    6186        .a      STR      r6,[r0,#0x18]
        0x00001c28:    2004        .       MOVS     r0,#4
        0x00001c2a:    613e        >a      STR      r6,[r7,#0x10]
        0x00001c2c:    bdf8        ..      POP      {r3-r7,pc}
        0x00001c2e:    7821        !x      LDRB     r1,[r4,#0]
        0x00001c30:    2900        .)      CMP      r1,#0
        0x00001c32:    d016        ..      BEQ      0x1c62 ; GprsSendControlState + 118
        0x00001c34:    6a41        Aj      LDR      r1,[r0,#0x24]
        0x00001c36:    4823        #H      LDR      r0,[pc,#140] ; [0x1cc4] = 0x20000b3b
        0x00001c38:    f7fefb2e    ....    BL       strstr ; 0x298
        0x00001c3c:    2800        .(      CMP      r0,#0
        0x00001c3e:    d00c        ..      BEQ      0x1c5a ; GprsSendControlState + 110
        0x00001c40:    2001        .       MOVS     r0,#1
        0x00001c42:    f7fffc1f    ....    BL       Delay_Ms ; 0x1484
        0x00001c46:    9800        ..      LDR      r0,[sp,#0]
        0x00001c48:    f7ffffc6    ....    BL       GprsSendComm ; 0x1bd8
        0x00001c4c:    a01e        ..      ADR      r0,{pc}+0x7c ; 0x1cc8
        0x00001c4e:    f7ffffc3    ....    BL       GprsSendComm ; 0x1bd8
        0x00001c52:    2001        .       MOVS     r0,#1
        0x00001c54:    7060        `p      STRB     r0,[r4,#1]
        0x00001c56:    613e        >a      STR      r6,[r7,#0x10]
        0x00001c58:    e02b        +.      B        0x1cb2 ; GprsSendControlState + 198
        0x00001c5a:    21ff        .!      MOVS     r1,#0xff
        0x00001c5c:    31f5        .1      ADDS     r1,r1,#0xf5
        0x00001c5e:    6938        8i      LDR      r0,[r7,#0x10]
        0x00001c60:    e018        ..      B        0x1c94 ; GprsSendControlState + 168
        0x00001c62:    4817        .H      LDR      r0,[pc,#92] ; [0x1cc0] = 0x20000208
        0x00001c64:    3828        (8      SUBS     r0,r0,#0x28
        0x00001c66:    6a40        @j      LDR      r0,[r0,#0x24]
        0x00001c68:    f7ffffb6    ....    BL       GprsSendComm ; 0x1bd8
        0x00001c6c:    4814        .H      LDR      r0,[pc,#80] ; [0x1cc0] = 0x20000208
        0x00001c6e:    2130        0!      MOVS     r1,#0x30
        0x00001c70:    38c4        .8      SUBS     r0,r0,#0xc4
        0x00001c72:    7001        .p      STRB     r1,[r0,#0]
        0x00001c74:    2134        4!      MOVS     r1,#0x34
        0x00001c76:    7041        Ap      STRB     r1,[r0,#1]
        0x00001c78:    2138        8!      MOVS     r1,#0x38
        0x00001c7a:    7081        .p      STRB     r1,[r0,#2]
        0x00001c7c:    210d        .!      MOVS     r1,#0xd
        0x00001c7e:    70c1        .p      STRB     r1,[r0,#3]
        0x00001c80:    7106        .q      STRB     r6,[r0,#4]
        0x00001c82:    f7ffffa9    ....    BL       GprsSendComm ; 0x1bd8
        0x00001c86:    2001        .       MOVS     r0,#1
        0x00001c88:    613e        >a      STR      r6,[r7,#0x10]
        0x00001c8a:    7020         p      STRB     r0,[r4,#0]
        0x00001c8c:    e011        ..      B        0x1cb2 ; GprsSendControlState + 198
        0x00001c8e:    217d        }!      MOVS     r1,#0x7d
        0x00001c90:    6938        8i      LDR      r0,[r7,#0x10]
        0x00001c92:    00c9        ..      LSLS     r1,r1,#3
        0x00001c94:    4288        .B      CMP      r0,r1
        0x00001c96:    d30c        ..      BCC      0x1cb2 ; GprsSendControlState + 198
        0x00001c98:    21ff        .!      MOVS     r1,#0xff
        0x00001c9a:    312d        -1      ADDS     r1,r1,#0x2d
        0x00001c9c:    4809        .H      LDR      r0,[pc,#36] ; [0x1cc4] = 0x20000b3b
        0x00001c9e:    613e        >a      STR      r6,[r7,#0x10]
        0x00001ca0:    f7fefaee    ....    BL       __aeabi_memclr ; 0x280
        0x00001ca4:    8366        f.      STRH     r6,[r4,#0x1a]
        0x00001ca6:    71ee        .q      STRB     r6,[r5,#7]
        0x00001ca8:    722e        .r      STRB     r6,[r5,#8]
        0x00001caa:    7066        fp      STRB     r6,[r4,#1]
        0x00001cac:    7026        &p      STRB     r6,[r4,#0]
        0x00001cae:    2000        .       MOVS     r0,#0
        0x00001cb0:    bdf8        ..      POP      {r3-r7,pc}
        0x00001cb2:    2003        .       MOVS     r0,#3
        0x00001cb4:    bdf8        ..      POP      {r3-r7,pc}
    $d
        0x00001cb6:    0000        ..      DCW    0
        0x00001cb8:    200005df    ...     DCD    536872415
        0x00001cbc:    20000070    p..     DCD    536871024
        0x00001cc0:    20000208    ...     DCD    536871432
        0x00001cc4:    20000b3b    ;..     DCD    536873787
        0x00001cc8:    0000000d    ....    DCD    13
    $t
    i.GprsSendData
    GprsSendData
        0x00001ccc:    b40f        ..      PUSH     {r0-r3}
        0x00001cce:    b5f0        ..      PUSH     {r4-r7,lr}
        0x00001cd0:    4c49        IL      LDR      r4,[pc,#292] ; [0x1df8] = 0x20000050
        0x00001cd2:    b0a5        ..      SUB      sp,sp,#0x94
        0x00001cd4:    7ee0        .~      LDRB     r0,[r4,#0x1b]
        0x00001cd6:    4626        &F      MOV      r6,r4
        0x00001cd8:    2700        .'      MOVS     r7,#0
        0x00001cda:    3620         6      ADDS     r6,r6,#0x20
        0x00001cdc:    ad2a        *.      ADD      r5,sp,#0xa8
        0x00001cde:    2800        .(      CMP      r0,#0
        0x00001ce0:    d018        ..      BEQ      0x1d14 ; GprsSendData + 72
        0x00001ce2:    a146        F.      ADR      r1,{pc}+0x11a ; 0x1dfc
        0x00001ce4:    4847        GH      LDR      r0,[pc,#284] ; [0x1e04] = 0x20000b3b
        0x00001ce6:    f7fefad7    ....    BL       strstr ; 0x298
        0x00001cea:    2800        .(      CMP      r0,#0
        0x00001cec:    d06e        n.      BEQ      0x1dcc ; GprsSendData + 256
        0x00001cee:    21ff        .!      MOVS     r1,#0xff
        0x00001cf0:    312d        -1      ADDS     r1,r1,#0x2d
        0x00001cf2:    4844        DH      LDR      r0,[pc,#272] ; [0x1e04] = 0x20000b3b
        0x00001cf4:    f7fefac4    ....    BL       __aeabi_memclr ; 0x280
        0x00001cf8:    8377        w.      STRH     r7,[r6,#0x1a]
        0x00001cfa:    76e7        .v      STRB     r7,[r4,#0x1b]
        0x00001cfc:    4620         F      MOV      r0,r4
        0x00001cfe:    76a7        .v      STRB     r7,[r4,#0x1a]
        0x00001d00:    3060        `0      ADDS     r0,r0,#0x60
        0x00001d02:    6187        .a      STR      r7,[r0,#0x18]
        0x00001d04:    3080        .0      ADDS     r0,r0,#0x80
        0x00001d06:    6107        .a      STR      r7,[r0,#0x10]
        0x00001d08:    2004        .       MOVS     r0,#4
        0x00001d0a:    b025        %.      ADD      sp,sp,#0x94
        0x00001d0c:    bcf0        ..      POP      {r4-r7}
        0x00001d0e:    bc08        ..      POP      {r3}
        0x00001d10:    b004        ..      ADD      sp,sp,#0x10
        0x00001d12:    4718        .G      BX       r3
        0x00001d14:    7ea0        .~      LDRB     r0,[r4,#0x1a]
        0x00001d16:    2800        .(      CMP      r0,#0
        0x00001d18:    d042        B.      BEQ      0x1da0 ; GprsSendData + 212
        0x00001d1a:    483b        ;H      LDR      r0,[pc,#236] ; [0x1e08] = 0x20000208
        0x00001d1c:    6a41        Aj      LDR      r1,[r0,#0x24]
        0x00001d1e:    4839        9H      LDR      r0,[pc,#228] ; [0x1e04] = 0x20000b3b
        0x00001d20:    f7fefaba    ....    BL       strstr ; 0x298
        0x00001d24:    2800        .(      CMP      r0,#0
        0x00001d26:    d035        5.      BEQ      0x1d94 ; GprsSendData + 200
        0x00001d28:    4628        (F      MOV      r0,r5
        0x00001d2a:    f7ffff55    ..U.    BL       GprsSendComm ; 0x1bd8
        0x00001d2e:    1ce8        ..      ADDS     r0,r5,#3
        0x00001d30:    f7ffff52    ..R.    BL       GprsSendComm ; 0x1bd8
        0x00001d34:    4628        (F      MOV      r0,r5
        0x00001d36:    3012        .0      ADDS     r0,r0,#0x12
        0x00001d38:    f7ffff4e    ..N.    BL       GprsSendComm ; 0x1bd8
        0x00001d3c:    a033        3.      ADR      r0,{pc}+0xd0 ; 0x1e0c
        0x00001d3e:    f7ffff4b    ..K.    BL       GprsSendComm ; 0x1bd8
        0x00001d42:    4628        (F      MOV      r0,r5
        0x00001d44:    3060        `0      ADDS     r0,r0,#0x60
        0x00001d46:    f7ffff47    ..G.    BL       GprsSendComm ; 0x1bd8
        0x00001d4a:    4628        (F      MOV      r0,r5
        0x00001d4c:    3067        g0      ADDS     r0,r0,#0x67
        0x00001d4e:    f7ffff43    ..C.    BL       GprsSendComm ; 0x1bd8
        0x00001d52:    4628        (F      MOV      r0,r5
        0x00001d54:    306e        n0      ADDS     r0,r0,#0x6e
        0x00001d56:    f7ffff3f    ..?.    BL       GprsSendComm ; 0x1bd8
        0x00001d5a:    4628        (F      MOV      r0,r5
        0x00001d5c:    3075        u0      ADDS     r0,r0,#0x75
        0x00001d5e:    f7ffff3b    ..;.    BL       GprsSendComm ; 0x1bd8
        0x00001d62:    4628        (F      MOV      r0,r5
        0x00001d64:    307c        |0      ADDS     r0,r0,#0x7c
        0x00001d66:    f7ffff37    ..7.    BL       GprsSendComm ; 0x1bd8
        0x00001d6a:    4628        (F      MOV      r0,r5
        0x00001d6c:    3086        .0      ADDS     r0,r0,#0x86
        0x00001d6e:    f7ffff33    ..3.    BL       GprsSendComm ; 0x1bd8
        0x00001d72:    4628        (F      MOV      r0,r5
        0x00001d74:    308e        .0      ADDS     r0,r0,#0x8e
        0x00001d76:    f000f931    ..1.    BL       GprsSendhex ; 0x1fdc
        0x00001d7a:    4628        (F      MOV      r0,r5
        0x00001d7c:    3096        .0      ADDS     r0,r0,#0x96
        0x00001d7e:    f000f92d    ..-.    BL       GprsSendhex ; 0x1fdc
        0x00001d82:    a023        #.      ADR      r0,{pc}+0x8e ; 0x1e10
        0x00001d84:    f7ffff28    ..(.    BL       GprsSendComm ; 0x1bd8
        0x00001d88:    2001        .       MOVS     r0,#1
        0x00001d8a:    76e0        .v      STRB     r0,[r4,#0x1b]
        0x00001d8c:    481e        .H      LDR      r0,[pc,#120] ; [0x1e08] = 0x20000208
        0x00001d8e:    38d8        .8      SUBS     r0,r0,#0xd8
        0x00001d90:    6107        .a      STR      r7,[r0,#0x10]
        0x00001d92:    e02f        /.      B        0x1df4 ; GprsSendData + 296
        0x00001d94:    481c        .H      LDR      r0,[pc,#112] ; [0x1e08] = 0x20000208
        0x00001d96:    22ff        ."      MOVS     r2,#0xff
        0x00001d98:    38d8        .8      SUBS     r0,r0,#0xd8
        0x00001d9a:    32f5        .2      ADDS     r2,r2,#0xf5
        0x00001d9c:    6901        .i      LDR      r1,[r0,#0x10]
        0x00001d9e:    e01a        ..      B        0x1dd6 ; GprsSendData + 266
        0x00001da0:    4819        .H      LDR      r0,[pc,#100] ; [0x1e08] = 0x20000208
        0x00001da2:    3828        (8      SUBS     r0,r0,#0x28
        0x00001da4:    6a40        @j      LDR      r0,[r0,#0x24]
        0x00001da6:    f7ffff17    ....    BL       GprsSendComm ; 0x1bd8
        0x00001daa:    2293        ."      MOVS     r2,#0x93
        0x00001dac:    a92e        ..      ADD      r1,sp,#0xb8
        0x00001dae:    4668        hF      MOV      r0,sp
        0x00001db0:    f7fefa4d    ..M.    BL       __aeabi_memcpy ; 0x24e
        0x00001db4:    a82a        *.      ADD      r0,sp,#0xa8
        0x00001db6:    c80f        ..      LDM      r0,{r0-r3}
        0x00001db8:    f7fffbea    ....    BL       FrameLengthToASC ; 0x1590
        0x00001dbc:    f7ffff0c    ....    BL       GprsSendComm ; 0x1bd8
        0x00001dc0:    4811        .H      LDR      r0,[pc,#68] ; [0x1e08] = 0x20000208
        0x00001dc2:    38d8        .8      SUBS     r0,r0,#0xd8
        0x00001dc4:    6107        .a      STR      r7,[r0,#0x10]
        0x00001dc6:    2001        .       MOVS     r0,#1
        0x00001dc8:    76a0        .v      STRB     r0,[r4,#0x1a]
        0x00001dca:    e013        ..      B        0x1df4 ; GprsSendData + 296
        0x00001dcc:    480e        .H      LDR      r0,[pc,#56] ; [0x1e08] = 0x20000208
        0x00001dce:    227d        }"      MOVS     r2,#0x7d
        0x00001dd0:    38d8        .8      SUBS     r0,r0,#0xd8
        0x00001dd2:    6901        .i      LDR      r1,[r0,#0x10]
        0x00001dd4:    00d2        ..      LSLS     r2,r2,#3
        0x00001dd6:    4291        .B      CMP      r1,r2
        0x00001dd8:    d30c        ..      BCC      0x1df4 ; GprsSendData + 296
        0x00001dda:    21ff        .!      MOVS     r1,#0xff
        0x00001ddc:    6107        .a      STR      r7,[r0,#0x10]
        0x00001dde:    312d        -1      ADDS     r1,r1,#0x2d
        0x00001de0:    4808        .H      LDR      r0,[pc,#32] ; [0x1e04] = 0x20000b3b
        0x00001de2:    f7fefa4d    ..M.    BL       __aeabi_memclr ; 0x280
        0x00001de6:    8377        w.      STRH     r7,[r6,#0x1a]
        0x00001de8:    71e7        .q      STRB     r7,[r4,#7]
        0x00001dea:    7227        'r      STRB     r7,[r4,#8]
        0x00001dec:    76e7        .v      STRB     r7,[r4,#0x1b]
        0x00001dee:    76a7        .v      STRB     r7,[r4,#0x1a]
        0x00001df0:    2000        .       MOVS     r0,#0
        0x00001df2:    e78a        ..      B        0x1d0a ; GprsSendData + 62
        0x00001df4:    2003        .       MOVS     r0,#3
        0x00001df6:    e788        ..      B        0x1d0a ; GprsSendData + 62
    $d
        0x00001df8:    20000050    P..     DCD    536870992
        0x00001dfc:    524e4724    $GNR    DCD    1380861732
        0x00001e00:    0000434d    MC..    DCD    17229
        0x00001e04:    20000b3b    ;..     DCD    536873787
        0x00001e08:    20000208    ...     DCD    536871432
        0x00001e0c:    0000003b    ;...    DCD    59
        0x00001e10:    0000000d    ....    DCD    13
    $t
    i.GprsSendJMRp
    GprsSendJMRp
        0x00001e14:    b40f        ..      PUSH     {r0-r3}
        0x00001e16:    b5f8        ..      PUSH     {r3-r7,lr}
        0x00001e18:    a806        ..      ADD      r0,sp,#0x18
        0x00001e1a:    4c33        3L      LDR      r4,[pc,#204] ; [0x1ee8] = 0x20000050
        0x00001e1c:    9000        ..      STR      r0,[sp,#0]
        0x00001e1e:    4833        3H      LDR      r0,[pc,#204] ; [0x1eec] = 0x20000208
        0x00001e20:    7fe1        ..      LDRB     r1,[r4,#0x1f]
        0x00001e22:    4625        %F      MOV      r5,r4
        0x00001e24:    4607        .F      MOV      r7,r0
        0x00001e26:    2600        .&      MOVS     r6,#0
        0x00001e28:    3520         5      ADDS     r5,r5,#0x20
        0x00001e2a:    3fd8        .?      SUBS     r7,r7,#0xd8
        0x00001e2c:    2900        .)      CMP      r1,#0
        0x00001e2e:    d016        ..      BEQ      0x1e5e ; GprsSendJMRp + 74
        0x00001e30:    6a81        .j      LDR      r1,[r0,#0x28]
        0x00001e32:    482f        /H      LDR      r0,[pc,#188] ; [0x1ef0] = 0x20000b3b
        0x00001e34:    f7fefa30    ..0.    BL       strstr ; 0x298
        0x00001e38:    2800        .(      CMP      r0,#0
        0x00001e3a:    d040        @.      BEQ      0x1ebe ; GprsSendJMRp + 170
        0x00001e3c:    21ff        .!      MOVS     r1,#0xff
        0x00001e3e:    312d        -1      ADDS     r1,r1,#0x2d
        0x00001e40:    482b        +H      LDR      r0,[pc,#172] ; [0x1ef0] = 0x20000b3b
        0x00001e42:    f7fefa1d    ....    BL       __aeabi_memclr ; 0x280
        0x00001e46:    836e        n.      STRH     r6,[r5,#0x1a]
        0x00001e48:    77e6        .w      STRB     r6,[r4,#0x1f]
        0x00001e4a:    4620         F      MOV      r0,r4
        0x00001e4c:    77a6        .w      STRB     r6,[r4,#0x1e]
        0x00001e4e:    3060        `0      ADDS     r0,r0,#0x60
        0x00001e50:    6186        .a      STR      r6,[r0,#0x18]
        0x00001e52:    2004        .       MOVS     r0,#4
        0x00001e54:    613e        >a      STR      r6,[r7,#0x10]
        0x00001e56:    bcf8        ..      POP      {r3-r7}
        0x00001e58:    bc08        ..      POP      {r3}
        0x00001e5a:    b004        ..      ADD      sp,sp,#0x10
        0x00001e5c:    4718        .G      BX       r3
        0x00001e5e:    7fa1        ..      LDRB     r1,[r4,#0x1e]
        0x00001e60:    2900        .)      CMP      r1,#0
        0x00001e62:    d016        ..      BEQ      0x1e92 ; GprsSendJMRp + 126
        0x00001e64:    6a41        Aj      LDR      r1,[r0,#0x24]
        0x00001e66:    4822        "H      LDR      r0,[pc,#136] ; [0x1ef0] = 0x20000b3b
        0x00001e68:    f7fefa16    ....    BL       strstr ; 0x298
        0x00001e6c:    2800        .(      CMP      r0,#0
        0x00001e6e:    d00c        ..      BEQ      0x1e8a ; GprsSendJMRp + 118
        0x00001e70:    2001        .       MOVS     r0,#1
        0x00001e72:    f7fffb07    ....    BL       Delay_Ms ; 0x1484
        0x00001e76:    9800        ..      LDR      r0,[sp,#0]
        0x00001e78:    f7fffeae    ....    BL       GprsSendComm ; 0x1bd8
        0x00001e7c:    a01d        ..      ADR      r0,{pc}+0x78 ; 0x1ef4
        0x00001e7e:    f7fffeab    ....    BL       GprsSendComm ; 0x1bd8
        0x00001e82:    2001        .       MOVS     r0,#1
        0x00001e84:    77e0        .w      STRB     r0,[r4,#0x1f]
        0x00001e86:    613e        >a      STR      r6,[r7,#0x10]
        0x00001e88:    e02b        +.      B        0x1ee2 ; GprsSendJMRp + 206
        0x00001e8a:    21ff        .!      MOVS     r1,#0xff
        0x00001e8c:    31f5        .1      ADDS     r1,r1,#0xf5
        0x00001e8e:    6938        8i      LDR      r0,[r7,#0x10]
        0x00001e90:    e018        ..      B        0x1ec4 ; GprsSendJMRp + 176
        0x00001e92:    4816        .H      LDR      r0,[pc,#88] ; [0x1eec] = 0x20000208
        0x00001e94:    3828        (8      SUBS     r0,r0,#0x28
        0x00001e96:    6a40        @j      LDR      r0,[r0,#0x24]
        0x00001e98:    f7fffe9e    ....    BL       GprsSendComm ; 0x1bd8
        0x00001e9c:    4813        .H      LDR      r0,[pc,#76] ; [0x1eec] = 0x20000208
        0x00001e9e:    2130        0!      MOVS     r1,#0x30
        0x00001ea0:    38c4        .8      SUBS     r0,r0,#0xc4
        0x00001ea2:    7001        .p      STRB     r1,[r0,#0]
        0x00001ea4:    2133        3!      MOVS     r1,#0x33
        0x00001ea6:    7041        Ap      STRB     r1,[r0,#1]
        0x00001ea8:    2138        8!      MOVS     r1,#0x38
        0x00001eaa:    7081        .p      STRB     r1,[r0,#2]
        0x00001eac:    210d        .!      MOVS     r1,#0xd
        0x00001eae:    70c1        .p      STRB     r1,[r0,#3]
        0x00001eb0:    7106        .q      STRB     r6,[r0,#4]
        0x00001eb2:    f7fffe91    ....    BL       GprsSendComm ; 0x1bd8
        0x00001eb6:    2001        .       MOVS     r0,#1
        0x00001eb8:    613e        >a      STR      r6,[r7,#0x10]
        0x00001eba:    77a0        .w      STRB     r0,[r4,#0x1e]
        0x00001ebc:    e011        ..      B        0x1ee2 ; GprsSendJMRp + 206
        0x00001ebe:    217d        }!      MOVS     r1,#0x7d
        0x00001ec0:    6938        8i      LDR      r0,[r7,#0x10]
        0x00001ec2:    00c9        ..      LSLS     r1,r1,#3
        0x00001ec4:    4288        .B      CMP      r0,r1
        0x00001ec6:    d30c        ..      BCC      0x1ee2 ; GprsSendJMRp + 206
        0x00001ec8:    21ff        .!      MOVS     r1,#0xff
        0x00001eca:    312d        -1      ADDS     r1,r1,#0x2d
        0x00001ecc:    4808        .H      LDR      r0,[pc,#32] ; [0x1ef0] = 0x20000b3b
        0x00001ece:    613e        >a      STR      r6,[r7,#0x10]
        0x00001ed0:    f7fef9d6    ....    BL       __aeabi_memclr ; 0x280
        0x00001ed4:    836e        n.      STRH     r6,[r5,#0x1a]
        0x00001ed6:    71e6        .q      STRB     r6,[r4,#7]
        0x00001ed8:    7226        &r      STRB     r6,[r4,#8]
        0x00001eda:    77e6        .w      STRB     r6,[r4,#0x1f]
        0x00001edc:    77a6        .w      STRB     r6,[r4,#0x1e]
        0x00001ede:    2000        .       MOVS     r0,#0
        0x00001ee0:    e7b9        ..      B        0x1e56 ; GprsSendJMRp + 66
        0x00001ee2:    2003        .       MOVS     r0,#3
        0x00001ee4:    e7b7        ..      B        0x1e56 ; GprsSendJMRp + 66
    $d
        0x00001ee6:    0000        ..      DCW    0
        0x00001ee8:    20000050    P..     DCD    536870992
        0x00001eec:    20000208    ...     DCD    536871432
        0x00001ef0:    20000b3b    ;..     DCD    536873787
        0x00001ef4:    0000000d    ....    DCD    13
    $t
    i.GprsSendRp
    GprsSendRp
        0x00001ef8:    b40f        ..      PUSH     {r0-r3}
        0x00001efa:    b5f8        ..      PUSH     {r3-r7,lr}
        0x00001efc:    a806        ..      ADD      r0,sp,#0x18
        0x00001efe:    4c33        3L      LDR      r4,[pc,#204] ; [0x1fcc] = 0x20000050
        0x00001f00:    9000        ..      STR      r0,[sp,#0]
        0x00001f02:    4833        3H      LDR      r0,[pc,#204] ; [0x1fd0] = 0x20000208
        0x00001f04:    7f61        a.      LDRB     r1,[r4,#0x1d]
        0x00001f06:    4625        %F      MOV      r5,r4
        0x00001f08:    4607        .F      MOV      r7,r0
        0x00001f0a:    2600        .&      MOVS     r6,#0
        0x00001f0c:    3520         5      ADDS     r5,r5,#0x20
        0x00001f0e:    3fd8        .?      SUBS     r7,r7,#0xd8
        0x00001f10:    2900        .)      CMP      r1,#0
        0x00001f12:    d016        ..      BEQ      0x1f42 ; GprsSendRp + 74
        0x00001f14:    6a81        .j      LDR      r1,[r0,#0x28]
        0x00001f16:    482f        /H      LDR      r0,[pc,#188] ; [0x1fd4] = 0x20000b3b
        0x00001f18:    f7fef9be    ....    BL       strstr ; 0x298
        0x00001f1c:    2800        .(      CMP      r0,#0
        0x00001f1e:    d040        @.      BEQ      0x1fa2 ; GprsSendRp + 170
        0x00001f20:    21ff        .!      MOVS     r1,#0xff
        0x00001f22:    312d        -1      ADDS     r1,r1,#0x2d
        0x00001f24:    482b        +H      LDR      r0,[pc,#172] ; [0x1fd4] = 0x20000b3b
        0x00001f26:    f7fef9ab    ....    BL       __aeabi_memclr ; 0x280
        0x00001f2a:    836e        n.      STRH     r6,[r5,#0x1a]
        0x00001f2c:    7766        fw      STRB     r6,[r4,#0x1d]
        0x00001f2e:    4620         F      MOV      r0,r4
        0x00001f30:    7726        &w      STRB     r6,[r4,#0x1c]
        0x00001f32:    3060        `0      ADDS     r0,r0,#0x60
        0x00001f34:    6186        .a      STR      r6,[r0,#0x18]
        0x00001f36:    2004        .       MOVS     r0,#4
        0x00001f38:    613e        >a      STR      r6,[r7,#0x10]
        0x00001f3a:    bcf8        ..      POP      {r3-r7}
        0x00001f3c:    bc08        ..      POP      {r3}
        0x00001f3e:    b004        ..      ADD      sp,sp,#0x10
        0x00001f40:    4718        .G      BX       r3
        0x00001f42:    7f21        !.      LDRB     r1,[r4,#0x1c]
        0x00001f44:    2900        .)      CMP      r1,#0
        0x00001f46:    d016        ..      BEQ      0x1f76 ; GprsSendRp + 126
        0x00001f48:    6a41        Aj      LDR      r1,[r0,#0x24]
        0x00001f4a:    4822        "H      LDR      r0,[pc,#136] ; [0x1fd4] = 0x20000b3b
        0x00001f4c:    f7fef9a4    ....    BL       strstr ; 0x298
        0x00001f50:    2800        .(      CMP      r0,#0
        0x00001f52:    d00c        ..      BEQ      0x1f6e ; GprsSendRp + 118
        0x00001f54:    2001        .       MOVS     r0,#1
        0x00001f56:    f7fffa95    ....    BL       Delay_Ms ; 0x1484
        0x00001f5a:    9800        ..      LDR      r0,[sp,#0]
        0x00001f5c:    f7fffe3c    ..<.    BL       GprsSendComm ; 0x1bd8
        0x00001f60:    a01d        ..      ADR      r0,{pc}+0x78 ; 0x1fd8
        0x00001f62:    f7fffe39    ..9.    BL       GprsSendComm ; 0x1bd8
        0x00001f66:    2001        .       MOVS     r0,#1
        0x00001f68:    7760        `w      STRB     r0,[r4,#0x1d]
        0x00001f6a:    613e        >a      STR      r6,[r7,#0x10]
        0x00001f6c:    e02b        +.      B        0x1fc6 ; GprsSendRp + 206
        0x00001f6e:    21ff        .!      MOVS     r1,#0xff
        0x00001f70:    31f5        .1      ADDS     r1,r1,#0xf5
        0x00001f72:    6938        8i      LDR      r0,[r7,#0x10]
        0x00001f74:    e018        ..      B        0x1fa8 ; GprsSendRp + 176
        0x00001f76:    4816        .H      LDR      r0,[pc,#88] ; [0x1fd0] = 0x20000208
        0x00001f78:    3828        (8      SUBS     r0,r0,#0x28
        0x00001f7a:    6a40        @j      LDR      r0,[r0,#0x24]
        0x00001f7c:    f7fffe2c    ..,.    BL       GprsSendComm ; 0x1bd8
        0x00001f80:    4813        .H      LDR      r0,[pc,#76] ; [0x1fd0] = 0x20000208
        0x00001f82:    2130        0!      MOVS     r1,#0x30
        0x00001f84:    38c4        .8      SUBS     r0,r0,#0xc4
        0x00001f86:    7001        .p      STRB     r1,[r0,#0]
        0x00001f88:    2133        3!      MOVS     r1,#0x33
        0x00001f8a:    7041        Ap      STRB     r1,[r0,#1]
        0x00001f8c:    2132        2!      MOVS     r1,#0x32
        0x00001f8e:    7081        .p      STRB     r1,[r0,#2]
        0x00001f90:    210d        .!      MOVS     r1,#0xd
        0x00001f92:    70c1        .p      STRB     r1,[r0,#3]
        0x00001f94:    7106        .q      STRB     r6,[r0,#4]
        0x00001f96:    f7fffe1f    ....    BL       GprsSendComm ; 0x1bd8
        0x00001f9a:    2001        .       MOVS     r0,#1
        0x00001f9c:    613e        >a      STR      r6,[r7,#0x10]
        0x00001f9e:    7720         w      STRB     r0,[r4,#0x1c]
        0x00001fa0:    e011        ..      B        0x1fc6 ; GprsSendRp + 206
        0x00001fa2:    217d        }!      MOVS     r1,#0x7d
        0x00001fa4:    6938        8i      LDR      r0,[r7,#0x10]
        0x00001fa6:    00c9        ..      LSLS     r1,r1,#3
        0x00001fa8:    4288        .B      CMP      r0,r1
        0x00001faa:    d30c        ..      BCC      0x1fc6 ; GprsSendRp + 206
        0x00001fac:    21ff        .!      MOVS     r1,#0xff
        0x00001fae:    312d        -1      ADDS     r1,r1,#0x2d
        0x00001fb0:    4808        .H      LDR      r0,[pc,#32] ; [0x1fd4] = 0x20000b3b
        0x00001fb2:    613e        >a      STR      r6,[r7,#0x10]
        0x00001fb4:    f7fef964    ..d.    BL       __aeabi_memclr ; 0x280
        0x00001fb8:    836e        n.      STRH     r6,[r5,#0x1a]
        0x00001fba:    71e6        .q      STRB     r6,[r4,#7]
        0x00001fbc:    7226        &r      STRB     r6,[r4,#8]
        0x00001fbe:    7766        fw      STRB     r6,[r4,#0x1d]
        0x00001fc0:    7726        &w      STRB     r6,[r4,#0x1c]
        0x00001fc2:    2000        .       MOVS     r0,#0
        0x00001fc4:    e7b9        ..      B        0x1f3a ; GprsSendRp + 66
        0x00001fc6:    2003        .       MOVS     r0,#3
        0x00001fc8:    e7b7        ..      B        0x1f3a ; GprsSendRp + 66
    $d
        0x00001fca:    0000        ..      DCW    0
        0x00001fcc:    20000050    P..     DCD    536870992
        0x00001fd0:    20000208    ...     DCD    536871432
        0x00001fd4:    20000b3b    ;..     DCD    536873787
        0x00001fd8:    0000000d    ....    DCD    13
    $t
    i.GprsSendhex
    GprsSendhex
        0x00001fdc:    b570        p.      PUSH     {r4-r6,lr}
        0x00001fde:    4605        .F      MOV      r5,r0
        0x00001fe0:    2400        .$      MOVS     r4,#0
        0x00001fe2:    7828        (x      LDRB     r0,[r5,#0]
        0x00001fe4:    1c6d        m.      ADDS     r5,r5,#1
        0x00001fe6:    f000fe2d    ..-.    BL       _PutChar_f ; 0x2c44
        0x00001fea:    1c64        d.      ADDS     r4,r4,#1
        0x00001fec:    b2e4        ..      UXTB     r4,r4
        0x00001fee:    2c07        .,      CMP      r4,#7
        0x00001ff0:    d3f7        ..      BCC      0x1fe2 ; GprsSendhex + 6
        0x00001ff2:    bd70        p.      POP      {r4-r6,pc}
    i.NETERROR_SEND
    NETERROR_SEND
        0x00001ff4:    b570        p.      PUSH     {r4-r6,lr}
        0x00001ff6:    4e21        !N      LDR      r6,[pc,#132] ; [0x207c] = 0x20000030
        0x00001ff8:    2500        .%      MOVS     r5,#0
        0x00001ffa:    7a30        0z      LDRB     r0,[r6,#8]
        0x00001ffc:    4634        4F      MOV      r4,r6
        0x00001ffe:    07c1        ..      LSLS     r1,r0,#31
        0x00002000:    3480        .4      ADDS     r4,r4,#0x80
        0x00002002:    69e0        .i      LDR      r0,[r4,#0x1c]
        0x00002004:    3080        .0      ADDS     r0,r0,#0x80
        0x00002006:    2900        .)      CMP      r1,#0
        0x00002008:    d01f        ..      BEQ      0x204a ; NETERROR_SEND + 86
        0x0000200a:    491d        .I      LDR      r1,[pc,#116] ; [0x2080] = 0x2000081c
        0x0000200c:    8809        ..      LDRH     r1,[r1,#0]
        0x0000200e:    6261        ab      STR      r1,[r4,#0x24]
        0x00002010:    2906        .)      CMP      r1,#6
        0x00002012:    d319        ..      BCC      0x2048 ; NETERROR_SEND + 84
        0x00002014:    1e89        ..      SUBS     r1,r1,#2
        0x00002016:    088a        ..      LSRS     r2,r1,#2
        0x00002018:    62a2        .b      STR      r2,[r4,#0x28]
        0x0000201a:    7602        .v      STRB     r2,[r0,#0x18]
        0x0000201c:    7eb1        .~      LDRB     r1,[r6,#0x1a]
        0x0000201e:    1c49        I.      ADDS     r1,r1,#1
        0x00002020:    b2cb        ..      UXTB     r3,r1
        0x00002022:    76b3        .v      STRB     r3,[r6,#0x1a]
        0x00002024:    4293        .B      CMP      r3,r2
        0x00002026:    d80c        ..      BHI      0x2042 ; NETERROR_SEND + 78
        0x00002028:    6ae4        .j      LDR      r4,[r4,#0x2c]
        0x0000202a:    0099        ..      LSLS     r1,r3,#2
        0x0000202c:    1909        ..      ADDS     r1,r1,r4
        0x0000202e:    1ec9        ..      SUBS     r1,r1,#3
        0x00002030:    1df4        ..      ADDS     r4,r6,#7
        0x00002032:    34f9        .4      ADDS     r4,r4,#0xf9
        0x00002034:    60a1        .`      STR      r1,[r4,#8]
        0x00002036:    784c        Lx      LDRB     r4,[r1,#1]
        0x00002038:    7644        Dv      STRB     r4,[r0,#0x19]
        0x0000203a:    788c        .x      LDRB     r4,[r1,#2]
        0x0000203c:    7684        .v      STRB     r4,[r0,#0x1a]
        0x0000203e:    78c9        .x      LDRB     r1,[r1,#3]
        0x00002040:    76c1        .v      STRB     r1,[r0,#0x1b]
        0x00002042:    4293        .B      CMP      r3,r2
        0x00002044:    d100        ..      BNE      0x2048 ; NETERROR_SEND + 84
        0x00002046:    76b5        .v      STRB     r5,[r6,#0x1a]
        0x00002048:    bd70        p.      POP      {r4-r6,pc}
        0x0000204a:    490d        .I      LDR      r1,[pc,#52] ; [0x2080] = 0x2000081c
        0x0000204c:    76b5        .v      STRB     r5,[r6,#0x1a]
        0x0000204e:    3930        09      SUBS     r1,r1,#0x30
        0x00002050:    790a        .y      LDRB     r2,[r1,#4]
        0x00002052:    78cb        .x      LDRB     r3,[r1,#3]
        0x00002054:    0952        R.      LSRS     r2,r2,#5
        0x00002056:    0212        ..      LSLS     r2,r2,#8
        0x00002058:    4313        .C      ORRS     r3,r3,r2
        0x0000205a:    788a        .x      LDRB     r2,[r1,#2]
        0x0000205c:    021b        ..      LSLS     r3,r3,#8
        0x0000205e:    431a        .C      ORRS     r2,r2,r3
        0x00002060:    6622        "f      STR      r2,[r4,#0x60]
        0x00002062:    d002        ..      BEQ      0x206a ; NETERROR_SEND + 118
        0x00002064:    2201        ."      MOVS     r2,#1
        0x00002066:    7602        .v      STRB     r2,[r0,#0x18]
        0x00002068:    e000        ..      B        0x206c ; NETERROR_SEND + 120
        0x0000206a:    7605        .v      STRB     r5,[r0,#0x18]
        0x0000206c:    788a        .x      LDRB     r2,[r1,#2]
        0x0000206e:    7642        Bv      STRB     r2,[r0,#0x19]
        0x00002070:    78ca        .x      LDRB     r2,[r1,#3]
        0x00002072:    7682        .v      STRB     r2,[r0,#0x1a]
        0x00002074:    7909        .y      LDRB     r1,[r1,#4]
        0x00002076:    76c1        .v      STRB     r1,[r0,#0x1b]
        0x00002078:    bd70        p.      POP      {r4-r6,pc}
    $d
        0x0000207a:    0000        ..      DCW    0
        0x0000207c:    20000030    0..     DCD    536870960
        0x00002080:    2000081c    ...     DCD    536872988
    $t
    i.NVIC_EnableIRQ
    NVIC_EnableIRQ
        0x00002084:    06c1        ..      LSLS     r1,r0,#27
        0x00002086:    0ec9        ..      LSRS     r1,r1,#27
        0x00002088:    2001        .       MOVS     r0,#1
        0x0000208a:    4088        .@      LSLS     r0,r0,r1
        0x0000208c:    4901        .I      LDR      r1,[pc,#4] ; [0x2094] = 0xe000e100
        0x0000208e:    6008        .`      STR      r0,[r1,#0]
        0x00002090:    4770        pG      BX       lr
    $d
        0x00002092:    0000        ..      DCW    0
        0x00002094:    e000e100    ....    DCD    3758153984
    $t
    i.NVIC_EnableIRQ
    NVIC_EnableIRQ
        0x00002098:    06c1        ..      LSLS     r1,r0,#27
        0x0000209a:    0ec9        ..      LSRS     r1,r1,#27
        0x0000209c:    2001        .       MOVS     r0,#1
        0x0000209e:    4088        .@      LSLS     r0,r0,r1
        0x000020a0:    4901        .I      LDR      r1,[pc,#4] ; [0x20a8] = 0xe000e100
        0x000020a2:    6008        .`      STR      r0,[r1,#0]
        0x000020a4:    4770        pG      BX       lr
    $d
        0x000020a6:    0000        ..      DCW    0
        0x000020a8:    e000e100    ....    DCD    3758153984
    $t
    i.Read_ADC
    Read_ADC
        0x000020ac:    b570        p.      PUSH     {r4-r6,lr}
        0x000020ae:    2601        .&      MOVS     r6,#1
        0x000020b0:    4633        3F      MOV      r3,r6
        0x000020b2:    4c0a        .L      LDR      r4,[pc,#40] ; [0x20dc] = 0x400e0000
        0x000020b4:    4605        .F      MOV      r5,r0
        0x000020b6:    4083        .@      LSLS     r3,r3,r0
        0x000020b8:    2200        ."      MOVS     r2,#0
        0x000020ba:    4611        .F      MOV      r1,r2
        0x000020bc:    4620         F      MOV      r0,r4
        0x000020be:    f7fef965    ..e.    BL       ADC_Open ; 0x38c
        0x000020c2:    6a20         j      LDR      r0,[r4,#0x20]
        0x000020c4:    02f1        ..      LSLS     r1,r6,#11
        0x000020c6:    4308        .C      ORRS     r0,r0,r1
        0x000020c8:    6220         b      STR      r0,[r4,#0x20]
        0x000020ca:    6b20         k      LDR      r0,[r4,#0x30]
        0x000020cc:    07c0        ..      LSLS     r0,r0,#31
        0x000020ce:    d0fc        ..      BEQ      0x20ca ; Read_ADC + 30
        0x000020d0:    00a8        ..      LSLS     r0,r5,#2
        0x000020d2:    1900        ..      ADDS     r0,r0,r4
        0x000020d4:    6800        .h      LDR      r0,[r0,#0]
        0x000020d6:    6326        &c      STR      r6,[r4,#0x30]
        0x000020d8:    b280        ..      UXTH     r0,r0
        0x000020da:    bd70        p.      POP      {r4-r6,pc}
    $d
        0x000020dc:    400e0000    ...@    DCD    1074659328
    $t
    i.SIMCardChangeAlarmFun
    SIMCardChangeAlarmFun
        0x000020e0:    4802        .H      LDR      r0,[pc,#8] ; [0x20ec] = 0x20000050
        0x000020e2:    7bc0        .{      LDRB     r0,[r0,#0xf]
        0x000020e4:    2801        .(      CMP      r0,#1
        0x000020e6:    d000        ..      BEQ      0x20ea ; SIMCardChangeAlarmFun + 10
        0x000020e8:    2000        .       MOVS     r0,#0
        0x000020ea:    4770        pG      BX       lr
    $d
        0x000020ec:    20000050    P..     DCD    536870992
    $t
    i.SPN_Display
    SPN_Display
        0x000020f0:    b5f0        ..      PUSH     {r4-r7,lr}
        0x000020f2:    4927        'I      LDR      r1,[pc,#156] ; [0x2190] = 0x20000030
        0x000020f4:    4b27        'K      LDR      r3,[pc,#156] ; [0x2194] = 0x200000b0
        0x000020f6:    7a08        .z      LDRB     r0,[r1,#8]
        0x000020f8:    4e27        'N      LDR      r6,[pc,#156] ; [0x2198] = 0x20000130
        0x000020fa:    6edc        .n      LDR      r4,[r3,#0x6c]
        0x000020fc:    07c0        ..      LSLS     r0,r0,#31
        0x000020fe:    d038        8.      BEQ      0x2172 ; SPN_Display + 130
        0x00002100:    4826        &H      LDR      r0,[pc,#152] ; [0x219c] = 0x2000081c
        0x00002102:    8800        ..      LDRH     r0,[r0,#0]
        0x00002104:    6258        Xb      STR      r0,[r3,#0x24]
        0x00002106:    2806        .(      CMP      r0,#6
        0x00002108:    d32c        ,.      BCC      0x2164 ; SPN_Display + 116
        0x0000210a:    1e80        ..      SUBS     r0,r0,#2
        0x0000210c:    0880        ..      LSRS     r0,r0,#2
        0x0000210e:    460a        .F      MOV      r2,r1
        0x00002110:    6298        .b      STR      r0,[r3,#0x28]
        0x00002112:    7e51        Q~      LDRB     r1,[r2,#0x19]
        0x00002114:    4684        .F      MOV      r12,r0
        0x00002116:    1c49        I.      ADDS     r1,r1,#1
        0x00002118:    b2c9        ..      UXTB     r1,r1
        0x0000211a:    7651        Qv      STRB     r1,[r2,#0x19]
        0x0000211c:    4281        .B      CMP      r1,r0
        0x0000211e:    d81c        ..      BHI      0x215a ; SPN_Display + 106
        0x00002120:    6ad8        .j      LDR      r0,[r3,#0x2c]
        0x00002122:    008a        ..      LSLS     r2,r1,#2
        0x00002124:    1810        ..      ADDS     r0,r2,r0
        0x00002126:    1ec0        ..      SUBS     r0,r0,#3
        0x00002128:    6070        p`      STR      r0,[r6,#4]
        0x0000212a:    78c5        .x      LDRB     r5,[r0,#3]
        0x0000212c:    4f1b        .O      LDR      r7,[pc,#108] ; [0x219c] = 0x2000081c
        0x0000212e:    096d        m.      LSRS     r5,r5,#5
        0x00002130:    022d        -.      LSLS     r5,r5,#8
        0x00002132:    378c        .7      ADDS     r7,r7,#0x8c
        0x00002134:    50bd        .P      STR      r5,[r7,r2]
        0x00002136:    7887        .x      LDRB     r7,[r0,#2]
        0x00002138:    433d        =C      ORRS     r5,r5,r7
        0x0000213a:    4f18        .O      LDR      r7,[pc,#96] ; [0x219c] = 0x2000081c
        0x0000213c:    022d        -.      LSLS     r5,r5,#8
        0x0000213e:    378c        .7      ADDS     r7,r7,#0x8c
        0x00002140:    50bd        .P      STR      r5,[r7,r2]
        0x00002142:    7847        Gx      LDRB     r7,[r0,#1]
        0x00002144:    433d        =C      ORRS     r5,r5,r7
        0x00002146:    4f15        .O      LDR      r7,[pc,#84] ; [0x219c] = 0x2000081c
        0x00002148:    378c        .7      ADDS     r7,r7,#0x8c
        0x0000214a:    50bd        .P      STR      r5,[r7,r2]
        0x0000214c:    78c0        .x      LDRB     r0,[r0,#3]
        0x0000214e:    463a        :F      MOV      r2,r7
        0x00002150:    06c0        ..      LSLS     r0,r0,#27
        0x00002152:    0ec0        ..      LSRS     r0,r0,#27
        0x00002154:    3228        (2      ADDS     r2,r2,#0x28
        0x00002156:    5450        PT      STRB     r0,[r2,r1]
        0x00002158:    6035        5`      STR      r5,[r6,#0]
        0x0000215a:    4a0d        .J      LDR      r2,[pc,#52] ; [0x2190] = 0x20000030
        0x0000215c:    4561        aE      CMP      r1,r12
        0x0000215e:    d101        ..      BNE      0x2164 ; SPN_Display + 116
        0x00002160:    2000        .       MOVS     r0,#0
        0x00002162:    7650        Pv      STRB     r0,[r2,#0x19]
        0x00002164:    6830        0h      LDR      r0,[r6,#0]
        0x00002166:    2800        .(      CMP      r0,#0
        0x00002168:    d00d        ..      BEQ      0x2186 ; SPN_Display + 150
        0x0000216a:    2001        .       MOVS     r0,#1
        0x0000216c:    0380        ..      LSLS     r0,r0,#14
        0x0000216e:    4304        .C      ORRS     r4,r4,r0
        0x00002170:    e00c        ..      B        0x218c ; SPN_Display + 156
        0x00002172:    6e18        .n      LDR      r0,[r3,#0x60]
        0x00002174:    2200        ."      MOVS     r2,#0
        0x00002176:    6030        0`      STR      r0,[r6,#0]
        0x00002178:    764a        Jv      STRB     r2,[r1,#0x19]
        0x0000217a:    2800        .(      CMP      r0,#0
        0x0000217c:    d002        ..      BEQ      0x2184 ; SPN_Display + 148
        0x0000217e:    2001        .       MOVS     r0,#1
        0x00002180:    6298        .b      STR      r0,[r3,#0x28]
        0x00002182:    e7f2        ..      B        0x216a ; SPN_Display + 122
        0x00002184:    629a        .b      STR      r2,[r3,#0x28]
        0x00002186:    2001        .       MOVS     r0,#1
        0x00002188:    0380        ..      LSLS     r0,r0,#14
        0x0000218a:    4384        .C      BICS     r4,r4,r0
        0x0000218c:    66dc        .f      STR      r4,[r3,#0x6c]
        0x0000218e:    bdf0        ..      POP      {r4-r7,pc}
    $d
        0x00002190:    20000030    0..     DCD    536870960
        0x00002194:    200000b0    ...     DCD    536871088
        0x00002198:    20000130    0..     DCD    536871216
        0x0000219c:    2000081c    ...     DCD    536872988
    $t
    i.SYS_Init
    SYS_Init
        0x000021a0:    b510        ..      PUSH     {r4,lr}
        0x000021a2:    2004        .       MOVS     r0,#4
        0x000021a4:    f7fefe3c    ..<.    BL       CLK_EnableXtalRC ; 0xe20
        0x000021a8:    2010        .       MOVS     r0,#0x10
        0x000021aa:    f7fefeff    ....    BL       CLK_WaitClockReady ; 0xfac
        0x000021ae:    2100        .!      MOVS     r1,#0
        0x000021b0:    4608        .F      MOV      r0,r1
        0x000021b2:    f7fefea7    ....    BL       CLK_SetHCLK ; 0xf04
        0x000021b6:    2001        .       MOVS     r0,#1
        0x000021b8:    f7fefe32    ..2.    BL       CLK_EnableXtalRC ; 0xe20
        0x000021bc:    2001        .       MOVS     r0,#1
        0x000021be:    f7fefef5    ....    BL       CLK_WaitClockReady ; 0xfac
        0x000021c2:    481b        .H      LDR      r0,[pc,#108] ; [0x2230] = 0x2dc6c00
        0x000021c4:    f7fefe60    ..`.    BL       CLK_SetCoreClock ; 0xe88
        0x000021c8:    242b        +$      MOVS     r4,#0x2b
        0x000021ca:    0664        d.      LSLS     r4,r4,#25
        0x000021cc:    2200        ."      MOVS     r2,#0
        0x000021ce:    2103        .!      MOVS     r1,#3
        0x000021d0:    4620         F      MOV      r0,r4
        0x000021d2:    f7fefebb    ....    BL       CLK_SetModuleClock ; 0xf4c
        0x000021d6:    4620         F      MOV      r0,r4
        0x000021d8:    f7fefd3c    ..<.    BL       CLK_EnableModuleClock ; 0xc54
        0x000021dc:    4c15        .L      LDR      r4,[pc,#84] ; [0x2234] = 0x57803d10
        0x000021de:    4620         F      MOV      r0,r4
        0x000021e0:    f7fefd38    ..8.    BL       CLK_EnableModuleClock ; 0xc54
        0x000021e4:    2200        ."      MOVS     r2,#0
        0x000021e6:    4611        .F      MOV      r1,r2
        0x000021e8:    4620         F      MOV      r0,r4
        0x000021ea:    f7fefeaf    ....    BL       CLK_SetModuleClock ; 0xf4c
        0x000021ee:    1c64        d.      ADDS     r4,r4,#1
        0x000021f0:    4620         F      MOV      r0,r4
        0x000021f2:    f7fefd2f    ../.    BL       CLK_EnableModuleClock ; 0xc54
        0x000021f6:    2200        ."      MOVS     r2,#0
        0x000021f8:    4611        .F      MOV      r1,r2
        0x000021fa:    4620         F      MOV      r0,r4
        0x000021fc:    f7fefea6    ....    BL       CLK_SetModuleClock ; 0xf4c
        0x00002200:    1c64        d.      ADDS     r4,r4,#1
        0x00002202:    4620         F      MOV      r0,r4
        0x00002204:    f7fefd26    ..&.    BL       CLK_EnableModuleClock ; 0xc54
        0x00002208:    2200        ."      MOVS     r2,#0
        0x0000220a:    4611        .F      MOV      r1,r2
        0x0000220c:    4620         F      MOV      r0,r4
        0x0000220e:    f7fefe9d    ....    BL       CLK_SetModuleClock ; 0xf4c
        0x00002212:    4809        .H      LDR      r0,[pc,#36] ; [0x2238] = 0x40000018
        0x00002214:    f7fefd1e    ....    BL       CLK_EnableModuleClock ; 0xc54
        0x00002218:    4c08        .L      LDR      r4,[pc,#32] ; [0x223c] = 0x5623fe1c
        0x0000221a:    4620         F      MOV      r0,r4
        0x0000221c:    f7fefd1a    ....    BL       CLK_EnableModuleClock ; 0xc54
        0x00002220:    2203        ."      MOVS     r2,#3
        0x00002222:    0452        R.      LSLS     r2,r2,#17
        0x00002224:    210c        .!      MOVS     r1,#0xc
        0x00002226:    4620         F      MOV      r0,r4
        0x00002228:    f7fefe90    ....    BL       CLK_SetModuleClock ; 0xf4c
        0x0000222c:    bd10        ..      POP      {r4,pc}
    $d
        0x0000222e:    0000        ..      DCW    0
        0x00002230:    02dc6c00    .l..    DCD    48000000
        0x00002234:    57803d10    .=.W    DCD    1468022032
        0x00002238:    40000018    ...@    DCD    1073741848
        0x0000223c:    5623fe1c    ..#V    DCD    1445199388
    $t
    i.SYS_ResetModule
    SYS_ResetModule
        0x00002240:    2105        .!      MOVS     r1,#5
        0x00002242:    0e02        ..      LSRS     r2,r0,#24
        0x00002244:    0709        ..      LSLS     r1,r1,#28
        0x00002246:    1851        Q.      ADDS     r1,r2,r1
        0x00002248:    688b        .h      LDR      r3,[r1,#8]
        0x0000224a:    2201        ."      MOVS     r2,#1
        0x0000224c:    4082        .@      LSLS     r2,r2,r0
        0x0000224e:    4313        .C      ORRS     r3,r3,r2
        0x00002250:    608b        .`      STR      r3,[r1,#8]
        0x00002252:    6888        .h      LDR      r0,[r1,#8]
        0x00002254:    4390        .C      BICS     r0,r0,r2
        0x00002256:    6088        .`      STR      r0,[r1,#8]
        0x00002258:    4770        pG      BX       lr
        0x0000225a:    0000        ..      MOVS     r0,r0
    i.SYS_UnlockReg
    SYS_UnlockReg
        0x0000225c:    b510        ..      PUSH     {r4,lr}
        0x0000225e:    2159        Y!      MOVS     r1,#0x59
        0x00002260:    2316        .#      MOVS     r3,#0x16
        0x00002262:    4805        .H      LDR      r0,[pc,#20] ; [0x2278] = 0x50000100
        0x00002264:    2288        ."      MOVS     r2,#0x88
        0x00002266:    e002        ..      B        0x226e ; SYS_UnlockReg + 18
        0x00002268:    6001        .`      STR      r1,[r0,#0]
        0x0000226a:    6003        .`      STR      r3,[r0,#0]
        0x0000226c:    6002        .`      STR      r2,[r0,#0]
        0x0000226e:    6804        .h      LDR      r4,[r0,#0]
        0x00002270:    2c01        .,      CMP      r4,#1
        0x00002272:    d1f9        ..      BNE      0x2268 ; SYS_UnlockReg + 12
        0x00002274:    bd10        ..      POP      {r4,pc}
    $d
        0x00002276:    0000        ..      DCW    0
        0x00002278:    50000100    ...P    DCD    1342177536
    $t
    i.Send_changepage
    Send_changepage
        0x0000227c:    b510        ..      PUSH     {r4,lr}
        0x0000227e:    4909        .I      LDR      r1,[pc,#36] ; [0x22a4] = 0x20000a0c
        0x00002280:    225a        Z"      MOVS     r2,#0x5a
        0x00002282:    700a        .p      STRB     r2,[r1,#0]
        0x00002284:    22a5        ."      MOVS     r2,#0xa5
        0x00002286:    704a        Jp      STRB     r2,[r1,#1]
        0x00002288:    2204        ."      MOVS     r2,#4
        0x0000228a:    708a        .p      STRB     r2,[r1,#2]
        0x0000228c:    2280        ."      MOVS     r2,#0x80
        0x0000228e:    70ca        .p      STRB     r2,[r1,#3]
        0x00002290:    2203        ."      MOVS     r2,#3
        0x00002292:    710a        .q      STRB     r2,[r1,#4]
        0x00002294:    0a02        ..      LSRS     r2,r0,#8
        0x00002296:    714a        Jq      STRB     r2,[r1,#5]
        0x00002298:    7188        .q      STRB     r0,[r1,#6]
        0x0000229a:    2107        .!      MOVS     r1,#7
        0x0000229c:    4801        .H      LDR      r0,[pc,#4] ; [0x22a4] = 0x20000a0c
        0x0000229e:    f001fd3f    ..?.    BL       sysPrintf1 ; 0x3d20
        0x000022a2:    bd10        ..      POP      {r4,pc}
    $d
        0x000022a4:    20000a0c    ...     DCD    536873484
    $t
    i.Send_data
    Send_data
        0x000022a8:    b510        ..      PUSH     {r4,lr}
        0x000022aa:    4a0a        .J      LDR      r2,[pc,#40] ; [0x22d4] = 0x20000a0c
        0x000022ac:    235a        Z#      MOVS     r3,#0x5a
        0x000022ae:    7013        .p      STRB     r3,[r2,#0]
        0x000022b0:    23a5        .#      MOVS     r3,#0xa5
        0x000022b2:    7053        Sp      STRB     r3,[r2,#1]
        0x000022b4:    2305        .#      MOVS     r3,#5
        0x000022b6:    7093        .p      STRB     r3,[r2,#2]
        0x000022b8:    2382        .#      MOVS     r3,#0x82
        0x000022ba:    70d3        .p      STRB     r3,[r2,#3]
        0x000022bc:    0a03        ..      LSRS     r3,r0,#8
        0x000022be:    7113        .q      STRB     r3,[r2,#4]
        0x000022c0:    7150        Pq      STRB     r0,[r2,#5]
        0x000022c2:    0a08        ..      LSRS     r0,r1,#8
        0x000022c4:    7190        .q      STRB     r0,[r2,#6]
        0x000022c6:    71d1        .q      STRB     r1,[r2,#7]
        0x000022c8:    2108        .!      MOVS     r1,#8
        0x000022ca:    4610        .F      MOV      r0,r2
        0x000022cc:    f001fd28    ..(.    BL       sysPrintf1 ; 0x3d20
        0x000022d0:    bd10        ..      POP      {r4,pc}
    $d
        0x000022d2:    0000        ..      DCW    0
        0x000022d4:    20000a0c    ...     DCD    536873484
    $t
    i.Send_longdata
    Send_longdata
        0x000022d8:    b510        ..      PUSH     {r4,lr}
        0x000022da:    4a0c        .J      LDR      r2,[pc,#48] ; [0x230c] = 0x20000a0c
        0x000022dc:    235a        Z#      MOVS     r3,#0x5a
        0x000022de:    7013        .p      STRB     r3,[r2,#0]
        0x000022e0:    23a5        .#      MOVS     r3,#0xa5
        0x000022e2:    7053        Sp      STRB     r3,[r2,#1]
        0x000022e4:    2307        .#      MOVS     r3,#7
        0x000022e6:    7093        .p      STRB     r3,[r2,#2]
        0x000022e8:    2382        .#      MOVS     r3,#0x82
        0x000022ea:    70d3        .p      STRB     r3,[r2,#3]
        0x000022ec:    0a03        ..      LSRS     r3,r0,#8
        0x000022ee:    7113        .q      STRB     r3,[r2,#4]
        0x000022f0:    7150        Pq      STRB     r0,[r2,#5]
        0x000022f2:    0e08        ..      LSRS     r0,r1,#24
        0x000022f4:    7190        .q      STRB     r0,[r2,#6]
        0x000022f6:    0c08        ..      LSRS     r0,r1,#16
        0x000022f8:    71d0        .q      STRB     r0,[r2,#7]
        0x000022fa:    0a08        ..      LSRS     r0,r1,#8
        0x000022fc:    7210        .r      STRB     r0,[r2,#8]
        0x000022fe:    7251        Qr      STRB     r1,[r2,#9]
        0x00002300:    210a        .!      MOVS     r1,#0xa
        0x00002302:    4610        .F      MOV      r0,r2
        0x00002304:    f001fd0c    ....    BL       sysPrintf1 ; 0x3d20
        0x00002308:    bd10        ..      POP      {r4,pc}
    $d
        0x0000230a:    0000        ..      DCW    0
        0x0000230c:    20000a0c    ...     DCD    536873484
    $t
    i.SystemCoreClockUpdate
    SystemCoreClockUpdate
        0x00002310:    b538        8.      PUSH     {r3-r5,lr}
        0x00002312:    a01d        ..      ADR      r0,{pc}+0x76 ; 0x2388
        0x00002314:    6800        .h      LDR      r0,[r0,#0]
        0x00002316:    4c1d        .L      LDR      r4,[pc,#116] ; [0x238c] = 0x50000200
        0x00002318:    9000        ..      STR      r0,[sp,#0]
        0x0000231a:    6a21        !j      LDR      r1,[r4,#0x20]
        0x0000231c:    1320         .      ASRS     r0,r4,#12
        0x0000231e:    4201        .B      TST      r1,r0
        0x00002320:    d001        ..      BEQ      0x2326 ; SystemCoreClockUpdate + 22
        0x00002322:    2000        .       MOVS     r0,#0
        0x00002324:    e016        ..      B        0x2354 ; SystemCoreClockUpdate + 68
        0x00002326:    0308        ..      LSLS     r0,r1,#12
        0x00002328:    d501        ..      BPL      0x232e ; SystemCoreClockUpdate + 30
        0x0000232a:    4819        .H      LDR      r0,[pc,#100] ; [0x2390] = 0x1518000
        0x0000232c:    e000        ..      B        0x2330 ; SystemCoreClockUpdate + 32
        0x0000232e:    4819        .H      LDR      r0,[pc,#100] ; [0x2394] = 0xb71b00
        0x00002330:    038a        ..      LSLS     r2,r1,#14
        0x00002332:    d40f        ..      BMI      0x2354 ; SystemCoreClockUpdate + 68
        0x00002334:    040a        ..      LSLS     r2,r1,#16
        0x00002336:    0f92        ..      LSRS     r2,r2,#30
        0x00002338:    466b        kF      MOV      r3,sp
        0x0000233a:    5c9b        .\      LDRB     r3,[r3,r2]
        0x0000233c:    05ca        ..      LSLS     r2,r1,#23
        0x0000233e:    0489        ..      LSLS     r1,r1,#18
        0x00002340:    0dd2        ..      LSRS     r2,r2,#23
        0x00002342:    0ec9        ..      LSRS     r1,r1,#27
        0x00002344:    1c92        ..      ADDS     r2,r2,#2
        0x00002346:    1c89        ..      ADDS     r1,r1,#2
        0x00002348:    0880        ..      LSRS     r0,r0,#2
        0x0000234a:    4359        YC      MULS     r1,r3,r1
        0x0000234c:    4350        PC      MULS     r0,r2,r0
        0x0000234e:    f7fdfee7    ....    BL       __aeabi_uidiv ; 0x120
        0x00002352:    0080        ..      LSLS     r0,r0,#2
        0x00002354:    4d10        .M      LDR      r5,[pc,#64] ; [0x2398] = 0x20000000
        0x00002356:    60a8        .`      STR      r0,[r5,#8]
        0x00002358:    6921        !i      LDR      r1,[r4,#0x10]
        0x0000235a:    0749        I.      LSLS     r1,r1,#29
        0x0000235c:    0f49        I.      LSRS     r1,r1,#29
        0x0000235e:    2902        .)      CMP      r1,#2
        0x00002360:    d003        ..      BEQ      0x236a ; SystemCoreClockUpdate + 90
        0x00002362:    0088        ..      LSLS     r0,r1,#2
        0x00002364:    4629        )F      MOV      r1,r5
        0x00002366:    310c        .1      ADDS     r1,r1,#0xc
        0x00002368:    5808        .X      LDR      r0,[r1,r0]
        0x0000236a:    69a1        .i      LDR      r1,[r4,#0x18]
        0x0000236c:    0709        ..      LSLS     r1,r1,#28
        0x0000236e:    0f09        ..      LSRS     r1,r1,#28
        0x00002370:    1c49        I.      ADDS     r1,r1,#1
        0x00002372:    f7fdfed5    ....    BL       __aeabi_uidiv ; 0x120
        0x00002376:    4909        .I      LDR      r1,[pc,#36] ; [0x239c] = 0xf4240
        0x00002378:    6028        (`      STR      r0,[r5,#0]
        0x0000237a:    104a        J.      ASRS     r2,r1,#1
        0x0000237c:    1880        ..      ADDS     r0,r0,r2
        0x0000237e:    f7fdfecf    ....    BL       __aeabi_uidiv ; 0x120
        0x00002382:    6068        h`      STR      r0,[r5,#4]
        0x00002384:    bd38        8.      POP      {r3-r5,pc}
    $d
        0x00002386:    0000        ..      DCW    0
        0x00002388:    04020201    ....    DCD    67240449
        0x0000238c:    50000200    ...P    DCD    1342177792
        0x00002390:    01518000    ..Q.    DCD    22118400
        0x00002394:    00b71b00    ....    DCD    12000000
        0x00002398:    20000000    ...     DCD    536870912
        0x0000239c:    000f4240    @B..    DCD    1000000
    $t
    i.SystemInit
    SystemInit
        0x000023a0:    4770        pG      BX       lr
        0x000023a2:    0000        ..      MOVS     r0,r0
    i.TIMER0_Init
    TIMER0_Init
        0x000023a4:    b510        ..      PUSH     {r4,lr}
        0x000023a6:    4c0d        .L      LDR      r4,[pc,#52] ; [0x23dc] = 0x5e800002
        0x000023a8:    4620         F      MOV      r0,r4
        0x000023aa:    f7fefc53    ..S.    BL       CLK_EnableModuleClock ; 0xc54
        0x000023ae:    2200        ."      MOVS     r2,#0
        0x000023b0:    4611        .F      MOV      r1,r2
        0x000023b2:    4620         F      MOV      r0,r4
        0x000023b4:    f7fefdca    ....    BL       CLK_SetModuleClock ; 0xf4c
        0x000023b8:    06a1        ..      LSLS     r1,r4,#26
        0x000023ba:    4c09        .L      LDR      r4,[pc,#36] ; [0x23e0] = 0x40010000
        0x000023bc:    2264        d"      MOVS     r2,#0x64
        0x000023be:    4620         F      MOV      r0,r4
        0x000023c0:    f000f888    ....    BL       TIMER_Open ; 0x24d4
        0x000023c4:    6820         h      LDR      r0,[r4,#0]
        0x000023c6:    0361        a.      LSLS     r1,r4,#13
        0x000023c8:    4308        .C      ORRS     r0,r0,r1
        0x000023ca:    6020         `      STR      r0,[r4,#0]
        0x000023cc:    2008        .       MOVS     r0,#8
        0x000023ce:    f7fffe59    ..Y.    BL       NVIC_EnableIRQ ; 0x2084
        0x000023d2:    6820         h      LDR      r0,[r4,#0]
        0x000023d4:    03a1        ..      LSLS     r1,r4,#14
        0x000023d6:    4308        .C      ORRS     r0,r0,r1
        0x000023d8:    6020         `      STR      r0,[r4,#0]
        0x000023da:    bd10        ..      POP      {r4,pc}
    $d
        0x000023dc:    5e800002    ...^    DCD    1585446914
        0x000023e0:    40010000    ...@    DCD    1073807360
    $t
    i.TIMER2_Init
    TIMER2_Init
        0x000023e4:    b510        ..      PUSH     {r4,lr}
        0x000023e6:    4c0d        .L      LDR      r4,[pc,#52] ; [0x241c] = 0x5f000004
        0x000023e8:    4620         F      MOV      r0,r4
        0x000023ea:    f7fefc33    ..3.    BL       CLK_EnableModuleClock ; 0xc54
        0x000023ee:    2200        ."      MOVS     r2,#0
        0x000023f0:    4611        .F      MOV      r1,r2
        0x000023f2:    4620         F      MOV      r0,r4
        0x000023f4:    f7fefdaa    ....    BL       CLK_SetModuleClock ; 0xf4c
        0x000023f8:    0661        a.      LSLS     r1,r4,#25
        0x000023fa:    4c09        .L      LDR      r4,[pc,#36] ; [0x2420] = 0x40110000
        0x000023fc:    220a        ."      MOVS     r2,#0xa
        0x000023fe:    4620         F      MOV      r0,r4
        0x00002400:    f000f868    ..h.    BL       TIMER_Open ; 0x24d4
        0x00002404:    6820         h      LDR      r0,[r4,#0]
        0x00002406:    0361        a.      LSLS     r1,r4,#13
        0x00002408:    4308        .C      ORRS     r0,r0,r1
        0x0000240a:    6020         `      STR      r0,[r4,#0]
        0x0000240c:    200a        .       MOVS     r0,#0xa
        0x0000240e:    f7fffe39    ..9.    BL       NVIC_EnableIRQ ; 0x2084
        0x00002412:    6820         h      LDR      r0,[r4,#0]
        0x00002414:    03a1        ..      LSLS     r1,r4,#14
        0x00002416:    4308        .C      ORRS     r0,r0,r1
        0x00002418:    6020         `      STR      r0,[r4,#0]
        0x0000241a:    bd10        ..      POP      {r4,pc}
    $d
        0x0000241c:    5f000004    ..._    DCD    1593835524
        0x00002420:    40110000    ...@    DCD    1074855936
    $t
    i.TIMER3_Init
    TIMER3_Init
        0x00002424:    b510        ..      PUSH     {r4,lr}
        0x00002426:    4c0e        .L      LDR      r4,[pc,#56] ; [0x2460] = 0x5f400005
        0x00002428:    4620         F      MOV      r0,r4
        0x0000242a:    f7fefc13    ....    BL       CLK_EnableModuleClock ; 0xc54
        0x0000242e:    2200        ."      MOVS     r2,#0
        0x00002430:    4611        .F      MOV      r1,r2
        0x00002432:    4620         F      MOV      r0,r4
        0x00002434:    f7fefd8a    ....    BL       CLK_SetModuleClock ; 0xf4c
        0x00002438:    4c0a        .L      LDR      r4,[pc,#40] ; [0x2464] = 0x40110020
        0x0000243a:    2101        .!      MOVS     r1,#1
        0x0000243c:    220a        ."      MOVS     r2,#0xa
        0x0000243e:    06c9        ..      LSLS     r1,r1,#27
        0x00002440:    4620         F      MOV      r0,r4
        0x00002442:    f000f847    ..G.    BL       TIMER_Open ; 0x24d4
        0x00002446:    6820         h      LDR      r0,[r4,#0]
        0x00002448:    0621        !.      LSLS     r1,r4,#24
        0x0000244a:    4308        .C      ORRS     r0,r0,r1
        0x0000244c:    6020         `      STR      r0,[r4,#0]
        0x0000244e:    200b        .       MOVS     r0,#0xb
        0x00002450:    f7fffe18    ....    BL       NVIC_EnableIRQ ; 0x2084
        0x00002454:    6820         h      LDR      r0,[r4,#0]
        0x00002456:    0661        a.      LSLS     r1,r4,#25
        0x00002458:    4308        .C      ORRS     r0,r0,r1
        0x0000245a:    6020         `      STR      r0,[r4,#0]
        0x0000245c:    bd10        ..      POP      {r4,pc}
    $d
        0x0000245e:    0000        ..      DCW    0
        0x00002460:    5f400005    ..@_    DCD    1598029829
        0x00002464:    40110020     ..@    DCD    1074855968
    $t
    i.TIMER_GetModuleClock
    TIMER_GetModuleClock
        0x00002468:    b510        ..      PUSH     {r4,lr}
        0x0000246a:    b088        ..      SUB      sp,sp,#0x20
        0x0000246c:    4604        .F      MOV      r4,r0
        0x0000246e:    2220         "      MOVS     r2,#0x20
        0x00002470:    4913        .I      LDR      r1,[pc,#76] ; [0x24c0] = 0x4168
        0x00002472:    4668        hF      MOV      r0,sp
        0x00002474:    f7fdfeeb    ....    BL       __aeabi_memcpy ; 0x24e
        0x00002478:    4912        .I      LDR      r1,[pc,#72] ; [0x24c4] = 0x40010000
        0x0000247a:    4813        .H      LDR      r0,[pc,#76] ; [0x24c8] = 0x50000200
        0x0000247c:    428c        .B      CMP      r4,r1
        0x0000247e:    d103        ..      BNE      0x2488 ; TIMER_GetModuleClock + 32
        0x00002480:    6940        @i      LDR      r0,[r0,#0x14]
        0x00002482:    0540        @.      LSLS     r0,r0,#21
        0x00002484:    0f40        @.      LSRS     r0,r0,#29
        0x00002486:    e010        ..      B        0x24aa ; TIMER_GetModuleClock + 66
        0x00002488:    490e        .I      LDR      r1,[pc,#56] ; [0x24c4] = 0x40010000
        0x0000248a:    3120         1      ADDS     r1,r1,#0x20
        0x0000248c:    428c        .B      CMP      r4,r1
        0x0000248e:    d103        ..      BNE      0x2498 ; TIMER_GetModuleClock + 48
        0x00002490:    6940        @i      LDR      r0,[r0,#0x14]
        0x00002492:    0440        @.      LSLS     r0,r0,#17
        0x00002494:    0f40        @.      LSRS     r0,r0,#29
        0x00002496:    e008        ..      B        0x24aa ; TIMER_GetModuleClock + 66
        0x00002498:    490c        .I      LDR      r1,[pc,#48] ; [0x24cc] = 0x40110000
        0x0000249a:    6940        @i      LDR      r0,[r0,#0x14]
        0x0000249c:    428c        .B      CMP      r4,r1
        0x0000249e:    d102        ..      BNE      0x24a6 ; TIMER_GetModuleClock + 62
        0x000024a0:    0340        @.      LSLS     r0,r0,#13
        0x000024a2:    0f40        @.      LSRS     r0,r0,#29
        0x000024a4:    e001        ..      B        0x24aa ; TIMER_GetModuleClock + 66
        0x000024a6:    0240        @.      LSLS     r0,r0,#9
        0x000024a8:    0f40        @.      LSRS     r0,r0,#29
        0x000024aa:    2802        .(      CMP      r0,#2
        0x000024ac:    d004        ..      BEQ      0x24b8 ; TIMER_GetModuleClock + 80
        0x000024ae:    0080        ..      LSLS     r0,r0,#2
        0x000024b0:    4669        iF      MOV      r1,sp
        0x000024b2:    5808        .X      LDR      r0,[r1,r0]
        0x000024b4:    b008        ..      ADD      sp,sp,#0x20
        0x000024b6:    bd10        ..      POP      {r4,pc}
        0x000024b8:    4805        .H      LDR      r0,[pc,#20] ; [0x24d0] = 0x20000000
        0x000024ba:    6800        .h      LDR      r0,[r0,#0]
        0x000024bc:    e7fa        ..      B        0x24b4 ; TIMER_GetModuleClock + 76
    $d
        0x000024be:    0000        ..      DCW    0
        0x000024c0:    00004168    hA..    DCD    16744
        0x000024c4:    40010000    ...@    DCD    1073807360
        0x000024c8:    50000200    ...P    DCD    1342177792
        0x000024cc:    40110000    ...@    DCD    1074855936
        0x000024d0:    20000000    ...     DCD    536870912
    $t
    i.TIMER_Open
    TIMER_Open
        0x000024d4:    b5f7        ..      PUSH     {r0-r2,r4-r7,lr}
        0x000024d6:    4606        .F      MOV      r6,r0
        0x000024d8:    4617        .F      MOV      r7,r2
        0x000024da:    f7ffffc5    ....    BL       TIMER_GetModuleClock ; 0x2468
        0x000024de:    4604        .F      MOV      r4,r0
        0x000024e0:    2500        .%      MOVS     r5,#0
        0x000024e2:    0840        @.      LSRS     r0,r0,#1
        0x000024e4:    42b8        .B      CMP      r0,r7
        0x000024e6:    d201        ..      BCS      0x24ec ; TIMER_Open + 24
        0x000024e8:    2002        .       MOVS     r0,#2
        0x000024ea:    e014        ..      B        0x2516 ; TIMER_Open + 66
        0x000024ec:    490f        .I      LDR      r1,[pc,#60] ; [0x252c] = 0x3d09000
        0x000024ee:    428c        .B      CMP      r4,r1
        0x000024f0:    d902        ..      BLS      0x24f8 ; TIMER_Open + 36
        0x000024f2:    2507        .%      MOVS     r5,#7
        0x000024f4:    08e4        ..      LSRS     r4,r4,#3
        0x000024f6:    e00a        ..      B        0x250e ; TIMER_Open + 58
        0x000024f8:    490d        .I      LDR      r1,[pc,#52] ; [0x2530] = 0x1e84800
        0x000024fa:    428c        .B      CMP      r4,r1
        0x000024fc:    d902        ..      BLS      0x2504 ; TIMER_Open + 48
        0x000024fe:    2503        .%      MOVS     r5,#3
        0x00002500:    08a4        ..      LSRS     r4,r4,#2
        0x00002502:    e004        ..      B        0x250e ; TIMER_Open + 58
        0x00002504:    490b        .I      LDR      r1,[pc,#44] ; [0x2534] = 0xf42400
        0x00002506:    428c        .B      CMP      r4,r1
        0x00002508:    d901        ..      BLS      0x250e ; TIMER_Open + 58
        0x0000250a:    2501        .%      MOVS     r5,#1
        0x0000250c:    4604        .F      MOV      r4,r0
        0x0000250e:    4639        9F      MOV      r1,r7
        0x00002510:    4620         F      MOV      r0,r4
        0x00002512:    f7fdfe05    ....    BL       __aeabi_uidiv ; 0x120
        0x00002516:    9901        ..      LDR      r1,[sp,#4]
        0x00002518:    4329        )C      ORRS     r1,r1,r5
        0x0000251a:    6031        1`      STR      r1,[r6,#0]
        0x0000251c:    6070        p`      STR      r0,[r6,#4]
        0x0000251e:    1c6d        m.      ADDS     r5,r5,#1
        0x00002520:    4368        hC      MULS     r0,r5,r0
        0x00002522:    4601        .F      MOV      r1,r0
        0x00002524:    4620         F      MOV      r0,r4
        0x00002526:    f7fdfdfb    ....    BL       __aeabi_uidiv ; 0x120
        0x0000252a:    bdfe        ..      POP      {r1-r7,pc}
    $d
        0x0000252c:    03d09000    ....    DCD    64000000
        0x00002530:    01e84800    .H..    DCD    32000000
        0x00002534:    00f42400    .$..    DCD    16000000
    $t
    i.TMR0_IRQHandler
    TMR0_IRQHandler
        0x00002538:    b570        p.      PUSH     {r4-r6,lr}
        0x0000253a:    4825        %H      LDR      r0,[pc,#148] ; [0x25d0] = 0x40010000
        0x0000253c:    2501        .%      MOVS     r5,#1
        0x0000253e:    6085        .`      STR      r5,[r0,#8]
        0x00002540:    4924        $I      LDR      r1,[pc,#144] ; [0x25d4] = 0x20000030
        0x00002542:    7848        Hx      LDRB     r0,[r1,#1]
        0x00002544:    2800        .(      CMP      r0,#0
        0x00002546:    d037        7.      BEQ      0x25b8 ; TMR0_IRQHandler + 128
        0x00002548:    460c        .F      MOV      r4,r1
        0x0000254a:    3480        .4      ADDS     r4,r4,#0x80
        0x0000254c:    6960        `i      LDR      r0,[r4,#0x14]
        0x0000254e:    4e22        "N      LDR      r6,[pc,#136] ; [0x25d8] = 0x1770
        0x00002550:    1c40        @.      ADDS     r0,r0,#1
        0x00002552:    227d        }"      MOVS     r2,#0x7d
        0x00002554:    0112        ..      LSLS     r2,r2,#4
        0x00002556:    6160        `a      STR      r0,[r4,#0x14]
        0x00002558:    42b0        .B      CMP      r0,r6
        0x0000255a:    d306        ..      BCC      0x256a ; TMR0_IRQHandler + 50
        0x0000255c:    6166        fa      STR      r6,[r4,#0x14]
        0x0000255e:    7948        Hy      LDRB     r0,[r1,#5]
        0x00002560:    2832        2(      CMP      r0,#0x32
        0x00002562:    d302        ..      BCC      0x256a ; TMR0_IRQHandler + 50
        0x00002564:    481d        .H      LDR      r0,[pc,#116] ; [0x25dc] = 0x7530
        0x00002566:    6120         a      STR      r0,[r4,#0x10]
        0x00002568:    e000        ..      B        0x256c ; TMR0_IRQHandler + 52
        0x0000256a:    6122        "a      STR      r2,[r4,#0x10]
        0x0000256c:    68e0        .h      LDR      r0,[r4,#0xc]
        0x0000256e:    1c40        @.      ADDS     r0,r0,#1
        0x00002570:    60e0        .`      STR      r0,[r4,#0xc]
        0x00002572:    6921        !i      LDR      r1,[r4,#0x10]
        0x00002574:    f7fdfdd4    ....    BL       __aeabi_uidiv ; 0x120
        0x00002578:    4816        .H      LDR      r0,[pc,#88] ; [0x25d4] = 0x20000030
        0x0000257a:    3040        @0      ADDS     r0,r0,#0x40
        0x0000257c:    2900        .)      CMP      r1,#0
        0x0000257e:    d100        ..      BNE      0x2582 ; TMR0_IRQHandler + 74
        0x00002580:    7505        .u      STRB     r5,[r0,#0x14]
        0x00002582:    4917        .I      LDR      r1,[pc,#92] ; [0x25e0] = 0x20000130
        0x00002584:    2300        .#      MOVS     r3,#0
        0x00002586:    690a        .i      LDR      r2,[r1,#0x10]
        0x00002588:    1c52        R.      ADDS     r2,r2,#1
        0x0000258a:    610a        .a      STR      r2,[r1,#0x10]
        0x0000258c:    7d41        A}      LDRB     r1,[r0,#0x15]
        0x0000258e:    4a15        .J      LDR      r2,[pc,#84] ; [0x25e4] = 0x50004280
        0x00002590:    2902        .)      CMP      r1,#2
        0x00002592:    d204        ..      BCS      0x259e ; TMR0_IRQHandler + 102
        0x00002594:    69a1        .i      LDR      r1,[r4,#0x18]
        0x00002596:    42b1        .B      CMP      r1,r6
        0x00002598:    d20f        ..      BCS      0x25ba ; TMR0_IRQHandler + 130
        0x0000259a:    1c49        I.      ADDS     r1,r1,#1
        0x0000259c:    61a1        .a      STR      r1,[r4,#0x18]
        0x0000259e:    8b01        ..      LDRH     r1,[r0,#0x18]
        0x000025a0:    2964        d)      CMP      r1,#0x64
        0x000025a2:    d010        ..      BEQ      0x25c6 ; TMR0_IRQHandler + 142
        0x000025a4:    2900        .)      CMP      r1,#0
        0x000025a6:    d002        ..      BEQ      0x25ae ; TMR0_IRQHandler + 118
        0x000025a8:    b289        ..      UXTH     r1,r1
        0x000025aa:    1e49        I.      SUBS     r1,r1,#1
        0x000025ac:    8301        ..      STRH     r1,[r0,#0x18]
        0x000025ae:    8ac1        ..      LDRH     r1,[r0,#0x16]
        0x000025b0:    2900        .)      CMP      r1,#0
        0x000025b2:    d001        ..      BEQ      0x25b8 ; TMR0_IRQHandler + 128
        0x000025b4:    1e49        I.      SUBS     r1,r1,#1
        0x000025b6:    82c1        ..      STRH     r1,[r0,#0x16]
        0x000025b8:    bd70        p.      POP      {r4-r6,pc}
        0x000025ba:    6295        .b      STR      r5,[r2,#0x28]
        0x000025bc:    21ff        .!      MOVS     r1,#0xff
        0x000025be:    3191        .1      ADDS     r1,r1,#0x91
        0x000025c0:    8301        ..      STRH     r1,[r0,#0x18]
        0x000025c2:    61a3        .a      STR      r3,[r4,#0x18]
        0x000025c4:    e7f0        ..      B        0x25a8 ; TMR0_IRQHandler + 112
        0x000025c6:    6293        .b      STR      r3,[r2,#0x28]
        0x000025c8:    2163        c!      MOVS     r1,#0x63
        0x000025ca:    61a3        .a      STR      r3,[r4,#0x18]
        0x000025cc:    e7ee        ..      B        0x25ac ; TMR0_IRQHandler + 116
    $d
        0x000025ce:    0000        ..      DCW    0
        0x000025d0:    40010000    ...@    DCD    1073807360
        0x000025d4:    20000030    0..     DCD    536870960
        0x000025d8:    00001770    p...    DCD    6000
        0x000025dc:    00007530    0u..    DCD    30000
        0x000025e0:    20000130    0..     DCD    536871216
        0x000025e4:    50004280    .B.P    DCD    1342194304
    $t
    i.TMR1_IRQHandler
    TMR1_IRQHandler
        0x000025e8:    4901        .I      LDR      r1,[pc,#4] ; [0x25f0] = 0x40010020
        0x000025ea:    2001        .       MOVS     r0,#1
        0x000025ec:    6088        .`      STR      r0,[r1,#8]
        0x000025ee:    4770        pG      BX       lr
    $d
        0x000025f0:    40010020     ..@    DCD    1073807392
    $t
    i.TMR2_IRQHandler
    TMR2_IRQHandler
        0x000025f4:    b5f8        ..      PUSH     {r3-r7,lr}
        0x000025f6:    495c        \I      LDR      r1,[pc,#368] ; [0x2768] = 0x40110000
        0x000025f8:    2001        .       MOVS     r0,#1
        0x000025fa:    6088        .`      STR      r0,[r1,#8]
        0x000025fc:    4c5b        [L      LDR      r4,[pc,#364] ; [0x276c] = 0x20000070
        0x000025fe:    2564        d%      MOVS     r5,#0x64
        0x00002600:    7920         y      LDRB     r0,[r4,#4]
        0x00002602:    1c40        @.      ADDS     r0,r0,#1
        0x00002604:    b2c0        ..      UXTB     r0,r0
        0x00002606:    7120         q      STRB     r0,[r4,#4]
        0x00002608:    2864        d(      CMP      r0,#0x64
        0x0000260a:    d300        ..      BCC      0x260e ; TMR2_IRQHandler + 26
        0x0000260c:    7125        %q      STRB     r5,[r4,#4]
        0x0000260e:    f001fb63    ..c.    BL       startingup ; 0x3cd8
        0x00002612:    4856        VH      LDR      r0,[pc,#344] ; [0x276c] = 0x20000070
        0x00002614:    3820         8      SUBS     r0,r0,#0x20
        0x00002616:    7841        Ax      LDRB     r1,[r0,#1]
        0x00002618:    1c49        I.      ADDS     r1,r1,#1
        0x0000261a:    b2c9        ..      UXTB     r1,r1
        0x0000261c:    7041        Ap      STRB     r1,[r0,#1]
        0x0000261e:    290f        .)      CMP      r1,#0xf
        0x00002620:    d301        ..      BCC      0x2626 ; TMR2_IRQHandler + 50
        0x00002622:    210f        .!      MOVS     r1,#0xf
        0x00002624:    7041        Ap      STRB     r1,[r0,#1]
        0x00002626:    7e01        .~      LDRB     r1,[r0,#0x18]
        0x00002628:    2214        ."      MOVS     r2,#0x14
        0x0000262a:    1c49        I.      ADDS     r1,r1,#1
        0x0000262c:    b2c9        ..      UXTB     r1,r1
        0x0000262e:    7601        .v      STRB     r1,[r0,#0x18]
        0x00002630:    2914        .)      CMP      r1,#0x14
        0x00002632:    d300        ..      BCC      0x2636 ; TMR2_IRQHandler + 66
        0x00002634:    7602        .v      STRB     r2,[r0,#0x18]
        0x00002636:    7cc1        .|      LDRB     r1,[r0,#0x13]
        0x00002638:    1c49        I.      ADDS     r1,r1,#1
        0x0000263a:    b2c9        ..      UXTB     r1,r1
        0x0000263c:    74c1        .t      STRB     r1,[r0,#0x13]
        0x0000263e:    290a        .)      CMP      r1,#0xa
        0x00002640:    d301        ..      BCC      0x2646 ; TMR2_IRQHandler + 82
        0x00002642:    210a        .!      MOVS     r1,#0xa
        0x00002644:    74c1        .t      STRB     r1,[r0,#0x13]
        0x00002646:    7dc1        .}      LDRB     r1,[r0,#0x17]
        0x00002648:    1c49        I.      ADDS     r1,r1,#1
        0x0000264a:    b2c9        ..      UXTB     r1,r1
        0x0000264c:    75c1        .u      STRB     r1,[r0,#0x17]
        0x0000264e:    2964        d)      CMP      r1,#0x64
        0x00002650:    d300        ..      BCC      0x2654 ; TMR2_IRQHandler + 96
        0x00002652:    75c5        .u      STRB     r5,[r0,#0x17]
        0x00002654:    4945        EI      LDR      r1,[pc,#276] ; [0x276c] = 0x20000070
        0x00002656:    2304        .#      MOVS     r3,#4
        0x00002658:    3940        @9      SUBS     r1,r1,#0x40
        0x0000265a:    7948        Hy      LDRB     r0,[r1,#5]
        0x0000265c:    021e        ..      LSLS     r6,r3,#8
        0x0000265e:    1c40        @.      ADDS     r0,r0,#1
        0x00002660:    b2c5        ..      UXTB     r5,r0
        0x00002662:    4608        .F      MOV      r0,r1
        0x00002664:    4f42        BO      LDR      r7,[pc,#264] ; [0x2770] = 0x20000518
        0x00002666:    3080        .0      ADDS     r0,r0,#0x80
        0x00002668:    714d        Mq      STRB     r5,[r1,#5]
        0x0000266a:    2d32        2-      CMP      r5,#0x32
        0x0000266c:    d30e        ..      BCC      0x268c ; TMR2_IRQHandler + 152
        0x0000266e:    2532        2%      MOVS     r5,#0x32
        0x00002670:    714d        Mq      STRB     r5,[r1,#5]
        0x00002672:    6e85        .n      LDR      r5,[r0,#0x68]
        0x00002674:    431d        .C      ORRS     r5,r5,r3
        0x00002676:    6685        .f      STR      r5,[r0,#0x68]
        0x00002678:    6ec3        .n      LDR      r3,[r0,#0x6c]
        0x0000267a:    00f5        ..      LSLS     r5,r6,#3
        0x0000267c:    4333        3C      ORRS     r3,r3,r6
        0x0000267e:    43ab        .C      BICS     r3,r3,r5
        0x00002680:    66c3        .f      STR      r3,[r0,#0x6c]
        0x00002682:    683b        ;h      LDR      r3,[r7,#0]
        0x00002684:    10ad        ..      ASRS     r5,r5,#2
        0x00002686:    432b        +C      ORRS     r3,r3,r5
        0x00002688:    006d        m.      LSLS     r5,r5,#1
        0x0000268a:    e00c        ..      B        0x26a6 ; TMR2_IRQHandler + 178
        0x0000268c:    6e85        .n      LDR      r5,[r0,#0x68]
        0x0000268e:    439d        .C      BICS     r5,r5,r3
        0x00002690:    6685        .f      STR      r5,[r0,#0x68]
        0x00002692:    6ec3        .n      LDR      r3,[r0,#0x6c]
        0x00002694:    2501        .%      MOVS     r5,#1
        0x00002696:    43b3        .C      BICS     r3,r3,r6
        0x00002698:    036d        m.      LSLS     r5,r5,#13
        0x0000269a:    432b        +C      ORRS     r3,r3,r5
        0x0000269c:    66c3        .f      STR      r3,[r0,#0x6c]
        0x0000269e:    683b        ;h      LDR      r3,[r7,#0]
        0x000026a0:    106d        m.      ASRS     r5,r5,#1
        0x000026a2:    432b        +C      ORRS     r3,r3,r5
        0x000026a4:    106d        m.      ASRS     r5,r5,#1
        0x000026a6:    43ab        .C      BICS     r3,r3,r5
        0x000026a8:    603b        ;`      STR      r3,[r7,#0]
        0x000026aa:    6e83        .n      LDR      r3,[r0,#0x68]
        0x000026ac:    261e        .&      MOVS     r6,#0x1e
        0x000026ae:    075d        ].      LSLS     r5,r3,#29
        0x000026b0:    2300        .#      MOVS     r3,#0
        0x000026b2:    2d00        .-      CMP      r5,#0
        0x000026b4:    da02        ..      BGE      0x26bc ; TMR2_IRQHandler + 200
        0x000026b6:    72a6        .r      STRB     r6,[r4,#0xa]
        0x000026b8:    72e3        .r      STRB     r3,[r4,#0xb]
        0x000026ba:    e009        ..      B        0x26d0 ; TMR2_IRQHandler + 220
        0x000026bc:    7aa5        .z      LDRB     r5,[r4,#0xa]
        0x000026be:    1c6d        m.      ADDS     r5,r5,#1
        0x000026c0:    b2ed        ..      UXTB     r5,r5
        0x000026c2:    72a5        .r      STRB     r5,[r4,#0xa]
        0x000026c4:    2d30        0-      CMP      r5,#0x30
        0x000026c6:    d903        ..      BLS      0x26d0 ; TMR2_IRQHandler + 220
        0x000026c8:    72a3        .r      STRB     r3,[r4,#0xa]
        0x000026ca:    7ae5        .z      LDRB     r5,[r4,#0xb]
        0x000026cc:    1c6d        m.      ADDS     r5,r5,#1
        0x000026ce:    72e5        .r      STRB     r5,[r4,#0xb]
        0x000026d0:    27ff        .'      MOVS     r7,#0xff
        0x000026d2:    6ecd        .n      LDR      r5,[r1,#0x6c]
        0x000026d4:    372d        -7      ADDS     r7,r7,#0x2d
        0x000026d6:    42bd        .B      CMP      r5,r7
        0x000026d8:    d910        ..      BLS      0x26fc ; TMR2_IRQHandler + 264
        0x000026da:    6e45        En      LDR      r5,[r0,#0x64]
        0x000026dc:    27e1        .'      MOVS     r7,#0xe1
        0x000026de:    1c6d        m.      ADDS     r5,r5,#1
        0x000026e0:    013f        ?.      LSLS     r7,r7,#4
        0x000026e2:    6645        Ef      STR      r5,[r0,#0x64]
        0x000026e4:    42bd        .B      CMP      r5,r7
        0x000026e6:    d309        ..      BCC      0x26fc ; TMR2_IRQHandler + 264
        0x000026e8:    6643        Cf      STR      r3,[r0,#0x64]
        0x000026ea:    6f48        Ho      LDR      r0,[r1,#0x74]
        0x000026ec:    2501        .%      MOVS     r5,#1
        0x000026ee:    1c40        @.      ADDS     r0,r0,#1
        0x000026f0:    6748        Hg      STR      r0,[r1,#0x74]
        0x000026f2:    71cd        .q      STRB     r5,[r1,#7]
        0x000026f4:    4d1f        .M      LDR      r5,[pc,#124] ; [0x2774] = 0x1869f
        0x000026f6:    42a8        .B      CMP      r0,r5
        0x000026f8:    d900        ..      BLS      0x26fc ; TMR2_IRQHandler + 264
        0x000026fa:    674b        Kg      STR      r3,[r1,#0x74]
        0x000026fc:    7988        .y      LDRB     r0,[r1,#6]
        0x000026fe:    1c40        @.      ADDS     r0,r0,#1
        0x00002700:    b2c0        ..      UXTB     r0,r0
        0x00002702:    7188        .q      STRB     r0,[r1,#6]
        0x00002704:    281e        .(      CMP      r0,#0x1e
        0x00002706:    d300        ..      BCC      0x270a ; TMR2_IRQHandler + 278
        0x00002708:    718e        .q      STRB     r6,[r1,#6]
        0x0000270a:    7a20         z      LDRB     r0,[r4,#8]
        0x0000270c:    1c40        @.      ADDS     r0,r0,#1
        0x0000270e:    b2c0        ..      UXTB     r0,r0
        0x00002710:    7220         r      STRB     r0,[r4,#8]
        0x00002712:    280b        .(      CMP      r0,#0xb
        0x00002714:    d300        ..      BCC      0x2718 ; TMR2_IRQHandler + 292
        0x00002716:    7223        #r      STRB     r3,[r4,#8]
        0x00002718:    7a60        `z      LDRB     r0,[r4,#9]
        0x0000271a:    1c40        @.      ADDS     r0,r0,#1
        0x0000271c:    b2c0        ..      UXTB     r0,r0
        0x0000271e:    7260        `r      STRB     r0,[r4,#9]
        0x00002720:    2829        )(      CMP      r0,#0x29
        0x00002722:    d300        ..      BCC      0x2726 ; TMR2_IRQHandler + 306
        0x00002724:    7263        cr      STRB     r3,[r4,#9]
        0x00002726:    78c8        .x      LDRB     r0,[r1,#3]
        0x00002728:    1c40        @.      ADDS     r0,r0,#1
        0x0000272a:    b2c0        ..      UXTB     r0,r0
        0x0000272c:    70c8        .p      STRB     r0,[r1,#3]
        0x0000272e:    2814        .(      CMP      r0,#0x14
        0x00002730:    d304        ..      BCC      0x273c ; TMR2_IRQHandler + 328
        0x00002732:    4811        .H      LDR      r0,[pc,#68] ; [0x2778] = 0x200007ec
        0x00002734:    70ca        .p      STRB     r2,[r1,#3]
        0x00002736:    7083        .p      STRB     r3,[r0,#2]
        0x00002738:    70c3        .p      STRB     r3,[r0,#3]
        0x0000273a:    7103        .q      STRB     r3,[r0,#4]
        0x0000273c:    7908        .y      LDRB     r0,[r1,#4]
        0x0000273e:    1c40        @.      ADDS     r0,r0,#1
        0x00002740:    b2c0        ..      UXTB     r0,r0
        0x00002742:    7108        .q      STRB     r0,[r1,#4]
        0x00002744:    2814        .(      CMP      r0,#0x14
        0x00002746:    d305        ..      BCC      0x2754 ; TMR2_IRQHandler + 352
        0x00002748:    710a        .q      STRB     r2,[r1,#4]
        0x0000274a:    764b        Kv      STRB     r3,[r1,#0x19]
        0x0000274c:    7a08        .z      LDRB     r0,[r1,#8]
        0x0000274e:    0840        @.      LSRS     r0,r0,#1
        0x00002750:    0040        @.      LSLS     r0,r0,#1
        0x00002752:    7208        .r      STRB     r0,[r1,#8]
        0x00002754:    7ec8        .~      LDRB     r0,[r1,#0x1b]
        0x00002756:    1c40        @.      ADDS     r0,r0,#1
        0x00002758:    b2c0        ..      UXTB     r0,r0
        0x0000275a:    76c8        .v      STRB     r0,[r1,#0x1b]
        0x0000275c:    2832        2(      CMP      r0,#0x32
        0x0000275e:    d302        ..      BCC      0x2766 ; TMR2_IRQHandler + 370
        0x00002760:    76cb        .v      STRB     r3,[r1,#0x1b]
        0x00002762:    f7fffcc5    ....    BL       SPN_Display ; 0x20f0
        0x00002766:    bdf8        ..      POP      {r3-r7,pc}
    $d
        0x00002768:    40110000    ...@    DCD    1074855936
        0x0000276c:    20000070    p..     DCD    536871024
        0x00002770:    20000518    ...     DCD    536872216
        0x00002774:    0001869f    ....    DCD    99999
        0x00002778:    200007ec    ...     DCD    536872940
    $t
    i.TMR3_IRQHandler
    TMR3_IRQHandler
        0x0000277c:    4805        .H      LDR      r0,[pc,#20] ; [0x2794] = 0x40110020
        0x0000277e:    2201        ."      MOVS     r2,#1
        0x00002780:    6082        .`      STR      r2,[r0,#8]
        0x00002782:    4805        .H      LDR      r0,[pc,#20] ; [0x2798] = 0x20000030
        0x00002784:    7b01        .{      LDRB     r1,[r0,#0xc]
        0x00002786:    2900        .)      CMP      r1,#0
        0x00002788:    d103        ..      BNE      0x2792 ; TMR3_IRQHandler + 22
        0x0000278a:    4904        .I      LDR      r1,[pc,#16] ; [0x279c] = 0x20000508
        0x0000278c:    680b        .h      LDR      r3,[r1,#0]
        0x0000278e:    604b        K`      STR      r3,[r1,#4]
        0x00002790:    7302        .s      STRB     r2,[r0,#0xc]
        0x00002792:    4770        pG      BX       lr
    $d
        0x00002794:    40110020     ..@    DCD    1074855968
        0x00002798:    20000030    0..     DCD    536870960
        0x0000279c:    20000508    ...     DCD    536872200
    $t
    i.UART02_IRQHandler
    UART02_IRQHandler
        0x000027a0:    b5f8        ..      PUSH     {r3-r7,lr}
        0x000027a2:    484e        NH      LDR      r0,[pc,#312] ; [0x28dc] = 0x40050000
        0x000027a4:    69c1        .i      LDR      r1,[r0,#0x1c]
        0x000027a6:    494e        NI      LDR      r1,[pc,#312] ; [0x28e0] = 0x40154000
        0x000027a8:    69c9        .i      LDR      r1,[r1,#0x1c]
        0x000027aa:    6841        Ah      LDR      r1,[r0,#4]
        0x000027ac:    9100        ..      STR      r1,[sp,#0]
        0x000027ae:    69c4        .i      LDR      r4,[r0,#0x1c]
        0x000027b0:    4d4c        LM      LDR      r5,[pc,#304] ; [0x28e4] = 0x20000238
        0x000027b2:    05e0        ..      LSLS     r0,r4,#23
        0x000027b4:    2600        .&      MOVS     r6,#0
        0x000027b6:    4f4c        LO      LDR      r7,[pc,#304] ; [0x28e8] = 0x200000b0
        0x000027b8:    2800        .(      CMP      r0,#0
        0x000027ba:    da18        ..      BGE      0x27ee ; UART02_IRQHandler + 78
        0x000027bc:    4a47        GJ      LDR      r2,[pc,#284] ; [0x28dc] = 0x40050000
        0x000027be:    6990        .i      LDR      r0,[r2,#0x18]
        0x000027c0:    0480        ..      LSLS     r0,r0,#18
        0x000027c2:    0e81        ..      LSRS     r1,r0,#26
        0x000027c4:    2000        .       MOVS     r0,#0
        0x000027c6:    e00c        ..      B        0x27e2 ; UART02_IRQHandler + 66
        0x000027c8:    6c7a        zl      LDR      r2,[r7,#0x44]
        0x000027ca:    2a64        d*      CMP      r2,#0x64
        0x000027cc:    d100        ..      BNE      0x27d0 ; UART02_IRQHandler + 48
        0x000027ce:    647e        ~d      STR      r6,[r7,#0x44]
        0x000027d0:    4a42        BJ      LDR      r2,[pc,#264] ; [0x28dc] = 0x40050000
        0x000027d2:    6812        .h      LDR      r2,[r2,#0]
        0x000027d4:    6c7b        {l      LDR      r3,[r7,#0x44]
        0x000027d6:    54ea        .T      STRB     r2,[r5,r3]
        0x000027d8:    6c7a        zl      LDR      r2,[r7,#0x44]
        0x000027da:    1c52        R.      ADDS     r2,r2,#1
        0x000027dc:    647a        zd      STR      r2,[r7,#0x44]
        0x000027de:    1c40        @.      ADDS     r0,r0,#1
        0x000027e0:    b2c0        ..      UXTB     r0,r0
        0x000027e2:    4288        .B      CMP      r0,r1
        0x000027e4:    d3f0        ..      BCC      0x27c8 ; UART02_IRQHandler + 40
        0x000027e6:    483f        ?H      LDR      r0,[pc,#252] ; [0x28e4] = 0x20000238
        0x000027e8:    f001fb96    ....    BL       uartpfnCallback ; 0x3f18
        0x000027ec:    647e        ~d      STR      r6,[r7,#0x44]
        0x000027ee:    06e0        ..      LSLS     r0,r4,#27
        0x000027f0:    d518        ..      BPL      0x2824 ; UART02_IRQHandler + 132
        0x000027f2:    4a3a        :J      LDR      r2,[pc,#232] ; [0x28dc] = 0x40050000
        0x000027f4:    6990        .i      LDR      r0,[r2,#0x18]
        0x000027f6:    0480        ..      LSLS     r0,r0,#18
        0x000027f8:    0e81        ..      LSRS     r1,r0,#26
        0x000027fa:    2000        .       MOVS     r0,#0
        0x000027fc:    e00c        ..      B        0x2818 ; UART02_IRQHandler + 120
        0x000027fe:    6c7a        zl      LDR      r2,[r7,#0x44]
        0x00002800:    2a64        d*      CMP      r2,#0x64
        0x00002802:    d100        ..      BNE      0x2806 ; UART02_IRQHandler + 102
        0x00002804:    647e        ~d      STR      r6,[r7,#0x44]
        0x00002806:    4a35        5J      LDR      r2,[pc,#212] ; [0x28dc] = 0x40050000
        0x00002808:    6812        .h      LDR      r2,[r2,#0]
        0x0000280a:    6c7b        {l      LDR      r3,[r7,#0x44]
        0x0000280c:    54ea        .T      STRB     r2,[r5,r3]
        0x0000280e:    6c7a        zl      LDR      r2,[r7,#0x44]
        0x00002810:    1c52        R.      ADDS     r2,r2,#1
        0x00002812:    647a        zd      STR      r2,[r7,#0x44]
        0x00002814:    1c40        @.      ADDS     r0,r0,#1
        0x00002816:    b2c0        ..      UXTB     r0,r0
        0x00002818:    4288        .B      CMP      r0,r1
        0x0000281a:    d3f0        ..      BCC      0x27fe ; UART02_IRQHandler + 94
        0x0000281c:    4831        1H      LDR      r0,[pc,#196] ; [0x28e4] = 0x20000238
        0x0000281e:    f001fb59    ..Y.    BL       uartTOpfnCallback ; 0x3ed4
        0x00002822:    647e        ~d      STR      r6,[r7,#0x44]
        0x00002824:    9800        ..      LDR      r0,[sp,#0]
        0x00002826:    0780        ..      LSLS     r0,r0,#30
        0x00002828:    d51e        ..      BPL      0x2868 ; UART02_IRQHandler + 200
        0x0000282a:    05a0        ..      LSLS     r0,r4,#22
        0x0000282c:    d51c        ..      BPL      0x2868 ; UART02_IRQHandler + 200
        0x0000282e:    492e        .I      LDR      r1,[pc,#184] ; [0x28e8] = 0x200000b0
        0x00002830:    3920         9      SUBS     r1,r1,#0x20
        0x00002832:    8908        ..      LDRH     r0,[r1,#8]
        0x00002834:    894d        M.      LDRH     r5,[r1,#0xa]
        0x00002836:    42a8        .B      CMP      r0,r5
        0x00002838:    d104        ..      BNE      0x2844 ; UART02_IRQHandler + 164
        0x0000283a:    2102        .!      MOVS     r1,#2
        0x0000283c:    4827        'H      LDR      r0,[pc,#156] ; [0x28dc] = 0x40050000
        0x0000283e:    f000f94d    ..M.    BL       UART_DisableInt ; 0x2adc
        0x00002842:    e011        ..      B        0x2868 ; UART02_IRQHandler + 200
        0x00002844:    2000        .       MOVS     r0,#0
        0x00002846:    4b29        )K      LDR      r3,[pc,#164] ; [0x28ec] = 0x20000a27
        0x00002848:    890a        ..      LDRH     r2,[r1,#8]
        0x0000284a:    5c9c        .\      LDRB     r4,[r3,r2]
        0x0000284c:    4b23        #K      LDR      r3,[pc,#140] ; [0x28dc] = 0x40050000
        0x0000284e:    601c        .`      STR      r4,[r3,#0]
        0x00002850:    4633        3F      MOV      r3,r6
        0x00002852:    2aff        .*      CMP      r2,#0xff
        0x00002854:    d000        ..      BEQ      0x2858 ; UART02_IRQHandler + 184
        0x00002856:    1c53        S.      ADDS     r3,r2,#1
        0x00002858:    b29a        ..      UXTH     r2,r3
        0x0000285a:    810a        ..      STRH     r2,[r1,#8]
        0x0000285c:    42aa        .B      CMP      r2,r5
        0x0000285e:    d003        ..      BEQ      0x2868 ; UART02_IRQHandler + 200
        0x00002860:    1c40        @.      ADDS     r0,r0,#1
        0x00002862:    b2c0        ..      UXTB     r0,r0
        0x00002864:    2808        .(      CMP      r0,#8
        0x00002866:    d3ee        ..      BCC      0x2846 ; UART02_IRQHandler + 166
        0x00002868:    481d        .H      LDR      r0,[pc,#116] ; [0x28e0] = 0x40154000
        0x0000286a:    69c5        .i      LDR      r5,[r0,#0x1c]
        0x0000286c:    6840        @h      LDR      r0,[r0,#4]
        0x0000286e:    4c20         L      LDR      r4,[pc,#128] ; [0x28f0] = 0x2000029c
        0x00002870:    05e8        ..      LSLS     r0,r5,#23
        0x00002872:    d518        ..      BPL      0x28a6 ; UART02_IRQHandler + 262
        0x00002874:    4a1a        .J      LDR      r2,[pc,#104] ; [0x28e0] = 0x40154000
        0x00002876:    6990        .i      LDR      r0,[r2,#0x18]
        0x00002878:    0480        ..      LSLS     r0,r0,#18
        0x0000287a:    0e81        ..      LSRS     r1,r0,#26
        0x0000287c:    2000        .       MOVS     r0,#0
        0x0000287e:    e00c        ..      B        0x289a ; UART02_IRQHandler + 250
        0x00002880:    6cba        .l      LDR      r2,[r7,#0x48]
        0x00002882:    2a64        d*      CMP      r2,#0x64
        0x00002884:    d100        ..      BNE      0x2888 ; UART02_IRQHandler + 232
        0x00002886:    64be        .d      STR      r6,[r7,#0x48]
        0x00002888:    4a15        .J      LDR      r2,[pc,#84] ; [0x28e0] = 0x40154000
        0x0000288a:    6812        .h      LDR      r2,[r2,#0]
        0x0000288c:    6cbb        .l      LDR      r3,[r7,#0x48]
        0x0000288e:    54e2        .T      STRB     r2,[r4,r3]
        0x00002890:    6cba        .l      LDR      r2,[r7,#0x48]
        0x00002892:    1c52        R.      ADDS     r2,r2,#1
        0x00002894:    64ba        .d      STR      r2,[r7,#0x48]
        0x00002896:    1c40        @.      ADDS     r0,r0,#1
        0x00002898:    b2c0        ..      UXTB     r0,r0
        0x0000289a:    4288        .B      CMP      r0,r1
        0x0000289c:    d3f0        ..      BCC      0x2880 ; UART02_IRQHandler + 224
        0x0000289e:    4814        .H      LDR      r0,[pc,#80] ; [0x28f0] = 0x2000029c
        0x000028a0:    f001fab2    ....    BL       uart2pfnCallback ; 0x3e08
        0x000028a4:    64be        .d      STR      r6,[r7,#0x48]
        0x000028a6:    06e8        ..      LSLS     r0,r5,#27
        0x000028a8:    d517        ..      BPL      0x28da ; UART02_IRQHandler + 314
        0x000028aa:    4d0d        .M      LDR      r5,[pc,#52] ; [0x28e0] = 0x40154000
        0x000028ac:    69a8        .i      LDR      r0,[r5,#0x18]
        0x000028ae:    0480        ..      LSLS     r0,r0,#18
        0x000028b0:    0e81        ..      LSRS     r1,r0,#26
        0x000028b2:    2000        .       MOVS     r0,#0
        0x000028b4:    e00b        ..      B        0x28ce ; UART02_IRQHandler + 302
        0x000028b6:    6cba        .l      LDR      r2,[r7,#0x48]
        0x000028b8:    2a64        d*      CMP      r2,#0x64
        0x000028ba:    d100        ..      BNE      0x28be ; UART02_IRQHandler + 286
        0x000028bc:    64be        .d      STR      r6,[r7,#0x48]
        0x000028be:    682a        *h      LDR      r2,[r5,#0]
        0x000028c0:    6cbb        .l      LDR      r3,[r7,#0x48]
        0x000028c2:    54e2        .T      STRB     r2,[r4,r3]
        0x000028c4:    6cba        .l      LDR      r2,[r7,#0x48]
        0x000028c6:    1c52        R.      ADDS     r2,r2,#1
        0x000028c8:    64ba        .d      STR      r2,[r7,#0x48]
        0x000028ca:    1c40        @.      ADDS     r0,r0,#1
        0x000028cc:    b2c0        ..      UXTB     r0,r0
        0x000028ce:    4288        .B      CMP      r0,r1
        0x000028d0:    d3f1        ..      BCC      0x28b6 ; UART02_IRQHandler + 278
        0x000028d2:    4807        .H      LDR      r0,[pc,#28] ; [0x28f0] = 0x2000029c
        0x000028d4:    f001fa32    ..2.    BL       uart2TOpfnCallback ; 0x3d3c
        0x000028d8:    64be        .d      STR      r6,[r7,#0x48]
        0x000028da:    bdf8        ..      POP      {r3-r7,pc}
    $d
        0x000028dc:    40050000    ...@    DCD    1074069504
        0x000028e0:    40154000    .@.@    DCD    1075134464
        0x000028e4:    20000238    8..     DCD    536871480
        0x000028e8:    200000b0    ...     DCD    536871088
        0x000028ec:    20000a27    '..     DCD    536873511
        0x000028f0:    2000029c    ...     DCD    536871580
    $t
    i.UART0_Init
    UART0_Init
        0x000028f4:    b510        ..      PUSH     {r4,lr}
        0x000028f6:    4813        .H      LDR      r0,[pc,#76] ; [0x2944] = 0x4000010
        0x000028f8:    f7fffca2    ....    BL       SYS_ResetModule ; 0x2240
        0x000028fc:    4c12        .L      LDR      r4,[pc,#72] ; [0x2948] = 0x40050000
        0x000028fe:    21e1        .!      MOVS     r1,#0xe1
        0x00002900:    0249        I.      LSLS     r1,r1,#9
        0x00002902:    4620         F      MOV      r0,r4
        0x00002904:    f000f918    ....    BL       UART_Open ; 0x2b38
        0x00002908:    68a0        .h      LDR      r0,[r4,#8]
        0x0000290a:    2130        0!      MOVS     r1,#0x30
        0x0000290c:    4308        .C      ORRS     r0,r0,r1
        0x0000290e:    60a0        .`      STR      r0,[r4,#8]
        0x00002910:    21c8        .!      MOVS     r1,#0xc8
        0x00002912:    4620         F      MOV      r0,r4
        0x00002914:    f000f954    ..T.    BL       UART_SetTimeoutCnt ; 0x2bc0
        0x00002918:    6860        `h      LDR      r0,[r4,#4]
        0x0000291a:    14e1        ..      ASRS     r1,r4,#19
        0x0000291c:    4308        .C      ORRS     r0,r0,r1
        0x0000291e:    6060        ``      STR      r0,[r4,#4]
        0x00002920:    2111        .!      MOVS     r1,#0x11
        0x00002922:    4620         F      MOV      r0,r4
        0x00002924:    f000f8de    ....    BL       UART_EnableInt ; 0x2ae4
        0x00002928:    2102        .!      MOVS     r1,#2
        0x0000292a:    4620         F      MOV      r0,r4
        0x0000292c:    f000f8d6    ....    BL       UART_DisableInt ; 0x2adc
        0x00002930:    4806        .H      LDR      r0,[pc,#24] ; [0x294c] = 0x20000090
        0x00002932:    2100        .!      MOVS     r1,#0
        0x00002934:    8141        A.      STRH     r1,[r0,#0xa]
        0x00002936:    8101        ..      STRH     r1,[r0,#8]
        0x00002938:    21ff        .!      MOVS     r1,#0xff
        0x0000293a:    312d        -1      ADDS     r1,r1,#0x2d
        0x0000293c:    4804        .H      LDR      r0,[pc,#16] ; [0x2950] = 0x20000b3b
        0x0000293e:    f7fdfc9f    ....    BL       __aeabi_memclr ; 0x280
        0x00002942:    bd10        ..      POP      {r4,pc}
    $d
        0x00002944:    04000010    ....    DCD    67108880
        0x00002948:    40050000    ...@    DCD    1074069504
        0x0000294c:    20000090    ...     DCD    536871056
        0x00002950:    20000b3b    ;..     DCD    536873787
    $t
    i.UART1_IRQHandler
    UART1_IRQHandler
        0x00002954:    b5f8        ..      PUSH     {r3-r7,lr}
        0x00002956:    4840        @H      LDR      r0,[pc,#256] ; [0x2a58] = 0x40150000
        0x00002958:    69c1        .i      LDR      r1,[r0,#0x1c]
        0x0000295a:    6841        Ah      LDR      r1,[r0,#4]
        0x0000295c:    9100        ..      STR      r1,[sp,#0]
        0x0000295e:    69c6        .i      LDR      r6,[r0,#0x1c]
        0x00002960:    2700        .'      MOVS     r7,#0
        0x00002962:    05f1        ..      LSLS     r1,r6,#23
        0x00002964:    2900        .)      CMP      r1,#0
        0x00002966:    da15        ..      BGE      0x2994 ; UART1_IRQHandler + 64
        0x00002968:    6801        .h      LDR      r1,[r0,#0]
        0x0000296a:    4a3c        <J      LDR      r2,[pc,#240] ; [0x2a5c] = 0x20000070
        0x0000296c:    b2c9        ..      UXTB     r1,r1
        0x0000296e:    4615        .F      MOV      r5,r2
        0x00002970:    3540        @5      ADDS     r5,r5,#0x40
        0x00002972:    7cd3        .|      LDRB     r3,[r2,#0x13]
        0x00002974:    4c3a        :L      LDR      r4,[pc,#232] ; [0x2a60] = 0x20000a18
        0x00002976:    6ead        .n      LDR      r5,[r5,#0x68]
        0x00002978:    f000f99c    ....    BL       __ARM_common_switch8 ; 0x2cb4
    $d
        0x0000297c:    251f090f    ...%    DCD    622790927
        0x00002980:    3a373431    147:    DCD    976696369
        0x00002984:    460b403d    =@.F    DCD    1175142461
        0x00002988:    534f4c49    ILOS    DCD    1397705801
        0x0000298c:    000b        ..      DCW    11
    $t
        0x0000298e:    295a        Z)      CMP      r1,#0x5a
        0x00002990:    d00f        ..      BEQ      0x29b2 ; UART1_IRQHandler + 94
        0x00002992:    74d7        .t      STRB     r7,[r2,#0x13]
        0x00002994:    9900        ..      LDR      r1,[sp,#0]
        0x00002996:    0789        ..      LSLS     r1,r1,#30
        0x00002998:    d50a        ..      BPL      0x29b0 ; UART1_IRQHandler + 92
        0x0000299a:    05b1        ..      LSLS     r1,r6,#22
        0x0000299c:    d508        ..      BPL      0x29b0 ; UART1_IRQHandler + 92
        0x0000299e:    4a2f        /J      LDR      r2,[pc,#188] ; [0x2a5c] = 0x20000070
        0x000029a0:    3220         2      ADDS     r2,r2,#0x20
        0x000029a2:    8891        ..      LDRH     r1,[r2,#4]
        0x000029a4:    88d5        ..      LDRH     r5,[r2,#6]
        0x000029a6:    42a9        .B      CMP      r1,r5
        0x000029a8:    d143        C.      BNE      0x2a32 ; UART1_IRQHandler + 222
        0x000029aa:    2102        .!      MOVS     r1,#2
        0x000029ac:    f000f896    ....    BL       UART_DisableInt ; 0x2adc
        0x000029b0:    bdf8        ..      POP      {r3-r7,pc}
        0x000029b2:    2301        .#      MOVS     r3,#1
        0x000029b4:    74d3        .t      STRB     r3,[r2,#0x13]
        0x000029b6:    7021        !p      STRB     r1,[r4,#0]
        0x000029b8:    e7ec        ..      B        0x2994 ; UART1_IRQHandler + 64
        0x000029ba:    29a5        .)      CMP      r1,#0xa5
        0x000029bc:    d1e7        ..      BNE      0x298e ; UART1_IRQHandler + 58
        0x000029be:    2302        .#      MOVS     r3,#2
        0x000029c0:    74d3        .t      STRB     r3,[r2,#0x13]
        0x000029c2:    7061        ap      STRB     r1,[r4,#1]
        0x000029c4:    e7e6        ..      B        0x2994 ; UART1_IRQHandler + 64
        0x000029c6:    2906        .)      CMP      r1,#6
        0x000029c8:    d005        ..      BEQ      0x29d6 ; UART1_IRQHandler + 130
        0x000029ca:    2905        .)      CMP      r1,#5
        0x000029cc:    d1df        ..      BNE      0x298e ; UART1_IRQHandler + 58
        0x000029ce:    230a        .#      MOVS     r3,#0xa
        0x000029d0:    74d3        .t      STRB     r3,[r2,#0x13]
        0x000029d2:    7261        ar      STRB     r1,[r4,#9]
        0x000029d4:    e7de        ..      B        0x2994 ; UART1_IRQHandler + 64
        0x000029d6:    2303        .#      MOVS     r3,#3
        0x000029d8:    74d3        .t      STRB     r3,[r2,#0x13]
        0x000029da:    70a1        .p      STRB     r1,[r4,#2]
        0x000029dc:    e7da        ..      B        0x2994 ; UART1_IRQHandler + 64
        0x000029de:    70e1        .p      STRB     r1,[r4,#3]
        0x000029e0:    2104        .!      MOVS     r1,#4
        0x000029e2:    e01c        ..      B        0x2a1e ; UART1_IRQHandler + 202
        0x000029e4:    7121        !q      STRB     r1,[r4,#4]
        0x000029e6:    2105        .!      MOVS     r1,#5
        0x000029e8:    e019        ..      B        0x2a1e ; UART1_IRQHandler + 202
        0x000029ea:    7161        aq      STRB     r1,[r4,#5]
        0x000029ec:    2106        .!      MOVS     r1,#6
        0x000029ee:    e016        ..      B        0x2a1e ; UART1_IRQHandler + 202
        0x000029f0:    71a1        .q      STRB     r1,[r4,#6]
        0x000029f2:    2107        .!      MOVS     r1,#7
        0x000029f4:    e013        ..      B        0x2a1e ; UART1_IRQHandler + 202
        0x000029f6:    71e1        .q      STRB     r1,[r4,#7]
        0x000029f8:    2108        .!      MOVS     r1,#8
        0x000029fa:    e010        ..      B        0x2a1e ; UART1_IRQHandler + 202
        0x000029fc:    7221        !r      STRB     r1,[r4,#8]
        0x000029fe:    4917        .I      LDR      r1,[pc,#92] ; [0x2a5c] = 0x20000070
        0x00002a00:    74d7        .t      STRB     r7,[r2,#0x13]
        0x00002a02:    3140        @1      ADDS     r1,r1,#0x40
        0x00002a04:    2280        ."      MOVS     r2,#0x80
        0x00002a06:    e011        ..      B        0x2a2c ; UART1_IRQHandler + 216
        0x00002a08:    72a1        .r      STRB     r1,[r4,#0xa]
        0x00002a0a:    210b        .!      MOVS     r1,#0xb
        0x00002a0c:    e007        ..      B        0x2a1e ; UART1_IRQHandler + 202
        0x00002a0e:    72e1        .r      STRB     r1,[r4,#0xb]
        0x00002a10:    210c        .!      MOVS     r1,#0xc
        0x00002a12:    e004        ..      B        0x2a1e ; UART1_IRQHandler + 202
        0x00002a14:    7321        !s      STRB     r1,[r4,#0xc]
        0x00002a16:    210d        .!      MOVS     r1,#0xd
        0x00002a18:    e001        ..      B        0x2a1e ; UART1_IRQHandler + 202
        0x00002a1a:    7361        as      STRB     r1,[r4,#0xd]
        0x00002a1c:    210e        .!      MOVS     r1,#0xe
        0x00002a1e:    74d1        .t      STRB     r1,[r2,#0x13]
        0x00002a20:    e7b8        ..      B        0x2994 ; UART1_IRQHandler + 64
        0x00002a22:    73a1        .s      STRB     r1,[r4,#0xe]
        0x00002a24:    490d        .I      LDR      r1,[pc,#52] ; [0x2a5c] = 0x20000070
        0x00002a26:    74d7        .t      STRB     r7,[r2,#0x13]
        0x00002a28:    3140        @1      ADDS     r1,r1,#0x40
        0x00002a2a:    2202        ."      MOVS     r2,#2
        0x00002a2c:    4315        .C      ORRS     r5,r5,r2
        0x00002a2e:    668d        .f      STR      r5,[r1,#0x68]
        0x00002a30:    e7b0        ..      B        0x2994 ; UART1_IRQHandler + 64
        0x00002a32:    4e0c        .N      LDR      r6,[pc,#48] ; [0x2a64] = 0x2000090c
        0x00002a34:    2100        .!      MOVS     r1,#0
        0x00002a36:    8894        ..      LDRH     r4,[r2,#4]
        0x00002a38:    5d33        3]      LDRB     r3,[r6,r4]
        0x00002a3a:    6003        .`      STR      r3,[r0,#0]
        0x00002a3c:    463b        ;F      MOV      r3,r7
        0x00002a3e:    2cff        .,      CMP      r4,#0xff
        0x00002a40:    d000        ..      BEQ      0x2a44 ; UART1_IRQHandler + 240
        0x00002a42:    1c63        c.      ADDS     r3,r4,#1
        0x00002a44:    b29b        ..      UXTH     r3,r3
        0x00002a46:    8093        ..      STRH     r3,[r2,#4]
        0x00002a48:    42ab        .B      CMP      r3,r5
        0x00002a4a:    d0b1        ..      BEQ      0x29b0 ; UART1_IRQHandler + 92
        0x00002a4c:    1c49        I.      ADDS     r1,r1,#1
        0x00002a4e:    b2c9        ..      UXTB     r1,r1
        0x00002a50:    2908        .)      CMP      r1,#8
        0x00002a52:    d3f0        ..      BCC      0x2a36 ; UART1_IRQHandler + 226
        0x00002a54:    bdf8        ..      POP      {r3-r7,pc}
    $d
        0x00002a56:    0000        ..      DCW    0
        0x00002a58:    40150000    ...@    DCD    1075118080
        0x00002a5c:    20000070    p..     DCD    536871024
        0x00002a60:    20000a18    ...     DCD    536873496
        0x00002a64:    2000090c    ...     DCD    536873228
    $t
    i.UART1_Init
    UART1_Init
        0x00002a68:    b510        ..      PUSH     {r4,lr}
        0x00002a6a:    480f        .H      LDR      r0,[pc,#60] ; [0x2aa8] = 0x4000011
        0x00002a6c:    f7fffbe8    ....    BL       SYS_ResetModule ; 0x2240
        0x00002a70:    4c0e        .L      LDR      r4,[pc,#56] ; [0x2aac] = 0x40150000
        0x00002a72:    21e1        .!      MOVS     r1,#0xe1
        0x00002a74:    0249        I.      LSLS     r1,r1,#9
        0x00002a76:    4620         F      MOV      r0,r4
        0x00002a78:    f000f85e    ..^.    BL       UART_Open ; 0x2b38
        0x00002a7c:    21c8        .!      MOVS     r1,#0xc8
        0x00002a7e:    4620         F      MOV      r0,r4
        0x00002a80:    f000f89e    ....    BL       UART_SetTimeoutCnt ; 0x2bc0
        0x00002a84:    6860        `h      LDR      r0,[r4,#4]
        0x00002a86:    2101        .!      MOVS     r1,#1
        0x00002a88:    02c9        ..      LSLS     r1,r1,#11
        0x00002a8a:    4308        .C      ORRS     r0,r0,r1
        0x00002a8c:    6060        ``      STR      r0,[r4,#4]
        0x00002a8e:    2101        .!      MOVS     r1,#1
        0x00002a90:    4620         F      MOV      r0,r4
        0x00002a92:    f000f827    ..'.    BL       UART_EnableInt ; 0x2ae4
        0x00002a96:    2102        .!      MOVS     r1,#2
        0x00002a98:    4620         F      MOV      r0,r4
        0x00002a9a:    f000f81f    ....    BL       UART_DisableInt ; 0x2adc
        0x00002a9e:    4804        .H      LDR      r0,[pc,#16] ; [0x2ab0] = 0x20000090
        0x00002aa0:    2100        .!      MOVS     r1,#0
        0x00002aa2:    80c1        ..      STRH     r1,[r0,#6]
        0x00002aa4:    8081        ..      STRH     r1,[r0,#4]
        0x00002aa6:    bd10        ..      POP      {r4,pc}
    $d
        0x00002aa8:    04000011    ....    DCD    67108881
        0x00002aac:    40150000    ...@    DCD    1075118080
        0x00002ab0:    20000090    ...     DCD    536871056
    $t
    i.UART2_Init
    UART2_Init
        0x00002ab4:    b510        ..      PUSH     {r4,lr}
        0x00002ab6:    4807        .H      LDR      r0,[pc,#28] ; [0x2ad4] = 0x4000012
        0x00002ab8:    f7fffbc2    ....    BL       SYS_ResetModule ; 0x2240
        0x00002abc:    4c06        .L      LDR      r4,[pc,#24] ; [0x2ad8] = 0x40154000
        0x00002abe:    21e1        .!      MOVS     r1,#0xe1
        0x00002ac0:    0249        I.      LSLS     r1,r1,#9
        0x00002ac2:    4620         F      MOV      r0,r4
        0x00002ac4:    f000f838    ..8.    BL       UART_Open ; 0x2b38
        0x00002ac8:    2101        .!      MOVS     r1,#1
        0x00002aca:    4620         F      MOV      r0,r4
        0x00002acc:    f000f80a    ....    BL       UART_EnableInt ; 0x2ae4
        0x00002ad0:    bd10        ..      POP      {r4,pc}
    $d
        0x00002ad2:    0000        ..      DCW    0
        0x00002ad4:    04000012    ....    DCD    67108882
        0x00002ad8:    40154000    .@.@    DCD    1075134464
    $t
    i.UART_DisableInt
    UART_DisableInt
        0x00002adc:    6842        Bh      LDR      r2,[r0,#4]
        0x00002ade:    438a        .C      BICS     r2,r2,r1
        0x00002ae0:    6042        B`      STR      r2,[r0,#4]
        0x00002ae2:    4770        pG      BX       lr
    i.UART_EnableInt
    UART_EnableInt
        0x00002ae4:    b510        ..      PUSH     {r4,lr}
        0x00002ae6:    6842        Bh      LDR      r2,[r0,#4]
        0x00002ae8:    430a        .C      ORRS     r2,r2,r1
        0x00002aea:    6042        B`      STR      r2,[r0,#4]
        0x00002aec:    490d        .I      LDR      r1,[pc,#52] ; [0x2b24] = 0x40050000
        0x00002aee:    4288        .B      CMP      r0,r1
        0x00002af0:    d009        ..      BEQ      0x2b06 ; UART_EnableInt + 34
        0x00002af2:    490d        .I      LDR      r1,[pc,#52] ; [0x2b28] = 0x40150000
        0x00002af4:    4288        .B      CMP      r0,r1
        0x00002af6:    d103        ..      BNE      0x2b00 ; UART_EnableInt + 28
        0x00002af8:    200d        .       MOVS     r0,#0xd
        0x00002afa:    f7fffacd    ....    BL       NVIC_EnableIRQ ; 0x2098
        0x00002afe:    bd10        ..      POP      {r4,pc}
        0x00002b00:    490a        .I      LDR      r1,[pc,#40] ; [0x2b2c] = 0x40154000
        0x00002b02:    4288        .B      CMP      r0,r1
        0x00002b04:    d101        ..      BNE      0x2b0a ; UART_EnableInt + 38
        0x00002b06:    200c        .       MOVS     r0,#0xc
        0x00002b08:    e7f7        ..      B        0x2afa ; UART_EnableInt + 22
        0x00002b0a:    4909        .I      LDR      r1,[pc,#36] ; [0x2b30] = 0x40054000
        0x00002b0c:    4288        .B      CMP      r0,r1
        0x00002b0e:    d101        ..      BNE      0x2b14 ; UART_EnableInt + 48
        0x00002b10:    200f        .       MOVS     r0,#0xf
        0x00002b12:    e7f2        ..      B        0x2afa ; UART_EnableInt + 22
        0x00002b14:    4907        .I      LDR      r1,[pc,#28] ; [0x2b34] = 0x40058000
        0x00002b16:    4288        .B      CMP      r0,r1
        0x00002b18:    d101        ..      BNE      0x2b1e ; UART_EnableInt + 58
        0x00002b1a:    2010        .       MOVS     r0,#0x10
        0x00002b1c:    e7ed        ..      B        0x2afa ; UART_EnableInt + 22
        0x00002b1e:    2011        .       MOVS     r0,#0x11
        0x00002b20:    e7eb        ..      B        0x2afa ; UART_EnableInt + 22
    $d
        0x00002b22:    0000        ..      DCW    0
        0x00002b24:    40050000    ...@    DCD    1074069504
        0x00002b28:    40150000    ...@    DCD    1075118080
        0x00002b2c:    40154000    .@.@    DCD    1075134464
        0x00002b30:    40054000    .@.@    DCD    1074085888
        0x00002b34:    40058000    ...@    DCD    1074102272
    $t
    i.UART_Open
    UART_Open
        0x00002b38:    b5f0        ..      PUSH     {r4-r7,lr}
        0x00002b3a:    4b1d        .K      LDR      r3,[pc,#116] ; [0x2bb0] = 0x4108
        0x00002b3c:    4604        .F      MOV      r4,r0
        0x00002b3e:    460d        .F      MOV      r5,r1
        0x00002b40:    cb0f        ..      LDM      r3,{r0-r3}
        0x00002b42:    b085        ..      SUB      sp,sp,#0x14
        0x00002b44:    466e        nF      MOV      r6,sp
        0x00002b46:    c60f        ..      STM      r6!,{r0-r3}
        0x00002b48:    481a        .H      LDR      r0,[pc,#104] ; [0x2bb4] = 0x50000200
        0x00002b4a:    6941        Ai      LDR      r1,[r0,#0x14]
        0x00002b4c:    6980        .i      LDR      r0,[r0,#0x18]
        0x00002b4e:    0189        ..      LSLS     r1,r1,#6
        0x00002b50:    0f8e        ..      LSRS     r6,r1,#30
        0x00002b52:    0500        ..      LSLS     r0,r0,#20
        0x00002b54:    0f07        ..      LSRS     r7,r0,#28
        0x00002b56:    2000        .       MOVS     r0,#0
        0x00002b58:    6320         c      STR      r0,[r4,#0x30]
        0x00002b5a:    2003        .       MOVS     r0,#3
        0x00002b5c:    60e0        .`      STR      r0,[r4,#0xc]
        0x00002b5e:    68a0        .h      LDR      r0,[r4,#8]
        0x00002b60:    4915        .I      LDR      r1,[pc,#84] ; [0x2bb8] = 0xfff0ff0f
        0x00002b62:    4008        .@      ANDS     r0,r0,r1
        0x00002b64:    60a0        .`      STR      r0,[r4,#8]
        0x00002b66:    2e01        ..      CMP      r6,#1
        0x00002b68:    d102        ..      BNE      0x2b70 ; UART_Open + 56
        0x00002b6a:    f7fef961    ..a.    BL       CLK_GetPLLClockFreq ; 0xe30
        0x00002b6e:    9001        ..      STR      r0,[sp,#4]
        0x00002b70:    2d00        .-      CMP      r5,#0
        0x00002b72:    d01b        ..      BEQ      0x2bac ; UART_Open + 116
        0x00002b74:    00b1        ..      LSLS     r1,r6,#2
        0x00002b76:    4668        hF      MOV      r0,sp
        0x00002b78:    5840        @X      LDR      r0,[r0,r1]
        0x00002b7a:    1c79        y.      ADDS     r1,r7,#1
        0x00002b7c:    f7fdfad0    ....    BL       __aeabi_uidiv ; 0x120
        0x00002b80:    4606        .F      MOV      r6,r0
        0x00002b82:    0869        i.      LSRS     r1,r5,#1
        0x00002b84:    1840        @.      ADDS     r0,r0,r1
        0x00002b86:    4629        )F      MOV      r1,r5
        0x00002b88:    f7fdfaca    ....    BL       __aeabi_uidiv ; 0x120
        0x00002b8c:    490b        .I      LDR      r1,[pc,#44] ; [0x2bbc] = 0xffff
        0x00002b8e:    1e80        ..      SUBS     r0,r0,#2
        0x00002b90:    4288        .B      CMP      r0,r1
        0x00002b92:    d907        ..      BLS      0x2ba4 ; UART_Open + 108
        0x00002b94:    00e9        ..      LSLS     r1,r5,#3
        0x00002b96:    1870        p.      ADDS     r0,r6,r1
        0x00002b98:    4629        )F      MOV      r1,r5
        0x00002b9a:    f7fdfac1    ....    BL       __aeabi_uidiv ; 0x120
        0x00002b9e:    0900        ..      LSRS     r0,r0,#4
        0x00002ba0:    1e80        ..      SUBS     r0,r0,#2
        0x00002ba2:    e002        ..      B        0x2baa ; UART_Open + 114
        0x00002ba4:    2103        .!      MOVS     r1,#3
        0x00002ba6:    0709        ..      LSLS     r1,r1,#28
        0x00002ba8:    4308        .C      ORRS     r0,r0,r1
        0x00002baa:    6260        `b      STR      r0,[r4,#0x24]
        0x00002bac:    b005        ..      ADD      sp,sp,#0x14
        0x00002bae:    bdf0        ..      POP      {r4-r7,pc}
    $d
        0x00002bb0:    00004108    .A..    DCD    16648
        0x00002bb4:    50000200    ...P    DCD    1342177792
        0x00002bb8:    fff0ff0f    ....    DCD    4293984015
        0x00002bbc:    0000ffff    ....    DCD    65535
    $t
    i.UART_SetTimeoutCnt
    UART_SetTimeoutCnt
        0x00002bc0:    6a02        .j      LDR      r2,[r0,#0x20]
        0x00002bc2:    0a12        ..      LSRS     r2,r2,#8
        0x00002bc4:    0212        ..      LSLS     r2,r2,#8
        0x00002bc6:    430a        .C      ORRS     r2,r2,r1
        0x00002bc8:    6202        .b      STR      r2,[r0,#0x20]
        0x00002bca:    6841        Ah      LDR      r1,[r0,#4]
        0x00002bcc:    2201        ."      MOVS     r2,#1
        0x00002bce:    02d2        ..      LSLS     r2,r2,#11
        0x00002bd0:    4311        .C      ORRS     r1,r1,r2
        0x00002bd2:    6041        A`      STR      r1,[r0,#4]
        0x00002bd4:    4770        pG      BX       lr
    i.VerifyGps
    VerifyGps
        0x00002bd6:    b518        ..      PUSH     {r3,r4,lr}
        0x00002bd8:    7801        .x      LDRB     r1,[r0,#0]
        0x00002bda:    2200        ."      MOVS     r2,#0
        0x00002bdc:    2924        $)      CMP      r1,#0x24
        0x00002bde:    d116        ..      BNE      0x2c0e ; VerifyGps + 56
        0x00002be0:    1c40        @.      ADDS     r0,r0,#1
        0x00002be2:    7801        .x      LDRB     r1,[r0,#0]
        0x00002be4:    292a        *)      CMP      r1,#0x2a
        0x00002be6:    d001        ..      BEQ      0x2bec ; VerifyGps + 22
        0x00002be8:    404a        J@      EORS     r2,r2,r1
        0x00002bea:    e7f9        ..      B        0x2be0 ; VerifyGps + 10
        0x00002bec:    7841        Ax      LDRB     r1,[r0,#1]
        0x00002bee:    466c        lF      MOV      r4,sp
        0x00002bf0:    7021        !p      STRB     r1,[r4,#0]
        0x00002bf2:    7883        .x      LDRB     r3,[r0,#2]
        0x00002bf4:    7063        cp      STRB     r3,[r4,#1]
        0x00002bf6:    4608        .F      MOV      r0,r1
        0x00002bf8:    f7fdfcb4    ....    BL       AscToHex ; 0x564
        0x00002bfc:    0104        ..      LSLS     r4,r0,#4
        0x00002bfe:    4618        .F      MOV      r0,r3
        0x00002c00:    f7fdfcb0    ....    BL       AscToHex ; 0x564
        0x00002c04:    1820         .      ADDS     r0,r4,r0
        0x00002c06:    4290        .B      CMP      r0,r2
        0x00002c08:    d101        ..      BNE      0x2c0e ; VerifyGps + 56
        0x00002c0a:    2001        .       MOVS     r0,#1
        0x00002c0c:    bd18        ..      POP      {r3,r4,pc}
        0x00002c0e:    2000        .       MOVS     r0,#0
        0x00002c10:    bd18        ..      POP      {r3,r4,pc}
        0x00002c12:    0000        ..      MOVS     r0,r0
    i.WDT_Open
    WDT_Open
        0x00002c14:    b510        ..      PUSH     {r4,lr}
        0x00002c16:    4c05        .L      LDR      r4,[pc,#20] ; [0x2c2c] = 0x40004000
        0x00002c18:    6061        a`      STR      r1,[r4,#4]
        0x00002c1a:    0051        Q.      LSLS     r1,r2,#1
        0x00002c1c:    4301        .C      ORRS     r1,r1,r0
        0x00002c1e:    0118        ..      LSLS     r0,r3,#4
        0x00002c20:    4301        .C      ORRS     r1,r1,r0
        0x00002c22:    2080        .       MOVS     r0,#0x80
        0x00002c24:    4301        .C      ORRS     r1,r1,r0
        0x00002c26:    6021        !`      STR      r1,[r4,#0]
        0x00002c28:    bd10        ..      POP      {r4,pc}
    $d
        0x00002c2a:    0000        ..      DCW    0
        0x00002c2c:    40004000    .@.@    DCD    1073758208
    $t
    i.WaiBuDianYuanPowerOffFun
    WaiBuDianYuanPowerOffFun
        0x00002c30:    4803        .H      LDR      r0,[pc,#12] ; [0x2c40] = 0x200000b0
        0x00002c32:    6dc0        .m      LDR      r0,[r0,#0x5c]
        0x00002c34:    2832        2(      CMP      r0,#0x32
        0x00002c36:    d801        ..      BHI      0x2c3c ; WaiBuDianYuanPowerOffFun + 12
        0x00002c38:    2001        .       MOVS     r0,#1
        0x00002c3a:    4770        pG      BX       lr
        0x00002c3c:    2000        .       MOVS     r0,#0
        0x00002c3e:    4770        pG      BX       lr
    $d
        0x00002c40:    200000b0    ...     DCD    536871088
    $t
    i._PutChar_f
    _PutChar_f
        0x00002c44:    b570        p.      PUSH     {r4-r6,lr}
        0x00002c46:    4c0c        .L      LDR      r4,[pc,#48] ; [0x2c78] = 0x20000090
        0x00002c48:    2500        .%      MOVS     r5,#0
        0x00002c4a:    8923        #.      LDRH     r3,[r4,#8]
        0x00002c4c:    8961        a.      LDRH     r1,[r4,#0xa]
        0x00002c4e:    462a        *F      MOV      r2,r5
        0x00002c50:    29ff        .)      CMP      r1,#0xff
        0x00002c52:    d000        ..      BEQ      0x2c56 ; _PutChar_f + 18
        0x00002c54:    1c4a        J.      ADDS     r2,r1,#1
        0x00002c56:    429a        .B      CMP      r2,r3
        0x00002c58:    d0f9        ..      BEQ      0x2c4e ; _PutChar_f + 10
        0x00002c5a:    4a08        .J      LDR      r2,[pc,#32] ; [0x2c7c] = 0x20000a27
        0x00002c5c:    29ff        .)      CMP      r1,#0xff
        0x00002c5e:    5450        PT      STRB     r0,[r2,r1]
        0x00002c60:    d000        ..      BEQ      0x2c64 ; _PutChar_f + 32
        0x00002c62:    1c4d        M.      ADDS     r5,r1,#1
        0x00002c64:    4806        .H      LDR      r0,[pc,#24] ; [0x2c80] = 0x40050000
        0x00002c66:    8165        e.      STRH     r5,[r4,#0xa]
        0x00002c68:    6841        Ah      LDR      r1,[r0,#4]
        0x00002c6a:    0789        ..      LSLS     r1,r1,#30
        0x00002c6c:    d402        ..      BMI      0x2c74 ; _PutChar_f + 48
        0x00002c6e:    2102        .!      MOVS     r1,#2
        0x00002c70:    f7ffff38    ..8.    BL       UART_EnableInt ; 0x2ae4
        0x00002c74:    bd70        p.      POP      {r4-r6,pc}
    $d
        0x00002c76:    0000        ..      DCW    0
        0x00002c78:    20000090    ...     DCD    536871056
        0x00002c7c:    20000a27    '..     DCD    536873511
        0x00002c80:    40050000    ...@    DCD    1074069504
    $t
    i._PutChar_f1
    _PutChar_f1
        0x00002c84:    b510        ..      PUSH     {r4,lr}
        0x00002c86:    4a09        .J      LDR      r2,[pc,#36] ; [0x2cac] = 0x20000090
        0x00002c88:    4b07        .K      LDR      r3,[pc,#28] ; [0x2ca8] = 0x2000090c
        0x00002c8a:    88d1        ..      LDRH     r1,[r2,#6]
        0x00002c8c:    5458        XT      STRB     r0,[r3,r1]
        0x00002c8e:    2000        .       MOVS     r0,#0
        0x00002c90:    29ff        .)      CMP      r1,#0xff
        0x00002c92:    d000        ..      BEQ      0x2c96 ; _PutChar_f1 + 18
        0x00002c94:    1c48        H.      ADDS     r0,r1,#1
        0x00002c96:    80d0        ..      STRH     r0,[r2,#6]
        0x00002c98:    4805        .H      LDR      r0,[pc,#20] ; [0x2cb0] = 0x40150000
        0x00002c9a:    6841        Ah      LDR      r1,[r0,#4]
        0x00002c9c:    0789        ..      LSLS     r1,r1,#30
        0x00002c9e:    d402        ..      BMI      0x2ca6 ; _PutChar_f1 + 34
        0x00002ca0:    2102        .!      MOVS     r1,#2
        0x00002ca2:    f7ffff1f    ....    BL       UART_EnableInt ; 0x2ae4
        0x00002ca6:    bd10        ..      POP      {r4,pc}
    $d
        0x00002ca8:    2000090c    ...     DCD    536873228
        0x00002cac:    20000090    ...     DCD    536871056
        0x00002cb0:    40150000    ...@    DCD    1075118080
    $t
    i.__ARM_common_switch8
    __ARM_common_switch8
        0x00002cb4:    b430        0.      PUSH     {r4,r5}
        0x00002cb6:    4674        tF      MOV      r4,lr
        0x00002cb8:    1e64        d.      SUBS     r4,r4,#1
        0x00002cba:    7825        %x      LDRB     r5,[r4,#0]
        0x00002cbc:    1c64        d.      ADDS     r4,r4,#1
        0x00002cbe:    42ab        .B      CMP      r3,r5
        0x00002cc0:    d200        ..      BCS      0x2cc4 ; __ARM_common_switch8 + 16
        0x00002cc2:    461d        .F      MOV      r5,r3
        0x00002cc4:    5d63        c]      LDRB     r3,[r4,r5]
        0x00002cc6:    005b        [.      LSLS     r3,r3,#1
        0x00002cc8:    18e3        ..      ADDS     r3,r4,r3
        0x00002cca:    bc30        0.      POP      {r4,r5}
        0x00002ccc:    4718        .G      BX       r3
    i.__scatterload_copy
    __scatterload_copy
        0x00002cce:    e002        ..      B        0x2cd6 ; __scatterload_copy + 8
        0x00002cd0:    c808        ..      LDM      r0!,{r3}
        0x00002cd2:    1f12        ..      SUBS     r2,r2,#4
        0x00002cd4:    c108        ..      STM      r1!,{r3}
        0x00002cd6:    2a00        .*      CMP      r2,#0
        0x00002cd8:    d1fa        ..      BNE      0x2cd0 ; __scatterload_copy + 2
        0x00002cda:    4770        pG      BX       lr
    i.__scatterload_null
    __scatterload_null
        0x00002cdc:    4770        pG      BX       lr
    i.__scatterload_zeroinit
    __scatterload_zeroinit
        0x00002cde:    2000        .       MOVS     r0,#0
        0x00002ce0:    e001        ..      B        0x2ce6 ; __scatterload_zeroinit + 8
        0x00002ce2:    c101        ..      STM      r1!,{r0}
        0x00002ce4:    1f12        ..      SUBS     r2,r2,#4
        0x00002ce6:    2a00        .*      CMP      r2,#0
        0x00002ce8:    d1fb        ..      BNE      0x2ce2 ; __scatterload_zeroinit + 4
        0x00002cea:    4770        pG      BX       lr
    i.jwdcap
    jwdcap
        0x00002cec:    b5f0        ..      PUSH     {r4-r7,lr}
        0x00002cee:    4eff        .N      LDR      r6,[pc,#1020] ; [0x30ec] = 0x20000050
        0x00002cf0:    b08f        ..      SUB      sp,sp,#0x3c
        0x00002cf2:    7d30        0}      LDRB     r0,[r6,#0x14]
        0x00002cf4:    2800        .(      CMP      r0,#0
        0x00002cf6:    d17e        ~.      BNE      0x2df6 ; jwdcap + 266
        0x00002cf8:    4dfd        .M      LDR      r5,[pc,#1012] ; [0x30f0] = 0x200003c8
        0x00002cfa:    4601        .F      MOV      r1,r0
        0x00002cfc:    5c2a        *\      LDRB     r2,[r5,r0]
        0x00002cfe:    4604        .F      MOV      r4,r0
        0x00002d00:    2a2c        ,*      CMP      r2,#0x2c
        0x00002d02:    d101        ..      BNE      0x2d08 ; jwdcap + 28
        0x00002d04:    1c49        I.      ADDS     r1,r1,#1
        0x00002d06:    b2c9        ..      UXTB     r1,r1
        0x00002d08:    2902        .)      CMP      r1,#2
        0x00002d0a:    d003        ..      BEQ      0x2d14 ; jwdcap + 40
        0x00002d0c:    1c60        `.      ADDS     r0,r4,#1
        0x00002d0e:    b2c0        ..      UXTB     r0,r0
        0x00002d10:    282f        /(      CMP      r0,#0x2f
        0x00002d12:    d3f3        ..      BCC      0x2cfc ; jwdcap + 16
        0x00002d14:    1928        (.      ADDS     r0,r5,r4
        0x00002d16:    7840        @x      LDRB     r0,[r0,#1]
        0x00002d18:    2841        A(      CMP      r0,#0x41
        0x00002d1a:    d16d        m.      BNE      0x2df8 ; jwdcap + 268
        0x00002d1c:    2000        .       MOVS     r0,#0
        0x00002d1e:    aa03        ..      ADD      r2,sp,#0xc
        0x00002d20:    1929        ).      ADDS     r1,r5,r4
        0x00002d22:    78c9        .x      LDRB     r1,[r1,#3]
        0x00002d24:    3930        09      SUBS     r1,r1,#0x30
        0x00002d26:    5411        .T      STRB     r1,[r2,r0]
        0x00002d28:    2803        .(      CMP      r0,#3
        0x00002d2a:    d101        ..      BNE      0x2d30 ; jwdcap + 68
        0x00002d2c:    1c64        d.      ADDS     r4,r4,#1
        0x00002d2e:    b2e4        ..      UXTB     r4,r4
        0x00002d30:    1c64        d.      ADDS     r4,r4,#1
        0x00002d32:    1c40        @.      ADDS     r0,r0,#1
        0x00002d34:    b2c0        ..      UXTB     r0,r0
        0x00002d36:    b2e4        ..      UXTB     r4,r4
        0x00002d38:    2809        .(      CMP      r0,#9
        0x00002d3a:    d3f1        ..      BCC      0x2d20 ; jwdcap + 52
        0x00002d3c:    466a        jF      MOV      r2,sp
        0x00002d3e:    7b90        .{      LDRB     r0,[r2,#0xe]
        0x00002d40:    49ec        .I      LDR      r1,[pc,#944] ; [0x30f4] = 0xf4240
        0x00002d42:    9008        ..      STR      r0,[sp,#0x20]
        0x00002d44:    4348        HC      MULS     r0,r1,r0
        0x00002d46:    7bd2        .{      LDRB     r2,[r2,#0xf]
        0x00002d48:    49eb        .I      LDR      r1,[pc,#940] ; [0x30f8] = 0x186a0
        0x00002d4a:    9209        ..      STR      r2,[sp,#0x24]
        0x00002d4c:    434a        JC      MULS     r2,r1,r2
        0x00002d4e:    1881        ..      ADDS     r1,r0,r2
        0x00002d50:    466a        jF      MOV      r2,sp
        0x00002d52:    7c10        .|      LDRB     r0,[r2,#0x10]
        0x00002d54:    4ae9        .J      LDR      r2,[pc,#932] ; [0x30fc] = 0x2710
        0x00002d56:    4350        PC      MULS     r0,r2,r0
        0x00002d58:    1809        ..      ADDS     r1,r1,r0
        0x00002d5a:    466a        jF      MOV      r2,sp
        0x00002d5c:    7c50        P|      LDRB     r0,[r2,#0x11]
        0x00002d5e:    227d        }"      MOVS     r2,#0x7d
        0x00002d60:    00d2        ..      LSLS     r2,r2,#3
        0x00002d62:    4350        PC      MULS     r0,r2,r0
        0x00002d64:    1809        ..      ADDS     r1,r1,r0
        0x00002d66:    466a        jF      MOV      r2,sp
        0x00002d68:    7c90        .|      LDRB     r0,[r2,#0x12]
        0x00002d6a:    2264        d"      MOVS     r2,#0x64
        0x00002d6c:    4350        PC      MULS     r0,r2,r0
        0x00002d6e:    1809        ..      ADDS     r1,r1,r0
        0x00002d70:    466a        jF      MOV      r2,sp
        0x00002d72:    7cd0        .|      LDRB     r0,[r2,#0x13]
        0x00002d74:    220a        ."      MOVS     r2,#0xa
        0x00002d76:    4350        PC      MULS     r0,r2,r0
        0x00002d78:    1808        ..      ADDS     r0,r1,r0
        0x00002d7a:    466a        jF      MOV      r2,sp
        0x00002d7c:    7d11        .}      LDRB     r1,[r2,#0x14]
        0x00002d7e:    1840        @.      ADDS     r0,r0,r1
        0x00002d80:    213c        <!      MOVS     r1,#0x3c
        0x00002d82:    f7fdf9e3    ....    BL       __aeabi_idiv ; 0x14c
        0x00002d86:    466a        jF      MOV      r2,sp
        0x00002d88:    7b11        .{      LDRB     r1,[r2,#0xc]
        0x00002d8a:    4ada        .J      LDR      r2,[pc,#872] ; [0x30f4] = 0xf4240
        0x00002d8c:    460b        .F      MOV      r3,r1
        0x00002d8e:    4353        SC      MULS     r3,r2,r3
        0x00002d90:    466a        jF      MOV      r2,sp
        0x00002d92:    7b52        R{      LDRB     r2,[r2,#0xd]
        0x00002d94:    4fd8        .O      LDR      r7,[pc,#864] ; [0x30f8] = 0x186a0
        0x00002d96:    4694        .F      MOV      r12,r2
        0x00002d98:    437a        zC      MULS     r2,r7,r2
        0x00002d9a:    189a        ..      ADDS     r2,r3,r2
        0x00002d9c:    1880        ..      ADDS     r0,r0,r2
        0x00002d9e:    17c2        ..      ASRS     r2,r0,#31
        0x00002da0:    9006        ..      STR      r0,[sp,#0x18]
        0x00002da2:    9207        ..      STR      r2,[sp,#0x1c]
        0x00002da4:    9808        ..      LDR      r0,[sp,#0x20]
        0x00002da6:    220a        ."      MOVS     r2,#0xa
        0x00002da8:    4350        PC      MULS     r0,r2,r0
        0x00002daa:    9a09        ..      LDR      r2,[sp,#0x24]
        0x00002dac:    4bd4        .K      LDR      r3,[pc,#848] ; [0x3100] = 0x3f5c
        0x00002dae:    1882        ..      ADDS     r2,r0,r2
        0x00002db0:    d00e        ..      BEQ      0x2dd0 ; jwdcap + 228
        0x00002db2:    200a        .       MOVS     r0,#0xa
        0x00002db4:    4341        AC      MULS     r1,r0,r1
        0x00002db6:    4660        `F      MOV      r0,r12
        0x00002db8:    1808        ..      ADDS     r0,r1,r0
        0x00002dba:    0080        ..      LSLS     r0,r0,#2
        0x00002dbc:    581f        .X      LDR      r7,[r3,r0]
        0x00002dbe:    18c0        ..      ADDS     r0,r0,r3
        0x00002dc0:    6840        @h      LDR      r0,[r0,#4]
        0x00002dc2:    213c        <!      MOVS     r1,#0x3c
        0x00002dc4:    1a38        8.      SUBS     r0,r7,r0
        0x00002dc6:    4350        PC      MULS     r0,r2,r0
        0x00002dc8:    f7fdf9aa    ....    BL       __aeabi_uidiv ; 0x120
        0x00002dcc:    1a38        8.      SUBS     r0,r7,r0
        0x00002dce:    e005        ..      B        0x2ddc ; jwdcap + 240
        0x00002dd0:    200a        .       MOVS     r0,#0xa
        0x00002dd2:    4341        AC      MULS     r1,r0,r1
        0x00002dd4:    4660        `F      MOV      r0,r12
        0x00002dd6:    1808        ..      ADDS     r0,r1,r0
        0x00002dd8:    0080        ..      LSLS     r0,r0,#2
        0x00002dda:    5818        .X      LDR      r0,[r3,r0]
        0x00002ddc:    2100        .!      MOVS     r1,#0
        0x00002dde:    9008        ..      STR      r0,[sp,#0x20]
        0x00002de0:    9109        ..      STR      r1,[sp,#0x24]
        0x00002de2:    4608        .F      MOV      r0,r1
        0x00002de4:    466a        jF      MOV      r2,sp
        0x00002de6:    1929        ).      ADDS     r1,r5,r4
        0x00002de8:    7989        .y      LDRB     r1,[r1,#6]
        0x00002dea:    3930        09      SUBS     r1,r1,#0x30
        0x00002dec:    5411        .T      STRB     r1,[r2,r0]
        0x00002dee:    2804        .(      CMP      r0,#4
        0x00002df0:    d104        ..      BNE      0x2dfc ; jwdcap + 272
        0x00002df2:    1c64        d.      ADDS     r4,r4,#1
        0x00002df4:    e001        ..      B        0x2dfa ; jwdcap + 270
        0x00002df6:    e1a2        ..      B        0x313e ; jwdcap + 1106
        0x00002df8:    e15f        _.      B        0x30ba ; jwdcap + 974
        0x00002dfa:    b2e4        ..      UXTB     r4,r4
        0x00002dfc:    1c64        d.      ADDS     r4,r4,#1
        0x00002dfe:    1c40        @.      ADDS     r0,r0,#1
        0x00002e00:    b2c0        ..      UXTB     r0,r0
        0x00002e02:    b2e4        ..      UXTB     r4,r4
        0x00002e04:    280a        .(      CMP      r0,#0xa
        0x00002e06:    d3ee        ..      BCC      0x2de6 ; jwdcap + 250
        0x00002e08:    78d0        .x      LDRB     r0,[r2,#3]
        0x00002e0a:    49ba        .I      LDR      r1,[pc,#744] ; [0x30f4] = 0xf4240
        0x00002e0c:    4348        HC      MULS     r0,r1,r0
        0x00002e0e:    7911        .y      LDRB     r1,[r2,#4]
        0x00002e10:    4ab9        .J      LDR      r2,[pc,#740] ; [0x30f8] = 0x186a0
        0x00002e12:    4351        QC      MULS     r1,r2,r1
        0x00002e14:    1841        A.      ADDS     r1,r0,r1
        0x00002e16:    466a        jF      MOV      r2,sp
        0x00002e18:    7950        Py      LDRB     r0,[r2,#5]
        0x00002e1a:    4ab8        .J      LDR      r2,[pc,#736] ; [0x30fc] = 0x2710
        0x00002e1c:    4350        PC      MULS     r0,r2,r0
        0x00002e1e:    1809        ..      ADDS     r1,r1,r0
        0x00002e20:    466a        jF      MOV      r2,sp
        0x00002e22:    7990        .y      LDRB     r0,[r2,#6]
        0x00002e24:    227d        }"      MOVS     r2,#0x7d
        0x00002e26:    00d2        ..      LSLS     r2,r2,#3
        0x00002e28:    4350        PC      MULS     r0,r2,r0
        0x00002e2a:    1809        ..      ADDS     r1,r1,r0
        0x00002e2c:    466a        jF      MOV      r2,sp
        0x00002e2e:    79d0        .y      LDRB     r0,[r2,#7]
        0x00002e30:    2264        d"      MOVS     r2,#0x64
        0x00002e32:    4350        PC      MULS     r0,r2,r0
        0x00002e34:    1809        ..      ADDS     r1,r1,r0
        0x00002e36:    466a        jF      MOV      r2,sp
        0x00002e38:    7a10        .z      LDRB     r0,[r2,#8]
        0x00002e3a:    220a        ."      MOVS     r2,#0xa
        0x00002e3c:    4350        PC      MULS     r0,r2,r0
        0x00002e3e:    1808        ..      ADDS     r0,r1,r0
        0x00002e40:    466a        jF      MOV      r2,sp
        0x00002e42:    7a51        Qz      LDRB     r1,[r2,#9]
        0x00002e44:    1840        @.      ADDS     r0,r0,r1
        0x00002e46:    213c        <!      MOVS     r1,#0x3c
        0x00002e48:    f7fdf980    ....    BL       __aeabi_idiv ; 0x14c
        0x00002e4c:    466a        jF      MOV      r2,sp
        0x00002e4e:    7811        .x      LDRB     r1,[r2,#0]
        0x00002e50:    4aac        .J      LDR      r2,[pc,#688] ; [0x3104] = 0x989680
        0x00002e52:    4ba8        .K      LDR      r3,[pc,#672] ; [0x30f4] = 0xf4240
        0x00002e54:    4351        QC      MULS     r1,r2,r1
        0x00002e56:    466a        jF      MOV      r2,sp
        0x00002e58:    7852        Rx      LDRB     r2,[r2,#1]
        0x00002e5a:    4cab        .L      LDR      r4,[pc,#684] ; [0x3108] = 0x20000c80
        0x00002e5c:    435a        ZC      MULS     r2,r3,r2
        0x00002e5e:    188b        ..      ADDS     r3,r1,r2
        0x00002e60:    466a        jF      MOV      r2,sp
        0x00002e62:    7891        .x      LDRB     r1,[r2,#2]
        0x00002e64:    4aa4        .J      LDR      r2,[pc,#656] ; [0x30f8] = 0x186a0
        0x00002e66:    4625        %F      MOV      r5,r4
        0x00002e68:    4351        QC      MULS     r1,r2,r1
        0x00002e6a:    1859        Y.      ADDS     r1,r3,r1
        0x00002e6c:    1847        G.      ADDS     r7,r0,r1
        0x00002e6e:    17fb        ..      ASRS     r3,r7,#31
        0x00002e70:    930a        ..      STR      r3,[sp,#0x28]
        0x00002e72:    68a1        .h      LDR      r1,[r4,#8]
        0x00002e74:    68e0        .h      LDR      r0,[r4,#0xc]
        0x00002e76:    6021        !`      STR      r1,[r4,#0]
        0x00002e78:    6060        ``      STR      r0,[r4,#4]
        0x00002e7a:    3518        .5      ADDS     r5,r5,#0x18
        0x00002e7c:    910e        ..      STR      r1,[sp,#0x38]
        0x00002e7e:    900d        ..      STR      r0,[sp,#0x34]
        0x00002e80:    68a9        .h      LDR      r1,[r5,#8]
        0x00002e82:    68e8        .h      LDR      r0,[r5,#0xc]
        0x00002e84:    6029        )`      STR      r1,[r5,#0]
        0x00002e86:    6068        h`      STR      r0,[r5,#4]
        0x00002e88:    910c        ..      STR      r1,[sp,#0x30]
        0x00002e8a:    900b        ..      STR      r0,[sp,#0x2c]
        0x00002e8c:    4a9f        .J      LDR      r2,[pc,#636] ; [0x310c] = 0x1b224
        0x00002e8e:    2300        .#      MOVS     r3,#0
        0x00002e90:    9909        ..      LDR      r1,[sp,#0x24]
        0x00002e92:    9808        ..      LDR      r0,[sp,#0x20]
        0x00002e94:    f7fdf99e    ....    BL       __aeabi_lmul ; 0x1d4
        0x00002e98:    4a97        .J      LDR      r2,[pc,#604] ; [0x30f8] = 0x186a0
        0x00002e9a:    2300        .#      MOVS     r3,#0
        0x00002e9c:    f7fdf96a    ..j.    BL       __aeabi_uldivmod ; 0x174
        0x00002ea0:    463a        :F      MOV      r2,r7
        0x00002ea2:    9b0a        ..      LDR      r3,[sp,#0x28]
        0x00002ea4:    f7fdf996    ....    BL       __aeabi_lmul ; 0x1d4
        0x00002ea8:    4a93        .J      LDR      r2,[pc,#588] ; [0x30f8] = 0x186a0
        0x00002eaa:    2300        .#      MOVS     r3,#0
        0x00002eac:    f7fdf962    ..b.    BL       __aeabi_uldivmod ; 0x174
        0x00002eb0:    60e1        .`      STR      r1,[r4,#0xc]
        0x00002eb2:    60a0        .`      STR      r0,[r4,#8]
        0x00002eb4:    4604        .F      MOV      r4,r0
        0x00002eb6:    9109        ..      STR      r1,[sp,#0x24]
        0x00002eb8:    4a94        .J      LDR      r2,[pc,#592] ; [0x310c] = 0x1b224
        0x00002eba:    2300        .#      MOVS     r3,#0
        0x00002ebc:    9907        ..      LDR      r1,[sp,#0x1c]
        0x00002ebe:    9806        ..      LDR      r0,[sp,#0x18]
        0x00002ec0:    f7fdf988    ....    BL       __aeabi_lmul ; 0x1d4
        0x00002ec4:    4a8c        .J      LDR      r2,[pc,#560] ; [0x30f8] = 0x186a0
        0x00002ec6:    2300        .#      MOVS     r3,#0
        0x00002ec8:    f7fdf954    ..T.    BL       __aeabi_uldivmod ; 0x174
        0x00002ecc:    60e9        .`      STR      r1,[r5,#0xc]
        0x00002ece:    60a8        .`      STR      r0,[r5,#8]
        0x00002ed0:    7c32        2|      LDRB     r2,[r6,#0x10]
        0x00002ed2:    920a        ..      STR      r2,[sp,#0x28]
        0x00002ed4:    2a00        .*      CMP      r2,#0
        0x00002ed6:    d07e        ~.      BEQ      0x2fd6 ; jwdcap + 746
        0x00002ed8:    4a8b        .J      LDR      r2,[pc,#556] ; [0x3108] = 0x20000c80
        0x00002eda:    7db3        .}      LDRB     r3,[r6,#0x16]
        0x00002edc:    6915        .i      LDR      r5,[r2,#0x10]
        0x00002ede:    6952        Ri      LDR      r2,[r2,#0x14]
        0x00002ee0:    9207        ..      STR      r2,[sp,#0x1c]
        0x00002ee2:    4a89        .J      LDR      r2,[pc,#548] ; [0x3108] = 0x20000c80
        0x00002ee4:    9506        ..      STR      r5,[sp,#0x18]
        0x00002ee6:    3218        .2      ADDS     r2,r2,#0x18
        0x00002ee8:    6917        .i      LDR      r7,[r2,#0x10]
        0x00002eea:    6952        Ri      LDR      r2,[r2,#0x14]
        0x00002eec:    9208        ..      STR      r2,[sp,#0x20]
        0x00002eee:    2b02        .+      CMP      r3,#2
        0x00002ef0:    d055        U.      BEQ      0x2f9e ; jwdcap + 690
        0x00002ef2:    462b        +F      MOV      r3,r5
        0x00002ef4:    9d07        ..      LDR      r5,[sp,#0x1c]
        0x00002ef6:    9a09        ..      LDR      r2,[sp,#0x24]
        0x00002ef8:    1ae3        ..      SUBS     r3,r4,r3
        0x00002efa:    41aa        .A      SBCS     r2,r2,r5
        0x00002efc:    d204        ..      BCS      0x2f08 ; jwdcap + 540
        0x00002efe:    9b06        ..      LDR      r3,[sp,#0x18]
        0x00002f00:    462a        *F      MOV      r2,r5
        0x00002f02:    9d09        ..      LDR      r5,[sp,#0x24]
        0x00002f04:    1b1c        ..      SUBS     r4,r3,r4
        0x00002f06:    e002        ..      B        0x2f0e ; jwdcap + 546
        0x00002f08:    9b06        ..      LDR      r3,[sp,#0x18]
        0x00002f0a:    9a09        ..      LDR      r2,[sp,#0x24]
        0x00002f0c:    1ae4        ..      SUBS     r4,r4,r3
        0x00002f0e:    4b77        wK      LDR      r3,[pc,#476] ; [0x30ec] = 0x20000050
        0x00002f10:    41aa        .A      SBCS     r2,r2,r5
        0x00002f12:    33e0        .3      ADDS     r3,r3,#0xe0
        0x00002f14:    659c        .e      STR      r4,[r3,#0x58]
        0x00002f16:    65da        .e      STR      r2,[r3,#0x5c]
        0x00002f18:    9b08        ..      LDR      r3,[sp,#0x20]
        0x00002f1a:    460a        .F      MOV      r2,r1
        0x00002f1c:    1bc4        ..      SUBS     r4,r0,r7
        0x00002f1e:    419a        .A      SBCS     r2,r2,r3
        0x00002f20:    461a        .F      MOV      r2,r3
        0x00002f22:    d206        ..      BCS      0x2f32 ; jwdcap + 582
        0x00002f24:    1a3b        ;.      SUBS     r3,r7,r0
        0x00002f26:    4871        qH      LDR      r0,[pc,#452] ; [0x30ec] = 0x20000050
        0x00002f28:    418a        .A      SBCS     r2,r2,r1
        0x00002f2a:    30e0        .0      ADDS     r0,r0,#0xe0
        0x00002f2c:    6603        .f      STR      r3,[r0,#0x60]
        0x00002f2e:    6642        Bf      STR      r2,[r0,#0x64]
        0x00002f30:    e005        ..      B        0x2f3e ; jwdcap + 594
        0x00002f32:    1bc3        ..      SUBS     r3,r0,r7
        0x00002f34:    486d        mH      LDR      r0,[pc,#436] ; [0x30ec] = 0x20000050
        0x00002f36:    4191        .A      SBCS     r1,r1,r2
        0x00002f38:    30e0        .0      ADDS     r0,r0,#0xe0
        0x00002f3a:    6603        .f      STR      r3,[r0,#0x60]
        0x00002f3c:    6641        Af      STR      r1,[r0,#0x64]
        0x00002f3e:    496b        kI      LDR      r1,[pc,#428] ; [0x30ec] = 0x20000050
        0x00002f40:    31e0        .1      ADDS     r1,r1,#0xe0
        0x00002f42:    6d88        .m      LDR      r0,[r1,#0x58]
        0x00002f44:    6dc9        .m      LDR      r1,[r1,#0x5c]
        0x00002f46:    4602        .F      MOV      r2,r0
        0x00002f48:    460b        .F      MOV      r3,r1
        0x00002f4a:    f7fdf943    ..C.    BL       __aeabi_lmul ; 0x1d4
        0x00002f4e:    460d        .F      MOV      r5,r1
        0x00002f50:    496f        oI      LDR      r1,[pc,#444] ; [0x3110] = 0x20000130
        0x00002f52:    4604        .F      MOV      r4,r0
        0x00002f54:    6e08        .n      LDR      r0,[r1,#0x60]
        0x00002f56:    6e49        In      LDR      r1,[r1,#0x64]
        0x00002f58:    4602        .F      MOV      r2,r0
        0x00002f5a:    460b        .F      MOV      r3,r1
        0x00002f5c:    f7fdf93a    ..:.    BL       __aeabi_lmul ; 0x1d4
        0x00002f60:    1822        ".      ADDS     r2,r4,r0
        0x00002f62:    414d        MA      ADCS     r5,r5,r1
        0x00002f64:    486a        jH      LDR      r0,[pc,#424] ; [0x3110] = 0x20000130
        0x00002f66:    2151        Q!      MOVS     r1,#0x51
        0x00002f68:    66c5        .f      STR      r5,[r0,#0x6c]
        0x00002f6a:    6682        .f      STR      r2,[r0,#0x68]
        0x00002f6c:    2000        .       MOVS     r0,#0
        0x00002f6e:    1a89        ..      SUBS     r1,r1,r2
        0x00002f70:    41a8        .A      SBCS     r0,r0,r5
        0x00002f72:    d202        ..      BCS      0x2f7a ; jwdcap + 654
        0x00002f74:    2001        .       MOVS     r0,#1
        0x00002f76:    7570        pu      STRB     r0,[r6,#0x15]
        0x00002f78:    e002        ..      B        0x2f80 ; jwdcap + 660
        0x00002f7a:    7d70        p}      LDRB     r0,[r6,#0x15]
        0x00002f7c:    2800        .(      CMP      r0,#0
        0x00002f7e:    d01f        ..      BEQ      0x2fc0 ; jwdcap + 724
        0x00002f80:    2124        $!      MOVS     r1,#0x24
        0x00002f82:    2000        .       MOVS     r0,#0
        0x00002f84:    1a89        ..      SUBS     r1,r1,r2
        0x00002f86:    41a8        .A      SBCS     r0,r0,r5
        0x00002f88:    d31a        ..      BCC      0x2fc0 ; jwdcap + 724
        0x00002f8a:    980a        ..      LDR      r0,[sp,#0x28]
        0x00002f8c:    2803        .(      CMP      r0,#3
        0x00002f8e:    d317        ..      BCC      0x2fc0 ; jwdcap + 724
        0x00002f90:    2000        .       MOVS     r0,#0
        0x00002f92:    7570        pu      STRB     r0,[r6,#0x15]
        0x00002f94:    485c        \H      LDR      r0,[pc,#368] ; [0x3108] = 0x20000c80
        0x00002f96:    9a07        ..      LDR      r2,[sp,#0x1c]
        0x00002f98:    9906        ..      LDR      r1,[sp,#0x18]
        0x00002f9a:    6081        .`      STR      r1,[r0,#8]
        0x00002f9c:    e008        ..      B        0x2fb0 ; jwdcap + 708
        0x00002f9e:    980a        ..      LDR      r0,[sp,#0x28]
        0x00002fa0:    2803        .(      CMP      r0,#3
        0x00002fa2:    d30d        ..      BCC      0x2fc0 ; jwdcap + 724
        0x00002fa4:    2000        .       MOVS     r0,#0
        0x00002fa6:    75b0        .u      STRB     r0,[r6,#0x16]
        0x00002fa8:    7570        pu      STRB     r0,[r6,#0x15]
        0x00002faa:    4857        WH      LDR      r0,[pc,#348] ; [0x3108] = 0x20000c80
        0x00002fac:    9a07        ..      LDR      r2,[sp,#0x1c]
        0x00002fae:    6085        .`      STR      r5,[r0,#8]
        0x00002fb0:    60c2        .`      STR      r2,[r0,#0xc]
        0x00002fb2:    4855        UH      LDR      r0,[pc,#340] ; [0x3108] = 0x20000c80
        0x00002fb4:    9908        ..      LDR      r1,[sp,#0x20]
        0x00002fb6:    3018        .0      ADDS     r0,r0,#0x18
        0x00002fb8:    6087        .`      STR      r7,[r0,#8]
        0x00002fba:    60c1        .`      STR      r1,[r0,#0xc]
        0x00002fbc:    2001        .       MOVS     r0,#1
        0x00002fbe:    7530        0u      STRB     r0,[r6,#0x14]
        0x00002fc0:    4b51        QK      LDR      r3,[pc,#324] ; [0x3108] = 0x20000c80
        0x00002fc2:    990d        ..      LDR      r1,[sp,#0x34]
        0x00002fc4:    3318        .3      ADDS     r3,r3,#0x18
        0x00002fc6:    689a        .h      LDR      r2,[r3,#8]
        0x00002fc8:    980e        ..      LDR      r0,[sp,#0x38]
        0x00002fca:    68db        .h      LDR      r3,[r3,#0xc]
        0x00002fcc:    f7fdf902    ....    BL       __aeabi_lmul ; 0x1d4
        0x00002fd0:    4f4f        OO      LDR      r7,[pc,#316] ; [0x3110] = 0x20000130
        0x00002fd2:    4605        .F      MOV      r5,r0
        0x00002fd4:    e000        ..      B        0x2fd8 ; jwdcap + 748
        0x00002fd6:    e061        a.      B        0x309c ; jwdcap + 944
        0x00002fd8:    64f9        .d      STR      r1,[r7,#0x4c]
        0x00002fda:    460c        .F      MOV      r4,r1
        0x00002fdc:    64b8        .d      STR      r0,[r7,#0x48]
        0x00002fde:    494a        JI      LDR      r1,[pc,#296] ; [0x3108] = 0x20000c80
        0x00002fe0:    9b0b        ..      LDR      r3,[sp,#0x2c]
        0x00002fe2:    6888        .h      LDR      r0,[r1,#8]
        0x00002fe4:    68c9        .h      LDR      r1,[r1,#0xc]
        0x00002fe6:    9a0c        ..      LDR      r2,[sp,#0x30]
        0x00002fe8:    f7fdf8f4    ....    BL       __aeabi_lmul ; 0x1d4
        0x00002fec:    6579        ye      STR      r1,[r7,#0x54]
        0x00002fee:    6538        8e      STR      r0,[r7,#0x50]
        0x00002ff0:    4684        .F      MOV      r12,r0
        0x00002ff2:    460a        .F      MOV      r2,r1
        0x00002ff4:    4638        8F      MOV      r0,r7
        0x00002ff6:    7c73        s|      LDRB     r3,[r6,#0x11]
        0x00002ff8:    6a01        .j      LDR      r1,[r0,#0x20]
        0x00002ffa:    6a40        @j      LDR      r0,[r0,#0x24]
        0x00002ffc:    2b00        .+      CMP      r3,#0
        0x00002ffe:    d00f        ..      BEQ      0x3020 ; jwdcap + 820
        0x00003000:    4663        cF      MOV      r3,r12
        0x00003002:    4617        .F      MOV      r7,r2
        0x00003004:    1b5b        [.      SUBS     r3,r3,r5
        0x00003006:    41a7        .A      SBCS     r7,r7,r4
        0x00003008:    d330        0.      BCC      0x306c ; jwdcap + 896
        0x0000300a:    4667        gF      MOV      r7,r12
        0x0000300c:    1b7d        }.      SUBS     r5,r7,r5
        0x0000300e:    4b40        @K      LDR      r3,[pc,#256] ; [0x3110] = 0x20000130
        0x00003010:    41a2        .A      SBCS     r2,r2,r4
        0x00003012:    629d        .b      STR      r5,[r3,#0x28]
        0x00003014:    1949        I.      ADDS     r1,r1,r5
        0x00003016:    62da        .b      STR      r2,[r3,#0x2c]
        0x00003018:    4150        PA      ADCS     r0,r0,r2
        0x0000301a:    6219        .b      STR      r1,[r3,#0x20]
        0x0000301c:    6258        Xb      STR      r0,[r3,#0x24]
        0x0000301e:    e044        D.      B        0x30aa ; jwdcap + 958
        0x00003020:    4663        cF      MOV      r3,r12
        0x00003022:    4627        'F      MOV      r7,r4
        0x00003024:    1aeb        ..      SUBS     r3,r5,r3
        0x00003026:    4197        .A      SBCS     r7,r7,r2
        0x00003028:    d309        ..      BCC      0x303e ; jwdcap + 850
        0x0000302a:    4663        cF      MOV      r3,r12
        0x0000302c:    1aeb        ..      SUBS     r3,r5,r3
        0x0000302e:    4194        .A      SBCS     r4,r4,r2
        0x00003030:    4f37        7O      LDR      r7,[pc,#220] ; [0x3110] = 0x20000130
        0x00003032:    18ca        ..      ADDS     r2,r1,r3
        0x00003034:    62fc        .b      STR      r4,[r7,#0x2c]
        0x00003036:    62bb        .b      STR      r3,[r7,#0x28]
        0x00003038:    4160        `A      ADCS     r0,r0,r4
        0x0000303a:    623a        :b      STR      r2,[r7,#0x20]
        0x0000303c:    e025        %.      B        0x308a ; jwdcap + 926
        0x0000303e:    4667        gF      MOV      r7,r12
        0x00003040:    1b7d        }.      SUBS     r5,r7,r5
        0x00003042:    41a2        .A      SBCS     r2,r2,r4
        0x00003044:    4b32        2K      LDR      r3,[pc,#200] ; [0x3110] = 0x20000130
        0x00003046:    4604        .F      MOV      r4,r0
        0x00003048:    629d        .b      STR      r5,[r3,#0x28]
        0x0000304a:    62da        .b      STR      r2,[r3,#0x2c]
        0x0000304c:    1b4f        O.      SUBS     r7,r1,r5
        0x0000304e:    4613        .F      MOV      r3,r2
        0x00003050:    4194        .A      SBCS     r4,r4,r2
        0x00003052:    4a2f        /J      LDR      r2,[pc,#188] ; [0x3110] = 0x20000130
        0x00003054:    d304        ..      BCC      0x3060 ; jwdcap + 884
        0x00003056:    1b49        I.      SUBS     r1,r1,r5
        0x00003058:    4198        .A      SBCS     r0,r0,r3
        0x0000305a:    6211        .b      STR      r1,[r2,#0x20]
        0x0000305c:    6250        Pb      STR      r0,[r2,#0x24]
        0x0000305e:    e024        $.      B        0x30aa ; jwdcap + 958
        0x00003060:    1a69        i.      SUBS     r1,r5,r1
        0x00003062:    4183        .A      SBCS     r3,r3,r0
        0x00003064:    6253        Sb      STR      r3,[r2,#0x24]
        0x00003066:    2001        .       MOVS     r0,#1
        0x00003068:    6211        .b      STR      r1,[r2,#0x20]
        0x0000306a:    e015        ..      B        0x3098 ; jwdcap + 940
        0x0000306c:    4663        cF      MOV      r3,r12
        0x0000306e:    1aeb        ..      SUBS     r3,r5,r3
        0x00003070:    4f27        'O      LDR      r7,[pc,#156] ; [0x3110] = 0x20000130
        0x00003072:    4194        .A      SBCS     r4,r4,r2
        0x00003074:    62fc        .b      STR      r4,[r7,#0x2c]
        0x00003076:    4622        "F      MOV      r2,r4
        0x00003078:    1acc        ..      SUBS     r4,r1,r3
        0x0000307a:    4605        .F      MOV      r5,r0
        0x0000307c:    62bb        .b      STR      r3,[r7,#0x28]
        0x0000307e:    4195        .A      SBCS     r5,r5,r2
        0x00003080:    463c        <F      MOV      r4,r7
        0x00003082:    d304        ..      BCC      0x308e ; jwdcap + 930
        0x00003084:    1ac9        ..      SUBS     r1,r1,r3
        0x00003086:    4190        .A      SBCS     r0,r0,r2
        0x00003088:    6221        !b      STR      r1,[r4,#0x20]
        0x0000308a:    6278        xb      STR      r0,[r7,#0x24]
        0x0000308c:    e00d        ..      B        0x30aa ; jwdcap + 958
        0x0000308e:    1a59        Y.      SUBS     r1,r3,r1
        0x00003090:    4182        .A      SBCS     r2,r2,r0
        0x00003092:    6221        !b      STR      r1,[r4,#0x20]
        0x00003094:    2000        .       MOVS     r0,#0
        0x00003096:    627a        zb      STR      r2,[r7,#0x24]
        0x00003098:    7470        pt      STRB     r0,[r6,#0x11]
        0x0000309a:    e006        ..      B        0x30aa ; jwdcap + 958
        0x0000309c:    4a1a        .J      LDR      r2,[pc,#104] ; [0x3108] = 0x20000c80
        0x0000309e:    9b09        ..      LDR      r3,[sp,#0x24]
        0x000030a0:    6114        .a      STR      r4,[r2,#0x10]
        0x000030a2:    6153        Sa      STR      r3,[r2,#0x14]
        0x000030a4:    3218        .2      ADDS     r2,r2,#0x18
        0x000030a6:    6151        Qa      STR      r1,[r2,#0x14]
        0x000030a8:    6110        .a      STR      r0,[r2,#0x10]
        0x000030aa:    980a        ..      LDR      r0,[sp,#0x28]
        0x000030ac:    1c40        @.      ADDS     r0,r0,#1
        0x000030ae:    b2c0        ..      UXTB     r0,r0
        0x000030b0:    7430        0t      STRB     r0,[r6,#0x10]
        0x000030b2:    2803        .(      CMP      r0,#3
        0x000030b4:    d301        ..      BCC      0x30ba ; jwdcap + 974
        0x000030b6:    2003        .       MOVS     r0,#3
        0x000030b8:    7430        0t      STRB     r0,[r6,#0x10]
        0x000030ba:    4c0c        .L      LDR      r4,[pc,#48] ; [0x30ec] = 0x20000050
        0x000030bc:    7d30        0}      LDRB     r0,[r6,#0x14]
        0x000030be:    4d15        .M      LDR      r5,[pc,#84] ; [0x3114] = 0x2000075b
        0x000030c0:    3420         4      ADDS     r4,r4,#0x20
        0x000030c2:    2800        .(      CMP      r0,#0
        0x000030c4:    d028        (.      BEQ      0x3118 ; jwdcap + 1068
        0x000030c6:    4f12        .O      LDR      r7,[pc,#72] ; [0x3110] = 0x20000130
        0x000030c8:    2203        ."      MOVS     r2,#3
        0x000030ca:    2300        .#      MOVS     r3,#0
        0x000030cc:    6a79        yj      LDR      r1,[r7,#0x24]
        0x000030ce:    6a38        8j      LDR      r0,[r7,#0x20]
        0x000030d0:    f7fdf880    ....    BL       __aeabi_lmul ; 0x1d4
        0x000030d4:    22ff        ."      MOVS     r2,#0xff
        0x000030d6:    3291        .2      ADDS     r2,r2,#0x91
        0x000030d8:    2300        .#      MOVS     r3,#0
        0x000030da:    f7fdf84b    ..K.    BL       __aeabi_uldivmod ; 0x174
        0x000030de:    6279        yb      STR      r1,[r7,#0x24]
        0x000030e0:    6238        8b      STR      r0,[r7,#0x20]
        0x000030e2:    2700        .'      MOVS     r7,#0
        0x000030e4:    7437        7t      STRB     r7,[r6,#0x10]
        0x000030e6:    b280        ..      UXTH     r0,r0
        0x000030e8:    4629        )F      MOV      r1,r5
        0x000030ea:    e023        #.      B        0x3134 ; jwdcap + 1096
    $d
        0x000030ec:    20000050    P..     DCD    536870992
        0x000030f0:    200003c8    ...     DCD    536871880
        0x000030f4:    000f4240    @B..    DCD    1000000
        0x000030f8:    000186a0    ....    DCD    100000
        0x000030fc:    00002710    .'..    DCD    10000
        0x00003100:    00003f5c    \?..    DCD    16220
        0x00003104:    00989680    ....    DCD    10000000
        0x00003108:    20000c80    ...     DCD    536874112
        0x0000310c:    0001b224    $...    DCD    111140
        0x00003110:    20000130    0..     DCD    536871216
        0x00003114:    2000075b    [..     DCD    536872795
    $t
        0x00003118:    7db0        .}      LDRB     r0,[r6,#0x16]
        0x0000311a:    2802        .(      CMP      r0,#2
        0x0000311c:    d10f        ..      BNE      0x313e ; jwdcap + 1106
        0x0000311e:    7df0        .}      LDRB     r0,[r6,#0x17]
        0x00003120:    2864        d(      CMP      r0,#0x64
        0x00003122:    d30c        ..      BCC      0x313e ; jwdcap + 1106
        0x00003124:    2700        .'      MOVS     r7,#0
        0x00003126:    4807        .H      LDR      r0,[pc,#28] ; [0x3144] = 0x20000130
        0x00003128:    75b7        .u      STRB     r7,[r6,#0x16]
        0x0000312a:    6207        .b      STR      r7,[r0,#0x20]
        0x0000312c:    6247        Gb      STR      r7,[r0,#0x24]
        0x0000312e:    7437        7t      STRB     r7,[r6,#0x10]
        0x00003130:    4629        )F      MOV      r1,r5
        0x00003132:    4638        8F      MOV      r0,r7
        0x00003134:    f7fdff88    ....    BL       ConverJMdataToASC ; 0x1048
        0x00003138:    2001        .       MOVS     r0,#1
        0x0000313a:    7420         t      STRB     r0,[r4,#0x10]
        0x0000313c:    7677        wv      STRB     r7,[r6,#0x19]
        0x0000313e:    b00f        ..      ADD      sp,sp,#0x3c
        0x00003140:    bdf0        ..      POP      {r4-r7,pc}
    $d
        0x00003142:    0000        ..      DCW    0
        0x00003144:    20000130    0..     DCD    536871216
    $t
    i.main
    main
        0x00003148:    b0d4        ..      SUB      sp,sp,#0x150
        0x0000314a:    48ff        .H      LDR      r0,[pc,#1020] ; [0x3548] = 0x40180000
        0x0000314c:    9000        ..      STR      r0,[sp,#0]
        0x0000314e:    f7fff885    ....    BL       SYS_UnlockReg ; 0x225c
        0x00003152:    48fe        .H      LDR      r0,[pc,#1016] ; [0x354c] = 0x40004000
        0x00003154:    2600        .&      MOVS     r6,#0
        0x00003156:    6006        .`      STR      r6,[r0,#0]
        0x00003158:    f7fff822    ..".    BL       SYS_Init ; 0x21a0
        0x0000315c:    4dfc        .M      LDR      r5,[pc,#1008] ; [0x3550] = 0x50000100
        0x0000315e:    602e        .`      STR      r6,[r5,#0]
        0x00003160:    f7fff87c    ..|.    BL       SYS_UnlockReg ; 0x225c
        0x00003164:    f7fefabe    ....    BL       GPIO_INIT ; 0x16e4
        0x00003168:    f7fdf8f4    ....    BL       ADC_INIT ; 0x354
        0x0000316c:    f7fffbc2    ....    BL       UART0_Init ; 0x28f4
        0x00003170:    f7fffc7a    ..z.    BL       UART1_Init ; 0x2a68
        0x00003174:    f7fffc9e    ....    BL       UART2_Init ; 0x2ab4
        0x00003178:    f7fff914    ....    BL       TIMER0_Init ; 0x23a4
        0x0000317c:    f7fff932    ..2.    BL       TIMER2_Init ; 0x23e4
        0x00003180:    f7fff950    ..P.    BL       TIMER3_Init ; 0x2424
        0x00003184:    f7fdf914    ....    BL       AVclose ; 0x3b0
        0x00003188:    2000        .       MOVS     r0,#0
        0x0000318a:    f7fff877    ..w.    BL       Send_changepage ; 0x227c
        0x0000318e:    f7fef9a9    ....    BL       EEPROMread_boundstate ; 0x14e4
        0x00003192:    4cf0        .L      LDR      r4,[pc,#960] ; [0x3554] = 0x200000b0
        0x00003194:    0781        ..      LSLS     r1,r0,#30
        0x00003196:    6420         d      STR      r0,[r4,#0x40]
        0x00003198:    d502        ..      BPL      0x31a0 ; main + 88
        0x0000319a:    2101        .!      MOVS     r1,#1
        0x0000319c:    63e1        .c      STR      r1,[r4,#0x3c]
        0x0000319e:    e000        ..      B        0x31a2 ; main + 90
        0x000031a0:    63e6        .c      STR      r6,[r4,#0x3c]
        0x000031a2:    2140        @!      MOVS     r1,#0x40
        0x000031a4:    4feb        .O      LDR      r7,[pc,#940] ; [0x3554] = 0x200000b0
        0x000031a6:    4388        .C      BICS     r0,r0,r1
        0x000031a8:    3f80        .?      SUBS     r7,r7,#0x80
        0x000031aa:    6420         d      STR      r0,[r4,#0x40]
        0x000031ac:    7c38        8|      LDRB     r0,[r7,#0x10]
        0x000031ae:    21ef        .!      MOVS     r1,#0xef
        0x000031b0:    4008        .@      ANDS     r0,r0,r1
        0x000031b2:    7438        8t      STRB     r0,[r7,#0x10]
        0x000031b4:    49e8        .I      LDR      r1,[pc,#928] ; [0x3558] = 0x3d090
        0x000031b6:    2200        ."      MOVS     r2,#0
        0x000031b8:    9800        ..      LDR      r0,[sp,#0]
        0x000031ba:    f7fdfbc9    ....    BL       CAN_Open ; 0x950
        0x000031be:    9800        ..      LDR      r0,[sp,#0]
        0x000031c0:    f7fdfa30    ..0.    BL       CANRx_initial ; 0x624
        0x000031c4:    f7fff84a    ..J.    BL       SYS_UnlockReg ; 0x225c
        0x000031c8:    2300        .#      MOVS     r3,#0
        0x000031ca:    2007        .       MOVS     r0,#7
        0x000031cc:    2201        ."      MOVS     r2,#1
        0x000031ce:    4619        .F      MOV      r1,r3
        0x000031d0:    0200        ..      LSLS     r0,r0,#8
        0x000031d2:    f7fffd1f    ....    BL       WDT_Open ; 0x2c14
        0x000031d6:    48de        .H      LDR      r0,[pc,#888] ; [0x3550] = 0x50000100
        0x000031d8:    6006        .`      STR      r6,[r0,#0]
        0x000031da:    4de0        .M      LDR      r5,[pc,#896] ; [0x355c] = 0x50004140
        0x000031dc:    68a8        .h      LDR      r0,[r5,#8]
        0x000031de:    2120         !      MOVS     r1,#0x20
        0x000031e0:    4388        .C      BICS     r0,r0,r1
        0x000031e2:    60a8        .`      STR      r0,[r5,#8]
        0x000031e4:    2019        .       MOVS     r0,#0x19
        0x000031e6:    0140        @.      LSLS     r0,r0,#5
        0x000031e8:    f7fef94c    ..L.    BL       Delay_Ms ; 0x1484
        0x000031ec:    68a9        .h      LDR      r1,[r5,#8]
        0x000031ee:    2020                MOVS     r0,#0x20
        0x000031f0:    4301        .C      ORRS     r1,r1,r0
        0x000031f2:    60a9        .`      STR      r1,[r5,#8]
        0x000031f4:    6ea1        .n      LDR      r1,[r4,#0x68]
        0x000031f6:    2001        .       MOVS     r0,#1
        0x000031f8:    4301        .C      ORRS     r1,r1,r0
        0x000031fa:    66a1        .f      STR      r1,[r4,#0x68]
        0x000031fc:    f7fef95a    ..Z.    BL       EEPROMread_Hous ; 0x14b4
        0x00003200:    f000fd4c    ..L.    BL       sns_read ; 0x3c9c
        0x00003204:    7bf8        .{      LDRB     r0,[r7,#0xf]
        0x00003206:    4ad6        .J      LDR      r2,[pc,#856] ; [0x3560] = 0x100
        0x00003208:    0781        ..      LSLS     r1,r0,#30
        0x0000320a:    2900        .)      CMP      r1,#0
        0x0000320c:    6ea1        .n      LDR      r1,[r4,#0x68]
        0x0000320e:    da01        ..      BGE      0x3214 ; main + 204
        0x00003210:    4311        .C      ORRS     r1,r1,r2
        0x00003212:    e000        ..      B        0x3216 ; main + 206
        0x00003214:    4391        .C      BICS     r1,r1,r2
        0x00003216:    66a1        .f      STR      r1,[r4,#0x68]
        0x00003218:    0741        A.      LSLS     r1,r0,#29
        0x0000321a:    d504        ..      BPL      0x3226 ; main + 222
        0x0000321c:    7a3a        :z      LDRB     r2,[r7,#8]
        0x0000321e:    2102        .!      MOVS     r1,#2
        0x00003220:    430a        .C      ORRS     r2,r2,r1
        0x00003222:    723a        :r      STRB     r2,[r7,#8]
        0x00003224:    e003        ..      B        0x322e ; main + 230
        0x00003226:    7a39        9z      LDRB     r1,[r7,#8]
        0x00003228:    22fd        ."      MOVS     r2,#0xfd
        0x0000322a:    4011        .@      ANDS     r1,r1,r2
        0x0000322c:    7239        9r      STRB     r1,[r7,#8]
        0x0000322e:    0700        ..      LSLS     r0,r0,#28
        0x00003230:    6ea0        .n      LDR      r0,[r4,#0x68]
        0x00003232:    d502        ..      BPL      0x323a ; main + 242
        0x00003234:    2110        .!      MOVS     r1,#0x10
        0x00003236:    4308        .C      ORRS     r0,r0,r1
        0x00003238:    e001        ..      B        0x323e ; main + 246
        0x0000323a:    2110        .!      MOVS     r1,#0x10
        0x0000323c:    4388        .C      BICS     r0,r0,r1
        0x0000323e:    66a0        .f      STR      r0,[r4,#0x68]
        0x00003240:    21a3        .!      MOVS     r1,#0xa3
        0x00003242:    48c8        .H      LDR      r0,[pc,#800] ; [0x3564] = 0x2000053c
        0x00003244:    f7fdf81c    ....    BL       __aeabi_memclr ; 0x280
        0x00003248:    4cc2        .L      LDR      r4,[pc,#776] ; [0x3554] = 0x200000b0
        0x0000324a:    2203        ."      MOVS     r2,#3
        0x0000324c:    a1c6        ..      ADR      r1,{pc}+0x31c ; 0x3568
        0x0000324e:    69e0        .i      LDR      r0,[r4,#0x1c]
        0x00003250:    f7fcfffd    ....    BL       __aeabi_memcpy ; 0x24e
        0x00003254:    69e0        .i      LDR      r0,[r4,#0x1c]
        0x00003256:    220f        ."      MOVS     r2,#0xf
        0x00003258:    a1c4        ..      ADR      r1,{pc}+0x314 ; 0x356c
        0x0000325a:    1cc0        ..      ADDS     r0,r0,#3
        0x0000325c:    f7fcfff7    ....    BL       __aeabi_memcpy ; 0x24e
        0x00003260:    69e0        .i      LDR      r0,[r4,#0x1c]
        0x00003262:    2207        ."      MOVS     r2,#7
        0x00003264:    a1c5        ..      ADR      r1,{pc}+0x318 ; 0x357c
        0x00003266:    3060        `0      ADDS     r0,r0,#0x60
        0x00003268:    f7fcfff1    ....    BL       __aeabi_memcpy ; 0x24e
        0x0000326c:    69e0        .i      LDR      r0,[r4,#0x1c]
        0x0000326e:    2207        ."      MOVS     r2,#7
        0x00003270:    a1c4        ..      ADR      r1,{pc}+0x314 ; 0x3584
        0x00003272:    3067        g0      ADDS     r0,r0,#0x67
        0x00003274:    f7fcffeb    ....    BL       __aeabi_memcpy ; 0x24e
        0x00003278:    69e0        .i      LDR      r0,[r4,#0x1c]
        0x0000327a:    2207        ."      MOVS     r2,#7
        0x0000327c:    a1c3        ..      ADR      r1,{pc}+0x310 ; 0x358c
        0x0000327e:    306e        n0      ADDS     r0,r0,#0x6e
        0x00003280:    f7fcffe5    ....    BL       __aeabi_memcpy ; 0x24e
        0x00003284:    69e0        .i      LDR      r0,[r4,#0x1c]
        0x00003286:    2207        ."      MOVS     r2,#7
        0x00003288:    a1c2        ..      ADR      r1,{pc}+0x30c ; 0x3594
        0x0000328a:    3075        u0      ADDS     r0,r0,#0x75
        0x0000328c:    f7fcffdf    ....    BL       __aeabi_memcpy ; 0x24e
        0x00003290:    69e0        .i      LDR      r0,[r4,#0x1c]
        0x00003292:    220a        ."      MOVS     r2,#0xa
        0x00003294:    a1c1        ..      ADR      r1,{pc}+0x308 ; 0x359c
        0x00003296:    307c        |0      ADDS     r0,r0,#0x7c
        0x00003298:    f7fcffd9    ....    BL       __aeabi_memcpy ; 0x24e
        0x0000329c:    69e0        .i      LDR      r0,[r4,#0x1c]
        0x0000329e:    2208        ."      MOVS     r2,#8
        0x000032a0:    a1c1        ..      ADR      r1,{pc}+0x308 ; 0x35a8
        0x000032a2:    3086        .0      ADDS     r0,r0,#0x86
        0x000032a4:    f7fcffd3    ....    BL       __aeabi_memcpy ; 0x24e
        0x000032a8:    69e0        .i      LDR      r0,[r4,#0x1c]
        0x000032aa:    2208        ."      MOVS     r2,#8
        0x000032ac:    a1c0        ..      ADR      r1,{pc}+0x304 ; 0x35b0
        0x000032ae:    308e        .0      ADDS     r0,r0,#0x8e
        0x000032b0:    f7fcffcd    ....    BL       __aeabi_memcpy ; 0x24e
        0x000032b4:    69e0        .i      LDR      r0,[r4,#0x1c]
        0x000032b6:    2208        ."      MOVS     r2,#8
        0x000032b8:    a1bf        ..      ADR      r1,{pc}+0x300 ; 0x35b8
        0x000032ba:    3096        .0      ADDS     r0,r0,#0x96
        0x000032bc:    f7fcffc7    ....    BL       __aeabi_memcpy ; 0x24e
        0x000032c0:    69e0        .i      LDR      r0,[r4,#0x1c]
        0x000032c2:    210d        .!      MOVS     r1,#0xd
        0x000032c4:    30a1        .0      ADDS     r0,r0,#0xa1
        0x000032c6:    7001        .p      STRB     r1,[r0,#0]
        0x000032c8:    7046        Fp      STRB     r6,[r0,#1]
        0x000032ca:    48a6        .H      LDR      r0,[pc,#664] ; [0x3564] = 0x2000053c
        0x000032cc:    215a        Z!      MOVS     r1,#0x5a
        0x000032ce:    30df        .0      ADDS     r0,r0,#0xdf
        0x000032d0:    7101        .q      STRB     r1,[r0,#4]
        0x000032d2:    243b        ;$      MOVS     r4,#0x3b
        0x000032d4:    7144        Dq      STRB     r4,[r0,#5]
        0x000032d6:    220c        ."      MOVS     r2,#0xc
        0x000032d8:    a1b9        ..      ADR      r1,{pc}+0x2e8 ; 0x35c0
        0x000032da:    1d80        ..      ADDS     r0,r0,#6
        0x000032dc:    f7fcffb7    ....    BL       __aeabi_memcpy ; 0x24e
        0x000032e0:    48a0        .H      LDR      r0,[pc,#640] ; [0x3564] = 0x2000053c
        0x000032e2:    2543        C%      MOVS     r5,#0x43
        0x000032e4:    30dd        .0      ADDS     r0,r0,#0xdd
        0x000032e6:    9000        ..      STR      r0,[sp,#0]
        0x000032e8:    7505        .u      STRB     r5,[r0,#0x14]
        0x000032ea:    274d        M'      MOVS     r7,#0x4d
        0x000032ec:    7547        Gu      STRB     r7,[r0,#0x15]
        0x000032ee:    220b        ."      MOVS     r2,#0xb
        0x000032f0:    a1b7        ..      ADR      r1,{pc}+0x2e0 ; 0x35d0
        0x000032f2:    3016        .0      ADDS     r0,r0,#0x16
        0x000032f4:    f7fcffab    ....    BL       __aeabi_memcpy ; 0x24e
        0x000032f8:    489a        .H      LDR      r0,[pc,#616] ; [0x3564] = 0x2000053c
        0x000032fa:    2203        ."      MOVS     r2,#3
        0x000032fc:    a1b7        ..      ADR      r1,{pc}+0x2e0 ; 0x35dc
        0x000032fe:    30fe        .0      ADDS     r0,r0,#0xfe
        0x00003300:    f7fcffa5    ....    BL       __aeabi_memcpy ; 0x24e
        0x00003304:    4897        .H      LDR      r0,[pc,#604] ; [0x3564] = 0x2000053c
        0x00003306:    220c        ."      MOVS     r2,#0xc
        0x00003308:    30fc        .0      ADDS     r0,r0,#0xfc
        0x0000330a:    1c41        A.      ADDS     r1,r0,#1
        0x0000330c:    9101        ..      STR      r1,[sp,#4]
        0x0000330e:    7144        Dq      STRB     r4,[r0,#5]
        0x00003310:    7186        .q      STRB     r6,[r0,#6]
        0x00003312:    215a        Z!      MOVS     r1,#0x5a
        0x00003314:    71c1        .q      STRB     r1,[r0,#7]
        0x00003316:    7204        .r      STRB     r4,[r0,#8]
        0x00003318:    a1a9        ..      ADR      r1,{pc}+0x2a8 ; 0x35c0
        0x0000331a:    3009        .0      ADDS     r0,r0,#9
        0x0000331c:    f7fcff97    ....    BL       __aeabi_memcpy ; 0x24e
        0x00003320:    9901        ..      LDR      r1,[sp,#4]
        0x00003322:    220b        ."      MOVS     r2,#0xb
        0x00003324:    750d        .u      STRB     r5,[r1,#0x14]
        0x00003326:    754f        Ou      STRB     r7,[r1,#0x15]
        0x00003328:    a1a9        ..      ADR      r1,{pc}+0x2a8 ; 0x35d0
        0x0000332a:    48ad        .H      LDR      r0,[pc,#692] ; [0x35e0] = 0x2000064f
        0x0000332c:    f7fcff8f    ....    BL       __aeabi_memcpy ; 0x24e
        0x00003330:    48ab        .H      LDR      r0,[pc,#684] ; [0x35e0] = 0x2000064f
        0x00003332:    2203        ."      MOVS     r2,#3
        0x00003334:    a1ab        ..      ADR      r1,{pc}+0x2b0 ; 0x35e4
        0x00003336:    300b        .0      ADDS     r0,r0,#0xb
        0x00003338:    f7fcff89    ....    BL       __aeabi_memcpy ; 0x24e
        0x0000333c:    48a8        .H      LDR      r0,[pc,#672] ; [0x35e0] = 0x2000064f
        0x0000333e:    215a        Z!      MOVS     r1,#0x5a
        0x00003340:    300a        .0      ADDS     r0,r0,#0xa
        0x00003342:    9002        ..      STR      r0,[sp,#8]
        0x00003344:    7104        .q      STRB     r4,[r0,#4]
        0x00003346:    7146        Fq      STRB     r6,[r0,#5]
        0x00003348:    3022        "0      ADDS     r0,r0,#0x22
        0x0000334a:    7101        .q      STRB     r1,[r0,#4]
        0x0000334c:    7144        Dq      STRB     r4,[r0,#5]
        0x0000334e:    220c        ."      MOVS     r2,#0xc
        0x00003350:    a19b        ..      ADR      r1,{pc}+0x270 ; 0x35c0
        0x00003352:    1d80        ..      ADDS     r0,r0,#6
        0x00003354:    f7fcff7b    ..{.    BL       __aeabi_memcpy ; 0x24e
        0x00003358:    48a1        .H      LDR      r0,[pc,#644] ; [0x35e0] = 0x2000064f
        0x0000335a:    220b        ."      MOVS     r2,#0xb
        0x0000335c:    302a        *0      ADDS     r0,r0,#0x2a
        0x0000335e:    9001        ..      STR      r0,[sp,#4]
        0x00003360:    7505        .u      STRB     r5,[r0,#0x14]
        0x00003362:    7547        Gu      STRB     r7,[r0,#0x15]
        0x00003364:    a19a        ..      ADR      r1,{pc}+0x26c ; 0x35d0
        0x00003366:    3016        .0      ADDS     r0,r0,#0x16
        0x00003368:    f7fcff71    ..q.    BL       __aeabi_memcpy ; 0x24e
        0x0000336c:    489c        .H      LDR      r0,[pc,#624] ; [0x35e0] = 0x2000064f
        0x0000336e:    2203        ."      MOVS     r2,#3
        0x00003370:    a19d        ..      ADR      r1,{pc}+0x278 ; 0x35e8
        0x00003372:    304b        K0      ADDS     r0,r0,#0x4b
        0x00003374:    f7fcff6b    ..k.    BL       __aeabi_memcpy ; 0x24e
        0x00003378:    4899        .H      LDR      r0,[pc,#612] ; [0x35e0] = 0x2000064f
        0x0000337a:    215a        Z!      MOVS     r1,#0x5a
        0x0000337c:    304a        J0      ADDS     r0,r0,#0x4a
        0x0000337e:    7104        .q      STRB     r4,[r0,#4]
        0x00003380:    7146        Fq      STRB     r6,[r0,#5]
        0x00003382:    383e        >8      SUBS     r0,r0,#0x3e
        0x00003384:    7101        .q      STRB     r1,[r0,#4]
        0x00003386:    7144        Dq      STRB     r4,[r0,#5]
        0x00003388:    220c        ."      MOVS     r2,#0xc
        0x0000338a:    a18d        ..      ADR      r1,{pc}+0x236 ; 0x35c0
        0x0000338c:    1d80        ..      ADDS     r0,r0,#6
        0x0000338e:    f7fcff5e    ..^.    BL       __aeabi_memcpy ; 0x24e
        0x00003392:    9802        ..      LDR      r0,[sp,#8]
        0x00003394:    220b        ."      MOVS     r2,#0xb
        0x00003396:    7505        .u      STRB     r5,[r0,#0x14]
        0x00003398:    7547        Gu      STRB     r7,[r0,#0x15]
        0x0000339a:    4891        .H      LDR      r0,[pc,#580] ; [0x35e0] = 0x2000064f
        0x0000339c:    a18c        ..      ADR      r1,{pc}+0x234 ; 0x35d0
        0x0000339e:    3020         0      ADDS     r0,r0,#0x20
        0x000033a0:    9002        ..      STR      r0,[sp,#8]
        0x000033a2:    f7fcff54    ..T.    BL       __aeabi_memcpy ; 0x24e
        0x000033a6:    488e        .H      LDR      r0,[pc,#568] ; [0x35e0] = 0x2000064f
        0x000033a8:    2203        ."      MOVS     r2,#3
        0x000033aa:    302b        +0      ADDS     r0,r0,#0x2b
        0x000033ac:    a18f        ..      ADR      r1,{pc}+0x240 ; 0x35ec
        0x000033ae:    9003        ..      STR      r0,[sp,#0xc]
        0x000033b0:    f7fcff4d    ..M.    BL       __aeabi_memcpy ; 0x24e
        0x000033b4:    9801        ..      LDR      r0,[sp,#4]
        0x000033b6:    220c        ."      MOVS     r2,#0xc
        0x000033b8:    7104        .q      STRB     r4,[r0,#4]
        0x000033ba:    7146        Fq      STRB     r6,[r0,#5]
        0x000033bc:    4888        .H      LDR      r0,[pc,#544] ; [0x35e0] = 0x2000064f
        0x000033be:    a180        ..      ADR      r1,{pc}+0x202 ; 0x35c0
        0x000033c0:    3012        .0      ADDS     r0,r0,#0x12
        0x000033c2:    f7fcff44    ..D.    BL       __aeabi_memcpy ; 0x24e
        0x000033c6:    220b        ."      MOVS     r2,#0xb
        0x000033c8:    a181        ..      ADR      r1,{pc}+0x208 ; 0x35d0
        0x000033ca:    9802        ..      LDR      r0,[sp,#8]
        0x000033cc:    f7fcff3f    ..?.    BL       __aeabi_memcpy ; 0x24e
        0x000033d0:    2203        ."      MOVS     r2,#3
        0x000033d2:    a187        ..      ADR      r1,{pc}+0x21e ; 0x35f0
        0x000033d4:    9803        ..      LDR      r0,[sp,#0xc]
        0x000033d6:    f7fcff3a    ..:.    BL       __aeabi_memcpy ; 0x24e
        0x000033da:    4881        .H      LDR      r0,[pc,#516] ; [0x35e0] = 0x2000064f
        0x000033dc:    215a        Z!      MOVS     r1,#0x5a
        0x000033de:    3069        i0      ADDS     r0,r0,#0x69
        0x000033e0:    71c1        .q      STRB     r1,[r0,#7]
        0x000033e2:    7204        .r      STRB     r4,[r0,#8]
        0x000033e4:    220c        ."      MOVS     r2,#0xc
        0x000033e6:    a176        v.      ADR      r1,{pc}+0x1da ; 0x35c0
        0x000033e8:    3009        .0      ADDS     r0,r0,#9
        0x000033ea:    f7fcff30    ..0.    BL       __aeabi_memcpy ; 0x24e
        0x000033ee:    487c        |H      LDR      r0,[pc,#496] ; [0x35e0] = 0x2000064f
        0x000033f0:    220b        ."      MOVS     r2,#0xb
        0x000033f2:    3069        i0      ADDS     r0,r0,#0x69
        0x000033f4:    7545        Eu      STRB     r5,[r0,#0x15]
        0x000033f6:    7587        .u      STRB     r7,[r0,#0x16]
        0x000033f8:    a175        u.      ADR      r1,{pc}+0x1d8 ; 0x35d0
        0x000033fa:    3017        .0      ADDS     r0,r0,#0x17
        0x000033fc:    f7fcff27    ..'.    BL       __aeabi_memcpy ; 0x24e
        0x00003400:    4877        wH      LDR      r0,[pc,#476] ; [0x35e0] = 0x2000064f
        0x00003402:    2203        ."      MOVS     r2,#3
        0x00003404:    a17b        {.      ADR      r1,{pc}+0x1f0 ; 0x35f4
        0x00003406:    308b        .0      ADDS     r0,r0,#0x8b
        0x00003408:    f7fcff21    ..!.    BL       __aeabi_memcpy ; 0x24e
        0x0000340c:    4874        tH      LDR      r0,[pc,#464] ; [0x35e0] = 0x2000064f
        0x0000340e:    2203        ."      MOVS     r2,#3
        0x00003410:    a179        y.      ADR      r1,{pc}+0x1e8 ; 0x35f8
        0x00003412:    308e        .0      ADDS     r0,r0,#0x8e
        0x00003414:    f7fcff1b    ....    BL       __aeabi_memcpy ; 0x24e
        0x00003418:    4871        qH      LDR      r0,[pc,#452] ; [0x35e0] = 0x2000064f
        0x0000341a:    2203        ."      MOVS     r2,#3
        0x0000341c:    a178        x.      ADR      r1,{pc}+0x1e4 ; 0x3600
        0x0000341e:    3092        .0      ADDS     r0,r0,#0x92
        0x00003420:    f7fcff15    ....    BL       __aeabi_memcpy ; 0x24e
        0x00003424:    486e        nH      LDR      r0,[pc,#440] ; [0x35e0] = 0x2000064f
        0x00003426:    a177        w.      ADR      r1,{pc}+0x1de ; 0x3604
        0x00003428:    3089        .0      ADDS     r0,r0,#0x89
        0x0000342a:    9001        ..      STR      r0,[sp,#4]
        0x0000342c:    7304        .s      STRB     r4,[r0,#0xc]
        0x0000342e:    7346        Fs      STRB     r6,[r0,#0xd]
        0x00003430:    3820         8      SUBS     r0,r0,#0x20
        0x00003432:    8809        ..      LDRH     r1,[r1,#0]
        0x00003434:    85c1        ..      STRH     r1,[r0,#0x2e]
        0x00003436:    220c        ."      MOVS     r2,#0xc
        0x00003438:    a161        a.      ADR      r1,{pc}+0x188 ; 0x35c0
        0x0000343a:    3030        00      ADDS     r0,r0,#0x30
        0x0000343c:    f7fcff07    ....    BL       __aeabi_memcpy ; 0x24e
        0x00003440:    a171        q.      ADR      r1,{pc}+0x1c8 ; 0x3608
        0x00003442:    9801        ..      LDR      r0,[sp,#4]
        0x00003444:    8809        ..      LDRH     r1,[r1,#0]
        0x00003446:    8381        ..      STRH     r1,[r0,#0x1c]
        0x00003448:    4865        eH      LDR      r0,[pc,#404] ; [0x35e0] = 0x2000064f
        0x0000344a:    220b        ."      MOVS     r2,#0xb
        0x0000344c:    30a7        .0      ADDS     r0,r0,#0xa7
        0x0000344e:    a160        `.      ADR      r1,{pc}+0x182 ; 0x35d0
        0x00003450:    904e        N.      STR      r0,[sp,#0x138]
        0x00003452:    f7fcfefc    ....    BL       __aeabi_memcpy ; 0x24e
        0x00003456:    4862        bH      LDR      r0,[pc,#392] ; [0x35e0] = 0x2000064f
        0x00003458:    2203        ."      MOVS     r2,#3
        0x0000345a:    a16c        l.      ADR      r1,{pc}+0x1b2 ; 0x360c
        0x0000345c:    30b2        .0      ADDS     r0,r0,#0xb2
        0x0000345e:    f7fcfef6    ....    BL       __aeabi_memcpy ; 0x24e
        0x00003462:    485f        _H      LDR      r0,[pc,#380] ; [0x35e0] = 0x2000064f
        0x00003464:    2203        ."      MOVS     r2,#3
        0x00003466:    30b5        .0      ADDS     r0,r0,#0xb5
        0x00003468:    a169        i.      ADR      r1,{pc}+0x1a8 ; 0x3610
        0x0000346a:    904f        O.      STR      r0,[sp,#0x13c]
        0x0000346c:    f7fcfeef    ....    BL       __aeabi_memcpy ; 0x24e
        0x00003470:    485b        [H      LDR      r0,[pc,#364] ; [0x35e0] = 0x2000064f
        0x00003472:    a14c        L.      ADR      r1,{pc}+0x132 ; 0x35a4
        0x00003474:    30a9        .0      ADDS     r0,r0,#0xa9
        0x00003476:    8809        ..      LDRH     r1,[r1,#0]
        0x00003478:    8381        ..      STRH     r1,[r0,#0x1c]
        0x0000347a:    38fd        .8      SUBS     r0,r0,#0xfd
        0x0000347c:    2155        U!      MOVS     r1,#0x55
        0x0000347e:    7101        .q      STRB     r1,[r0,#4]
        0x00003480:    7144        Dq      STRB     r4,[r0,#5]
        0x00003482:    220c        ."      MOVS     r2,#0xc
        0x00003484:    a167        g.      ADR      r1,{pc}+0x1a0 ; 0x3624
        0x00003486:    1d80        ..      ADDS     r0,r0,#6
        0x00003488:    f7fcfee1    ....    BL       __aeabi_memcpy ; 0x24e
        0x0000348c:    4854        TH      LDR      r0,[pc,#336] ; [0x35e0] = 0x2000064f
        0x0000348e:    220b        ."      MOVS     r2,#0xb
        0x00003490:    3856        V8      SUBS     r0,r0,#0x56
        0x00003492:    7505        .u      STRB     r5,[r0,#0x14]
        0x00003494:    7547        Gu      STRB     r7,[r0,#0x15]
        0x00003496:    3016        .0      ADDS     r0,r0,#0x16
        0x00003498:    a14d        M.      ADR      r1,{pc}+0x138 ; 0x35d0
        0x0000349a:    9053        S.      STR      r0,[sp,#0x14c]
        0x0000349c:    f7fcfed7    ....    BL       __aeabi_memcpy ; 0x24e
        0x000034a0:    484f        OH      LDR      r0,[pc,#316] ; [0x35e0] = 0x2000064f
        0x000034a2:    2203        ."      MOVS     r2,#3
        0x000034a4:    a163        c.      ADR      r1,{pc}+0x190 ; 0x3634
        0x000034a6:    3835        58      SUBS     r0,r0,#0x35
        0x000034a8:    f7fcfed1    ....    BL       __aeabi_memcpy ; 0x24e
        0x000034ac:    9800        ..      LDR      r0,[sp,#0]
        0x000034ae:    a155        U.      ADR      r1,{pc}+0x156 ; 0x3604
        0x000034b0:    7104        .q      STRB     r4,[r0,#4]
        0x000034b2:    7146        Fq      STRB     r6,[r0,#5]
        0x000034b4:    484a        JH      LDR      r0,[pc,#296] ; [0x35e0] = 0x2000064f
        0x000034b6:    8809        ..      LDRH     r1,[r1,#0]
        0x000034b8:    30ab        .0      ADDS     r0,r0,#0xab
        0x000034ba:    8381        ..      STRH     r1,[r0,#0x1c]
        0x000034bc:    220c        ."      MOVS     r2,#0xc
        0x000034be:    a140        @.      ADR      r1,{pc}+0x102 ; 0x35c0
        0x000034c0:    301e        .0      ADDS     r0,r0,#0x1e
        0x000034c2:    f7fcfec4    ....    BL       __aeabi_memcpy ; 0x24e
        0x000034c6:    4846        FH      LDR      r0,[pc,#280] ; [0x35e0] = 0x2000064f
        0x000034c8:    a14f        O.      ADR      r1,{pc}+0x140 ; 0x3608
        0x000034ca:    30c9        .0      ADDS     r0,r0,#0xc9
        0x000034cc:    8809        ..      LDRH     r1,[r1,#0]
        0x000034ce:    8181        ..      STRH     r1,[r0,#0xc]
        0x000034d0:    300e        .0      ADDS     r0,r0,#0xe
        0x000034d2:    220b        ."      MOVS     r2,#0xb
        0x000034d4:    a13e        >.      ADR      r1,{pc}+0xfc ; 0x35d0
        0x000034d6:    9051        Q.      STR      r0,[sp,#0x144]
        0x000034d8:    f7fcfeb9    ....    BL       __aeabi_memcpy ; 0x24e
        0x000034dc:    4840        @H      LDR      r0,[pc,#256] ; [0x35e0] = 0x2000064f
        0x000034de:    2204        ."      MOVS     r2,#4
        0x000034e0:    a155        U.      ADR      r1,{pc}+0x158 ; 0x3638
        0x000034e2:    30e2        .0      ADDS     r0,r0,#0xe2
        0x000034e4:    f7fcfeb3    ....    BL       __aeabi_memcpy ; 0x24e
        0x000034e8:    483d        =H      LDR      r0,[pc,#244] ; [0x35e0] = 0x2000064f
        0x000034ea:    2205        ."      MOVS     r2,#5
        0x000034ec:    a154        T.      ADR      r1,{pc}+0x154 ; 0x3640
        0x000034ee:    30e6        .0      ADDS     r0,r0,#0xe6
        0x000034f0:    f7fcfead    ....    BL       __aeabi_memcpy ; 0x24e
        0x000034f4:    483a        :H      LDR      r0,[pc,#232] ; [0x35e0] = 0x2000064f
        0x000034f6:    a12b        +.      ADR      r1,{pc}+0xae ; 0x35a4
        0x000034f8:    30e9        .0      ADDS     r0,r0,#0xe9
        0x000034fa:    8809        ..      LDRH     r1,[r1,#0]
        0x000034fc:    8041        A.      STRH     r1,[r0,#2]
        0x000034fe:    a141        A.      ADR      r1,{pc}+0x106 ; 0x3604
        0x00003500:    8809        ..      LDRH     r1,[r1,#0]
        0x00003502:    8081        ..      STRH     r1,[r0,#4]
        0x00003504:    1c84        ..      ADDS     r4,r0,#2
        0x00003506:    220c        ."      MOVS     r2,#0xc
        0x00003508:    a12d        -.      ADR      r1,{pc}+0xb8 ; 0x35c0
        0x0000350a:    1d80        ..      ADDS     r0,r0,#6
        0x0000350c:    f7fcfe9f    ....    BL       __aeabi_memcpy ; 0x24e
        0x00003510:    a03d        =.      ADR      r0,{pc}+0xf8 ; 0x3608
        0x00003512:    8800        ..      LDRH     r0,[r0,#0]
        0x00003514:    8220         .      STRH     r0,[r4,#0x10]
        0x00003516:    4832        2H      LDR      r0,[pc,#200] ; [0x35e0] = 0x2000064f
        0x00003518:    220b        ."      MOVS     r2,#0xb
        0x0000351a:    30fd        .0      ADDS     r0,r0,#0xfd
        0x0000351c:    a12c        ,.      ADR      r1,{pc}+0xb4 ; 0x35d0
        0x0000351e:    9052        R.      STR      r0,[sp,#0x148]
        0x00003520:    f7fcfe95    ....    BL       __aeabi_memcpy ; 0x24e
        0x00003524:    2204        ."      MOVS     r2,#4
        0x00003526:    a148        H.      ADR      r1,{pc}+0x122 ; 0x3648
        0x00003528:    4849        IH      LDR      r0,[pc,#292] ; [0x3650] = 0x20000757
        0x0000352a:    f7fcfe90    ....    BL       __aeabi_memcpy ; 0x24e
        0x0000352e:    4848        HH      LDR      r0,[pc,#288] ; [0x3650] = 0x20000757
        0x00003530:    2205        ."      MOVS     r2,#5
        0x00003532:    a143        C.      ADR      r1,{pc}+0x10e ; 0x3640
        0x00003534:    1d00        ..      ADDS     r0,r0,#4
        0x00003536:    f7fcfe8a    ....    BL       __aeabi_memcpy ; 0x24e
        0x0000353a:    4845        EH      LDR      r0,[pc,#276] ; [0x3650] = 0x20000757
        0x0000353c:    a119        ..      ADR      r1,{pc}+0x68 ; 0x35a4
        0x0000353e:    381f        .8      SUBS     r0,r0,#0x1f
        0x00003540:    8809        ..      LDRH     r1,[r1,#0]
        0x00003542:    8501        ..      STRH     r1,[r0,#0x28]
        0x00003544:    4d03        .M      LDR      r5,[pc,#12] ; [0x3554] = 0x200000b0
        0x00003546:    e085        ..      B        0x3654 ; main + 1292
    $d
        0x00003548:    40180000    ...@    DCD    1075314688
        0x0000354c:    40004000    .@.@    DCD    1073758208
        0x00003550:    50000100    ...P    DCD    1342177536
        0x00003554:    200000b0    ...     DCD    536871088
        0x00003558:    0003d090    ....    DCD    250000
        0x0000355c:    50004140    @A.P    DCD    1342193984
        0x00003560:    00000100    ....    DCD    256
        0x00003564:    2000053c    <..     DCD    536872252
        0x00003568:    00003b5a    Z;..    DCD    15194
        0x0000356c:    36364449    ID66    DCD    909526089
        0x00003570:    38303631    1608    DCD    942683697
        0x00003574:    31363232    2261    DCD    825635378
        0x00003578:    00003b36    6;..    DCD    15158
        0x0000357c:    3530504f    OP05    DCD    892358735
        0x00003580:    00003b30    0;..    DCD    15152
        0x00003584:    30315457    WT10    DCD    808539223
        0x00003588:    00003b30    0;..    DCD    15152
        0x0000358c:    36305646    FV06    DCD    909137478
        0x00003590:    00003b30    0;..    DCD    15152
        0x00003594:    32315642    BV12    DCD    842094146
        0x00003598:    00003b30    0;..    DCD    15152
        0x0000359c:    32314852    RH12    DCD    842090578
        0x000035a0:    36353433    3456    DCD    909456435
        0x000035a4:    0000003b    ;...    DCD    59
        0x000035a8:    32315352    RS12    DCD    842093394
        0x000035ac:    003b3433    34;.    DCD    3879987
        0x000035b0:    46464153    SAFF    DCD    1179009363
        0x000035b4:    003b4646    FF;.    DCD    3884614
        0x000035b8:    46465254    TRFF    DCD    1179013716
        0x000035bc:    003b4646    FF;.    DCD    3884614
        0x000035c0:    30303030    0000    DCD    808464432
        0x000035c4:    30303030    0000    DCD    808464432
        0x000035c8:    3b303030    000;    DCD    993013808
        0x000035cc:    00000000    ....    DCD    0
        0x000035d0:    36313030    0016    DCD    909193264
        0x000035d4:    32323830    0822    DCD    842151984
        0x000035d8:    00383130    018.    DCD    3682608
        0x000035dc:    00444f42    BOD.    DCD    4476738
        0x000035e0:    2000064f    O..     DCD    536872527
        0x000035e4:    004f424e    NBO.    DCD    5194318
        0x000035e8:    00494c4e    NLI.    DCD    4803662
        0x000035ec:    004c4148    HAL.    DCD    4997448
        0x000035f0:    00514e49    INQ.    DCD    5328457
        0x000035f4:    004d494c    LIM.    DCD    5065036
        0x000035f8:    30303030    0000    DCD    808464432
        0x000035fc:    00000000    ....    DCD    0
        0x00003600:    00303030    000.    DCD    3158064
        0x00003604:    00003b55    U;..    DCD    15189
        0x00003608:    00005052    RP..    DCD    20562
        0x0000360c:    00455845    EXE.    DCD    4544581
        0x00003610:    30303030    0000    DCD    808464432
        0x00003614:    30303030    0000    DCD    808464432
        0x00003618:    30303030    0000    DCD    808464432
        0x0000361c:    30303030    0000    DCD    808464432
        0x00003620:    00000000    ....    DCD    0
        0x00003624:    30303030    0000    DCD    808464432
        0x00003628:    30303030    0000    DCD    808464432
        0x0000362c:    3b313030    001;    DCD    993079344
        0x00003630:    00000000    ....    DCD    0
        0x00003634:    00534f53    SOS.    DCD    5459795
        0x00003638:    3b4f4d4d    MMO;    DCD    995052877
        0x0000363c:    00000000    ....    DCD    0
        0x00003640:    30303030    0000    DCD    808464432
        0x00003644:    00000030    0...    DCD    48
        0x00003648:    3b434d4d    MMC;    DCD    994266445
        0x0000364c:    00000000    ....    DCD    0
        0x00003650:    20000757    W..     DCD    536872791
    $t
        0x00003654:    3d40        @=      SUBS     r5,r5,#0x40
        0x00003656:    82ee        ..      STRH     r6,[r5,#0x16]
        0x00003658:    48ff        .H      LDR      r0,[pc,#1020] ; [0x3a58] = 0x50004280
        0x0000365a:    6286        .b      STR      r6,[r0,#0x28]
        0x0000365c:    48ff        .H      LDR      r0,[pc,#1020] ; [0x3a5c] = 0x2000054c
        0x0000365e:    462c        ,F      MOV      r4,r5
        0x00003660:    3c20         <      SUBS     r4,r4,#0x20
        0x00003662:    9050        P.      STR      r0,[sp,#0x140]
        0x00003664:    2701        .'      MOVS     r7,#1
        0x00003666:    7127        'q      STRB     r7,[r4,#4]
        0x00003668:    7c68        h|      LDRB     r0,[r5,#0x11]
        0x0000366a:    2801        .(      CMP      r0,#1
        0x0000366c:    d105        ..      BNE      0x367a ; main + 1330
        0x0000366e:    48fc        .H      LDR      r0,[pc,#1008] ; [0x3a60] = 0x50004040
        0x00003670:    6881        .h      LDR      r1,[r0,#8]
        0x00003672:    033a        :.      LSLS     r2,r7,#12
        0x00003674:    4051        Q@      EORS     r1,r1,r2
        0x00003676:    6081        .`      STR      r1,[r0,#8]
        0x00003678:    746e        nt      STRB     r6,[r5,#0x11]
        0x0000367a:    f7fefdef    ....    BL       SYS_UnlockReg ; 0x225c
        0x0000367e:    4af9        .J      LDR      r2,[pc,#996] ; [0x3a64] = 0x40004000
        0x00003680:    6810        .h      LDR      r0,[r2,#0]
        0x00003682:    212c        ,!      MOVS     r1,#0x2c
        0x00003684:    4388        .C      BICS     r0,r0,r1
        0x00003686:    4338        8C      ORRS     r0,r0,r7
        0x00003688:    6010        .`      STR      r0,[r2,#0]
        0x0000368a:    f7fcff85    ....    BL       BatteryChargeMangment ; 0x598
        0x0000368e:    48f6        .H      LDR      r0,[pc,#984] ; [0x3a68] = 0x50000100
        0x00003690:    6006        .`      STR      r6,[r0,#0]
        0x00003692:    f7fdfa5d    ..].    BL       CAN_data ; 0xb50
        0x00003696:    48f5        .H      LDR      r0,[pc,#980] ; [0x3a6c] = 0x20000030
        0x00003698:    7840        @x      LDRB     r0,[r0,#1]
        0x0000369a:    2800        .(      CMP      r0,#0
        0x0000369c:    d0e2        ..      BEQ      0x3664 ; main + 1308
        0x0000369e:    8b28        (.      LDRH     r0,[r5,#0x18]
        0x000036a0:    2800        .(      CMP      r0,#0
        0x000036a2:    d17e        ~.      BNE      0x37a2 ; main + 1626
        0x000036a4:    7d68        h}      LDRB     r0,[r5,#0x15]
        0x000036a6:    2802        .(      CMP      r0,#2
        0x000036a8:    d203        ..      BCS      0x36b2 ; main + 1386
        0x000036aa:    f7fef9b3    ....    BL       GprsConnectTcp ; 0x1a14
        0x000036ae:    7568        hu      STRB     r0,[r5,#0x15]
        0x000036b0:    e23a        :.      B        0x3b28 ; main + 2528
        0x000036b2:    48ee        .H      LDR      r0,[pc,#952] ; [0x3a6c] = 0x20000030
        0x000036b4:    7cc0        .|      LDRB     r0,[r0,#0x13]
        0x000036b6:    2800        .(      CMP      r0,#0
        0x000036b8:    d004        ..      BEQ      0x36c4 ; main + 1404
        0x000036ba:    79a0        .y      LDRB     r0,[r4,#6]
        0x000036bc:    2801        .(      CMP      r0,#1
        0x000036be:    d05f        _.      BEQ      0x3780 ; main + 1592
        0x000036c0:    2800        .(      CMP      r0,#0
        0x000036c2:    d053        S.      BEQ      0x376c ; main + 1572
        0x000036c4:    48e9        .H      LDR      r0,[pc,#932] ; [0x3a6c] = 0x20000030
        0x000036c6:    7d00        .}      LDRB     r0,[r0,#0x14]
        0x000036c8:    2800        .(      CMP      r0,#0
        0x000036ca:    d004        ..      BEQ      0x36d6 ; main + 1422
        0x000036cc:    79a0        .y      LDRB     r0,[r4,#6]
        0x000036ce:    2802        .(      CMP      r0,#2
        0x000036d0:    d07d        }.      BEQ      0x37ce ; main + 1670
        0x000036d2:    2800        .(      CMP      r0,#0
        0x000036d4:    d070        p.      BEQ      0x37b8 ; main + 1648
        0x000036d6:    48e5        .H      LDR      r0,[pc,#916] ; [0x3a6c] = 0x20000030
        0x000036d8:    7d40        @}      LDRB     r0,[r0,#0x15]
        0x000036da:    2800        .(      CMP      r0,#0
        0x000036dc:    d004        ..      BEQ      0x36e8 ; main + 1440
        0x000036de:    79a0        .y      LDRB     r0,[r4,#6]
        0x000036e0:    2803        .(      CMP      r0,#3
        0x000036e2:    d07e        ~.      BEQ      0x37e2 ; main + 1690
        0x000036e4:    2800        .(      CMP      r0,#0
        0x000036e6:    d07d        }.      BEQ      0x37e4 ; main + 1692
        0x000036e8:    48e0        .H      LDR      r0,[pc,#896] ; [0x3a6c] = 0x20000030
        0x000036ea:    7d80        .}      LDRB     r0,[r0,#0x16]
        0x000036ec:    2800        .(      CMP      r0,#0
        0x000036ee:    d004        ..      BEQ      0x36fa ; main + 1458
        0x000036f0:    79a0        .y      LDRB     r0,[r4,#6]
        0x000036f2:    2804        .(      CMP      r0,#4
        0x000036f4:    d077        w.      BEQ      0x37e6 ; main + 1694
        0x000036f6:    2800        .(      CMP      r0,#0
        0x000036f8:    d076        v.      BEQ      0x37e8 ; main + 1696
        0x000036fa:    48dc        .H      LDR      r0,[pc,#880] ; [0x3a6c] = 0x20000030
        0x000036fc:    7dc0        .}      LDRB     r0,[r0,#0x17]
        0x000036fe:    2800        .(      CMP      r0,#0
        0x00003700:    d004        ..      BEQ      0x370c ; main + 1476
        0x00003702:    79a0        .y      LDRB     r0,[r4,#6]
        0x00003704:    2805        .(      CMP      r0,#5
        0x00003706:    d070        p.      BEQ      0x37ea ; main + 1698
        0x00003708:    2800        .(      CMP      r0,#0
        0x0000370a:    d06e        n.      BEQ      0x37ea ; main + 1698
        0x0000370c:    7ba8        .{      LDRB     r0,[r5,#0xe]
        0x0000370e:    2800        .(      CMP      r0,#0
        0x00003710:    d004        ..      BEQ      0x371c ; main + 1492
        0x00003712:    79a0        .y      LDRB     r0,[r4,#6]
        0x00003714:    2806        .(      CMP      r0,#6
        0x00003716:    d069        i.      BEQ      0x37ec ; main + 1700
        0x00003718:    2800        .(      CMP      r0,#0
        0x0000371a:    d068        h.      BEQ      0x37ee ; main + 1702
        0x0000371c:    48d3        .H      LDR      r0,[pc,#844] ; [0x3a6c] = 0x20000030
        0x0000371e:    7c80        .|      LDRB     r0,[r0,#0x12]
        0x00003720:    2800        .(      CMP      r0,#0
        0x00003722:    d004        ..      BEQ      0x372e ; main + 1510
        0x00003724:    79a0        .y      LDRB     r0,[r4,#6]
        0x00003726:    2807        .(      CMP      r0,#7
        0x00003728:    d073        s.      BEQ      0x3812 ; main + 1738
        0x0000372a:    2800        .(      CMP      r0,#0
        0x0000372c:    d071        q.      BEQ      0x3812 ; main + 1738
        0x0000372e:    7be8        .{      LDRB     r0,[r5,#0xf]
        0x00003730:    2800        .(      CMP      r0,#0
        0x00003732:    d004        ..      BEQ      0x373e ; main + 1526
        0x00003734:    79a0        .y      LDRB     r0,[r4,#6]
        0x00003736:    2809        .(      CMP      r0,#9
        0x00003738:    d06c        l.      BEQ      0x3814 ; main + 1740
        0x0000373a:    2800        .(      CMP      r0,#0
        0x0000373c:    d06a        j.      BEQ      0x3814 ; main + 1740
        0x0000373e:    7c28        (|      LDRB     r0,[r5,#0x10]
        0x00003740:    2800        .(      CMP      r0,#0
        0x00003742:    d007        ..      BEQ      0x3754 ; main + 1548
        0x00003744:    7e60        `~      LDRB     r0,[r4,#0x19]
        0x00003746:    2800        .(      CMP      r0,#0
        0x00003748:    d004        ..      BEQ      0x3754 ; main + 1548
        0x0000374a:    79a0        .y      LDRB     r0,[r4,#6]
        0x0000374c:    280a        .(      CMP      r0,#0xa
        0x0000374e:    d07e        ~.      BEQ      0x384e ; main + 1798
        0x00003750:    2800        .(      CMP      r0,#0
        0x00003752:    d07c        |.      BEQ      0x384e ; main + 1798
        0x00003754:    7920         y      LDRB     r0,[r4,#4]
        0x00003756:    2800        .(      CMP      r0,#0
        0x00003758:    d007        ..      BEQ      0x376a ; main + 1570
        0x0000375a:    7d28        (}      LDRB     r0,[r5,#0x14]
        0x0000375c:    2800        .(      CMP      r0,#0
        0x0000375e:    d004        ..      BEQ      0x376a ; main + 1570
        0x00003760:    79a0        .y      LDRB     r0,[r4,#6]
        0x00003762:    2808        .(      CMP      r0,#8
        0x00003764:    d074        t.      BEQ      0x3850 ; main + 1800
        0x00003766:    2800        .(      CMP      r0,#0
        0x00003768:    d073        s.      BEQ      0x3852 ; main + 1802
        0x0000376a:    e1dd        ..      B        0x3b28 ; main + 2528
        0x0000376c:    49bf        .I      LDR      r1,[pc,#764] ; [0x3a6c] = 0x20000030
        0x0000376e:    2280        ."      MOVS     r2,#0x80
        0x00003770:    3180        .1      ADDS     r1,r1,#0x80
        0x00003772:    6c08        .l      LDR      r0,[r1,#0x40]
        0x00003774:    4310        .C      ORRS     r0,r0,r2
        0x00003776:    6408        .d      STR      r0,[r1,#0x40]
        0x00003778:    b280        ..      UXTH     r0,r0
        0x0000377a:    994f        O.      LDR      r1,[sp,#0x13c]
        0x0000377c:    f7fdfcb2    ....    BL       ConverStateBitToASC ; 0x10e4
        0x00003780:    71a7        .q      STRB     r7,[r4,#6]
        0x00003782:    2220         "      MOVS     r2,#0x20
        0x00003784:    4668        hF      MOV      r0,sp
        0x00003786:    994e        N.      LDR      r1,[sp,#0x138]
        0x00003788:    f7fcfd61    ..a.    BL       __aeabi_memcpy ; 0x24e
        0x0000378c:    2230        0"      MOVS     r2,#0x30
        0x0000378e:    49b8        .I      LDR      r1,[pc,#736] ; [0x3a70] = 0x200006e6
        0x00003790:    a808        ..      ADD      r0,sp,#0x20
        0x00003792:    f7fcfd5c    ..\.    BL       __aeabi_memcpy ; 0x24e
        0x00003796:    a808        ..      ADD      r0,sp,#0x20
        0x00003798:    c80f        ..      LDM      r0,{r0-r3}
        0x0000379a:    f7fefa27    ..'.    BL       GprsSendControlState ; 0x1bec
        0x0000379e:    7568        hu      STRB     r0,[r5,#0x15]
        0x000037a0:    e002        ..      B        0x37a8 ; main + 1632
        0x000037a2:    e21d        ..      B        0x3be0 ; main + 2712
        0x000037a4:    e013        ..      B        0x37ce ; main + 1670
        0x000037a6:    e007        ..      B        0x37b8 ; main + 1648
        0x000037a8:    2804        .(      CMP      r0,#4
        0x000037aa:    d17e        ~.      BNE      0x38aa ; main + 1890
        0x000037ac:    48af        .H      LDR      r0,[pc,#700] ; [0x3a6c] = 0x20000030
        0x000037ae:    7f41        A.      LDRB     r1,[r0,#0x1d]
        0x000037b0:    4339        9C      ORRS     r1,r1,r7
        0x000037b2:    7741        Aw      STRB     r1,[r0,#0x1d]
        0x000037b4:    74c6        .t      STRB     r6,[r0,#0x13]
        0x000037b6:    e1b6        ..      B        0x3b26 ; main + 2526
        0x000037b8:    49ac        .I      LDR      r1,[pc,#688] ; [0x3a6c] = 0x20000030
        0x000037ba:    22ff        ."      MOVS     r2,#0xff
        0x000037bc:    3180        .1      ADDS     r1,r1,#0x80
        0x000037be:    6c08        .l      LDR      r0,[r1,#0x40]
        0x000037c0:    3201        .2      ADDS     r2,#1
        0x000037c2:    4310        .C      ORRS     r0,r0,r2
        0x000037c4:    6408        .d      STR      r0,[r1,#0x40]
        0x000037c6:    b280        ..      UXTH     r0,r0
        0x000037c8:    994f        O.      LDR      r1,[sp,#0x13c]
        0x000037ca:    f7fdfc8b    ....    BL       ConverStateBitToASC ; 0x10e4
        0x000037ce:    2002        .       MOVS     r0,#2
        0x000037d0:    71a0        .q      STRB     r0,[r4,#6]
        0x000037d2:    2220         "      MOVS     r2,#0x20
        0x000037d4:    4668        hF      MOV      r0,sp
        0x000037d6:    994e        N.      LDR      r1,[sp,#0x138]
        0x000037d8:    f7fcfd39    ..9.    BL       __aeabi_memcpy ; 0x24e
        0x000037dc:    2230        0"      MOVS     r2,#0x30
        0x000037de:    49a4        .I      LDR      r1,[pc,#656] ; [0x3a70] = 0x200006e6
        0x000037e0:    e006        ..      B        0x37f0 ; main + 1704
        0x000037e2:    e026        &.      B        0x3832 ; main + 1770
        0x000037e4:    e017        ..      B        0x3816 ; main + 1742
        0x000037e6:    e052        R.      B        0x388e ; main + 1862
        0x000037e8:    e043        C.      B        0x3872 ; main + 1834
        0x000037ea:    e06e        n.      B        0x38ca ; main + 1922
        0x000037ec:    e0b7        ..      B        0x395e ; main + 2070
        0x000037ee:    e082        ..      B        0x38f6 ; main + 1966
        0x000037f0:    a808        ..      ADD      r0,sp,#0x20
        0x000037f2:    f7fcfd2c    ..,.    BL       __aeabi_memcpy ; 0x24e
        0x000037f6:    a808        ..      ADD      r0,sp,#0x20
        0x000037f8:    c80f        ..      LDM      r0,{r0-r3}
        0x000037fa:    f7fef9f7    ....    BL       GprsSendControlState ; 0x1bec
        0x000037fe:    7568        hu      STRB     r0,[r5,#0x15]
        0x00003800:    2804        .(      CMP      r0,#4
        0x00003802:    d152        R.      BNE      0x38aa ; main + 1890
        0x00003804:    4899        .H      LDR      r0,[pc,#612] ; [0x3a6c] = 0x20000030
        0x00003806:    2202        ."      MOVS     r2,#2
        0x00003808:    7f41        A.      LDRB     r1,[r0,#0x1d]
        0x0000380a:    4311        .C      ORRS     r1,r1,r2
        0x0000380c:    7741        Aw      STRB     r1,[r0,#0x1d]
        0x0000380e:    7506        .u      STRB     r6,[r0,#0x14]
        0x00003810:    e189        ..      B        0x3b26 ; main + 2526
        0x00003812:    e0c0        ..      B        0x3996 ; main + 2126
        0x00003814:    e0dd        ..      B        0x39d2 ; main + 2186
        0x00003816:    4a95        .J      LDR      r2,[pc,#596] ; [0x3a6c] = 0x20000030
        0x00003818:    2101        .!      MOVS     r1,#1
        0x0000381a:    3280        .2      ADDS     r2,r2,#0x80
        0x0000381c:    6c10        .l      LDR      r0,[r2,#0x40]
        0x0000381e:    0289        ..      LSLS     r1,r1,#10
        0x00003820:    4308        .C      ORRS     r0,r0,r1
        0x00003822:    2105        .!      MOVS     r1,#5
        0x00003824:    0249        I.      LSLS     r1,r1,#9
        0x00003826:    4388        .C      BICS     r0,r0,r1
        0x00003828:    6410        .d      STR      r0,[r2,#0x40]
        0x0000382a:    b280        ..      UXTH     r0,r0
        0x0000382c:    994f        O.      LDR      r1,[sp,#0x13c]
        0x0000382e:    f7fdfc59    ..Y.    BL       ConverStateBitToASC ; 0x10e4
        0x00003832:    2003        .       MOVS     r0,#3
        0x00003834:    71a0        .q      STRB     r0,[r4,#6]
        0x00003836:    2220         "      MOVS     r2,#0x20
        0x00003838:    4668        hF      MOV      r0,sp
        0x0000383a:    994e        N.      LDR      r1,[sp,#0x138]
        0x0000383c:    f7fcfd07    ....    BL       __aeabi_memcpy ; 0x24e
        0x00003840:    2230        0"      MOVS     r2,#0x30
        0x00003842:    498b        .I      LDR      r1,[pc,#556] ; [0x3a70] = 0x200006e6
        0x00003844:    a808        ..      ADD      r0,sp,#0x20
        0x00003846:    f7fcfd02    ....    BL       __aeabi_memcpy ; 0x24e
        0x0000384a:    a808        ..      ADD      r0,sp,#0x20
        0x0000384c:    e002        ..      B        0x3854 ; main + 1804
        0x0000384e:    e0d6        ..      B        0x39fe ; main + 2230
        0x00003850:    e0ed        ..      B        0x3a2e ; main + 2278
        0x00003852:    e0ea        ..      B        0x3a2a ; main + 2274
        0x00003854:    c80f        ..      LDM      r0,{r0-r3}
        0x00003856:    f7fef9c9    ....    BL       GprsSendControlState ; 0x1bec
        0x0000385a:    7568        hu      STRB     r0,[r5,#0x15]
        0x0000385c:    2804        .(      CMP      r0,#4
        0x0000385e:    d124        $.      BNE      0x38aa ; main + 1890
        0x00003860:    4882        .H      LDR      r0,[pc,#520] ; [0x3a6c] = 0x20000030
        0x00003862:    2210        ."      MOVS     r2,#0x10
        0x00003864:    7f41        A.      LDRB     r1,[r0,#0x1d]
        0x00003866:    4311        .C      ORRS     r1,r1,r2
        0x00003868:    22f3        ."      MOVS     r2,#0xf3
        0x0000386a:    4011        .@      ANDS     r1,r1,r2
        0x0000386c:    7741        Aw      STRB     r1,[r0,#0x1d]
        0x0000386e:    7546        Fu      STRB     r6,[r0,#0x15]
        0x00003870:    e159        Y.      B        0x3b26 ; main + 2526
        0x00003872:    4a7e        ~J      LDR      r2,[pc,#504] ; [0x3a6c] = 0x20000030
        0x00003874:    2101        .!      MOVS     r1,#1
        0x00003876:    3280        .2      ADDS     r2,r2,#0x80
        0x00003878:    6c10        .l      LDR      r0,[r2,#0x40]
        0x0000387a:    02c9        ..      LSLS     r1,r1,#11
        0x0000387c:    4308        .C      ORRS     r0,r0,r1
        0x0000387e:    2103        .!      MOVS     r1,#3
        0x00003880:    0249        I.      LSLS     r1,r1,#9
        0x00003882:    4388        .C      BICS     r0,r0,r1
        0x00003884:    6410        .d      STR      r0,[r2,#0x40]
        0x00003886:    b280        ..      UXTH     r0,r0
        0x00003888:    994f        O.      LDR      r1,[sp,#0x13c]
        0x0000388a:    f7fdfc2b    ..+.    BL       ConverStateBitToASC ; 0x10e4
        0x0000388e:    2004        .       MOVS     r0,#4
        0x00003890:    71a0        .q      STRB     r0,[r4,#6]
        0x00003892:    2220         "      MOVS     r2,#0x20
        0x00003894:    4668        hF      MOV      r0,sp
        0x00003896:    994e        N.      LDR      r1,[sp,#0x138]
        0x00003898:    f7fcfcd9    ....    BL       __aeabi_memcpy ; 0x24e
        0x0000389c:    2230        0"      MOVS     r2,#0x30
        0x0000389e:    4974        tI      LDR      r1,[pc,#464] ; [0x3a70] = 0x200006e6
        0x000038a0:    a808        ..      ADD      r0,sp,#0x20
        0x000038a2:    f7fcfcd4    ....    BL       __aeabi_memcpy ; 0x24e
        0x000038a6:    a808        ..      ADD      r0,sp,#0x20
        0x000038a8:    e000        ..      B        0x38ac ; main + 1892
        0x000038aa:    e084        ..      B        0x39b6 ; main + 2158
        0x000038ac:    c80f        ..      LDM      r0,{r0-r3}
        0x000038ae:    f7fef99d    ....    BL       GprsSendControlState ; 0x1bec
        0x000038b2:    7568        hu      STRB     r0,[r5,#0x15]
        0x000038b4:    2804        .(      CMP      r0,#4
        0x000038b6:    d17e        ~.      BNE      0x39b6 ; main + 2158
        0x000038b8:    486c        lH      LDR      r0,[pc,#432] ; [0x3a6c] = 0x20000030
        0x000038ba:    2208        ."      MOVS     r2,#8
        0x000038bc:    7f41        A.      LDRB     r1,[r0,#0x1d]
        0x000038be:    4311        .C      ORRS     r1,r1,r2
        0x000038c0:    22eb        ."      MOVS     r2,#0xeb
        0x000038c2:    4011        .@      ANDS     r1,r1,r2
        0x000038c4:    7741        Aw      STRB     r1,[r0,#0x1d]
        0x000038c6:    7586        .u      STRB     r6,[r0,#0x16]
        0x000038c8:    e12d        -.      B        0x3b26 ; main + 2526
        0x000038ca:    2005        .       MOVS     r0,#5
        0x000038cc:    71a0        .q      STRB     r0,[r4,#6]
        0x000038ce:    2220         "      MOVS     r2,#0x20
        0x000038d0:    4668        hF      MOV      r0,sp
        0x000038d2:    994e        N.      LDR      r1,[sp,#0x138]
        0x000038d4:    f7fcfcbb    ....    BL       __aeabi_memcpy ; 0x24e
        0x000038d8:    2230        0"      MOVS     r2,#0x30
        0x000038da:    4965        eI      LDR      r1,[pc,#404] ; [0x3a70] = 0x200006e6
        0x000038dc:    a808        ..      ADD      r0,sp,#0x20
        0x000038de:    f7fcfcb6    ....    BL       __aeabi_memcpy ; 0x24e
        0x000038e2:    a808        ..      ADD      r0,sp,#0x20
        0x000038e4:    c80f        ..      LDM      r0,{r0-r3}
        0x000038e6:    f7fef981    ....    BL       GprsSendControlState ; 0x1bec
        0x000038ea:    7568        hu      STRB     r0,[r5,#0x15]
        0x000038ec:    2804        .(      CMP      r0,#4
        0x000038ee:    d162        b.      BNE      0x39b6 ; main + 2158
        0x000038f0:    485e        ^H      LDR      r0,[pc,#376] ; [0x3a6c] = 0x20000030
        0x000038f2:    75c6        .u      STRB     r6,[r0,#0x17]
        0x000038f4:    e117        ..      B        0x3b26 ; main + 2526
        0x000038f6:    485d        ]H      LDR      r0,[pc,#372] ; [0x3a6c] = 0x20000030
        0x000038f8:    2101        .!      MOVS     r1,#1
        0x000038fa:    3080        .0      ADDS     r0,r0,#0x80
        0x000038fc:    6c00        .l      LDR      r0,[r0,#0x40]
        0x000038fe:    0249        I.      LSLS     r1,r1,#9
        0x00003900:    4308        .C      ORRS     r0,r0,r1
        0x00003902:    2103        .!      MOVS     r1,#3
        0x00003904:    0289        ..      LSLS     r1,r1,#10
        0x00003906:    4388        .C      BICS     r0,r0,r1
        0x00003908:    4958        XI      LDR      r1,[pc,#352] ; [0x3a6c] = 0x20000030
        0x0000390a:    3180        .1      ADDS     r1,r1,#0x80
        0x0000390c:    6408        .d      STR      r0,[r1,#0x40]
        0x0000390e:    b280        ..      UXTH     r0,r0
        0x00003910:    994f        O.      LDR      r1,[sp,#0x13c]
        0x00003912:    f7fdfbe7    ....    BL       ConverStateBitToASC ; 0x10e4
        0x00003916:    4956        VI      LDR      r1,[pc,#344] ; [0x3a70] = 0x200006e6
        0x00003918:    220a        ."      MOVS     r2,#0xa
        0x0000391a:    3927        '9      SUBS     r1,r1,#0x27
        0x0000391c:    7f88        ..      LDRB     r0,[r1,#0x1e]
        0x0000391e:    7fc9        ..      LDRB     r1,[r1,#0x1f]
        0x00003920:    3830        08      SUBS     r0,r0,#0x30
        0x00003922:    4350        PC      MULS     r0,r2,r0
        0x00003924:    3830        08      SUBS     r0,r0,#0x30
        0x00003926:    1809        ..      ADDS     r1,r1,r0
        0x00003928:    4851        QH      LDR      r0,[pc,#324] ; [0x3a70] = 0x200006e6
        0x0000392a:    230a        .#      MOVS     r3,#0xa
        0x0000392c:    1fc0        ..      SUBS     r0,r0,#7
        0x0000392e:    7802        .x      LDRB     r2,[r0,#0]
        0x00003930:    4359        YC      MULS     r1,r3,r1
        0x00003932:    3930        09      SUBS     r1,r1,#0x30
        0x00003934:    1851        Q.      ADDS     r1,r2,r1
        0x00003936:    7842        Bx      LDRB     r2,[r0,#1]
        0x00003938:    4359        YC      MULS     r1,r3,r1
        0x0000393a:    3930        09      SUBS     r1,r1,#0x30
        0x0000393c:    1852        R.      ADDS     r2,r2,r1
        0x0000393e:    494b        KI      LDR      r1,[pc,#300] ; [0x3a6c] = 0x20000030
        0x00003940:    3180        .1      ADDS     r1,r1,#0x80
        0x00003942:    638a        .c      STR      r2,[r1,#0x38]
        0x00003944:    7881        .x      LDRB     r1,[r0,#2]
        0x00003946:    78c2        .x      LDRB     r2,[r0,#3]
        0x00003948:    3930        09      SUBS     r1,r1,#0x30
        0x0000394a:    4359        YC      MULS     r1,r3,r1
        0x0000394c:    3930        09      SUBS     r1,r1,#0x30
        0x0000394e:    1851        Q.      ADDS     r1,r2,r1
        0x00003950:    220a        ."      MOVS     r2,#0xa
        0x00003952:    7900        .y      LDRB     r0,[r0,#4]
        0x00003954:    4351        QC      MULS     r1,r2,r1
        0x00003956:    3930        09      SUBS     r1,r1,#0x30
        0x00003958:    1840        @.      ADDS     r0,r0,r1
        0x0000395a:    4944        DI      LDR      r1,[pc,#272] ; [0x3a6c] = 0x20000030
        0x0000395c:    7708        .w      STRB     r0,[r1,#0x1c]
        0x0000395e:    2006        .       MOVS     r0,#6
        0x00003960:    71a0        .q      STRB     r0,[r4,#6]
        0x00003962:    2220         "      MOVS     r2,#0x20
        0x00003964:    4668        hF      MOV      r0,sp
        0x00003966:    994e        N.      LDR      r1,[sp,#0x138]
        0x00003968:    f7fcfc71    ..q.    BL       __aeabi_memcpy ; 0x24e
        0x0000396c:    2230        0"      MOVS     r2,#0x30
        0x0000396e:    4940        @I      LDR      r1,[pc,#256] ; [0x3a70] = 0x200006e6
        0x00003970:    a808        ..      ADD      r0,sp,#0x20
        0x00003972:    f7fcfc6c    ..l.    BL       __aeabi_memcpy ; 0x24e
        0x00003976:    a808        ..      ADD      r0,sp,#0x20
        0x00003978:    c80f        ..      LDM      r0,{r0-r3}
        0x0000397a:    f7fef937    ..7.    BL       GprsSendControlState ; 0x1bec
        0x0000397e:    7568        hu      STRB     r0,[r5,#0x15]
        0x00003980:    2804        .(      CMP      r0,#4
        0x00003982:    d118        ..      BNE      0x39b6 ; main + 2158
        0x00003984:    4939        9I      LDR      r1,[pc,#228] ; [0x3a6c] = 0x20000030
        0x00003986:    2204        ."      MOVS     r2,#4
        0x00003988:    7f48        H.      LDRB     r0,[r1,#0x1d]
        0x0000398a:    4310        .C      ORRS     r0,r0,r2
        0x0000398c:    22e7        ."      MOVS     r2,#0xe7
        0x0000398e:    4010        .@      ANDS     r0,r0,r2
        0x00003990:    7748        Hw      STRB     r0,[r1,#0x1d]
        0x00003992:    73ae        .s      STRB     r6,[r5,#0xe]
        0x00003994:    e0c7        ..      B        0x3b26 ; main + 2526
        0x00003996:    2007        .       MOVS     r0,#7
        0x00003998:    71a0        .q      STRB     r0,[r4,#6]
        0x0000399a:    2210        ."      MOVS     r2,#0x10
        0x0000399c:    4668        hF      MOV      r0,sp
        0x0000399e:    9953        S.      LDR      r1,[sp,#0x14c]
        0x000039a0:    f7fcfc55    ..U.    BL       __aeabi_memcpy ; 0x24e
        0x000039a4:    492d        -I      LDR      r1,[pc,#180] ; [0x3a5c] = 0x2000054c
        0x000039a6:    2220         "      MOVS     r2,#0x20
        0x000039a8:    31b3        .1      ADDS     r1,r1,#0xb3
        0x000039aa:    a804        ..      ADD      r0,sp,#0x10
        0x000039ac:    f7fcfc4f    ..O.    BL       __aeabi_memcpy ; 0x24e
        0x000039b0:    a804        ..      ADD      r0,sp,#0x10
        0x000039b2:    c80f        ..      LDM      r0,{r0-r3}
        0x000039b4:    e000        ..      B        0x39b8 ; main + 2160
        0x000039b6:    e00b        ..      B        0x39d0 ; main + 2184
        0x000039b8:    f7fefa9e    ....    BL       GprsSendRp ; 0x1ef8
        0x000039bc:    7568        hu      STRB     r0,[r5,#0x15]
        0x000039be:    2804        .(      CMP      r0,#4
        0x000039c0:    d001        ..      BEQ      0x39c6 ; main + 2174
        0x000039c2:    2800        .(      CMP      r0,#0
        0x000039c4:    d104        ..      BNE      0x39d0 ; main + 2184
        0x000039c6:    4829        )H      LDR      r0,[pc,#164] ; [0x3a6c] = 0x20000030
        0x000039c8:    71a6        .q      STRB     r6,[r4,#6]
        0x000039ca:    7486        .t      STRB     r6,[r0,#0x12]
        0x000039cc:    4829        )H      LDR      r0,[pc,#164] ; [0x3a74] = 0x26ac
        0x000039ce:    82e8        ..      STRH     r0,[r5,#0x16]
        0x000039d0:    e0aa        ..      B        0x3b28 ; main + 2528
        0x000039d2:    2009        .       MOVS     r0,#9
        0x000039d4:    71a0        .q      STRB     r0,[r4,#6]
        0x000039d6:    2216        ."      MOVS     r2,#0x16
        0x000039d8:    4668        hF      MOV      r0,sp
        0x000039da:    9951        Q.      LDR      r1,[sp,#0x144]
        0x000039dc:    f7fcfc37    ..7.    BL       __aeabi_memcpy ; 0x24e
        0x000039e0:    4923        #I      LDR      r1,[pc,#140] ; [0x3a70] = 0x200006e6
        0x000039e2:    2226        &"      MOVS     r2,#0x26
        0x000039e4:    3130        01      ADDS     r1,r1,#0x30
        0x000039e6:    a806        ..      ADD      r0,sp,#0x18
        0x000039e8:    f7fcfc31    ..1.    BL       __aeabi_memcpy ; 0x24e
        0x000039ec:    a806        ..      ADD      r0,sp,#0x18
        0x000039ee:    c80f        ..      LDM      r0,{r0-r3}
        0x000039f0:    f7fefa10    ....    BL       GprsSendJMRp ; 0x1e14
        0x000039f4:    7568        hu      STRB     r0,[r5,#0x15]
        0x000039f6:    2804        .(      CMP      r0,#4
        0x000039f8:    d17e        ~.      BNE      0x3af8 ; main + 2480
        0x000039fa:    73ee        .s      STRB     r6,[r5,#0xf]
        0x000039fc:    e093        ..      B        0x3b26 ; main + 2526
        0x000039fe:    200a        .       MOVS     r0,#0xa
        0x00003a00:    71a0        .q      STRB     r0,[r4,#6]
        0x00003a02:    2216        ."      MOVS     r2,#0x16
        0x00003a04:    4668        hF      MOV      r0,sp
        0x00003a06:    9952        R.      LDR      r1,[sp,#0x148]
        0x00003a08:    f7fcfc21    ..!.    BL       __aeabi_memcpy ; 0x24e
        0x00003a0c:    4918        .I      LDR      r1,[pc,#96] ; [0x3a70] = 0x200006e6
        0x00003a0e:    2228        ("      MOVS     r2,#0x28
        0x00003a10:    3156        V1      ADDS     r1,r1,#0x56
        0x00003a12:    a806        ..      ADD      r0,sp,#0x18
        0x00003a14:    f7fcfc1b    ....    BL       __aeabi_memcpy ; 0x24e
        0x00003a18:    a806        ..      ADD      r0,sp,#0x18
        0x00003a1a:    c80f        ..      LDM      r0,{r0-r3}
        0x00003a1c:    f7fef9fa    ....    BL       GprsSendJMRp ; 0x1e14
        0x00003a20:    7568        hu      STRB     r0,[r5,#0x15]
        0x00003a22:    2804        .(      CMP      r0,#4
        0x00003a24:    d168        h.      BNE      0x3af8 ; main + 2480
        0x00003a26:    742e        .t      STRB     r6,[r5,#0x10]
        0x00003a28:    e07d        }.      B        0x3b26 ; main + 2526
        0x00003a2a:    f7fdfb6d    ..m.    BL       ConvertCanToCarDat ; 0x1108
        0x00003a2e:    2008        .       MOVS     r0,#8
        0x00003a30:    71a0        .q      STRB     r0,[r4,#6]
        0x00003a32:    f7fff8fd    ....    BL       WaiBuDianYuanPowerOffFun ; 0x2c30
        0x00003a36:    4b10        .K      LDR      r3,[pc,#64] ; [0x3a78] = 0x20000149
        0x00003a38:    7018        .p      STRB     r0,[r3,#0]
        0x00003a3a:    705e        ^p      STRB     r6,[r3,#1]
        0x00003a3c:    f7fcfda2    ....    BL       BackBatteryPowerOffFun ; 0x584
        0x00003a40:    7098        .p      STRB     r0,[r3,#2]
        0x00003a42:    f7fefb4d    ..M.    BL       SIMCardChangeAlarmFun ; 0x20e0
        0x00003a46:    70d8        .p      STRB     r0,[r3,#3]
        0x00003a48:    781a        .x      LDRB     r2,[r3,#0]
        0x00003a4a:    2a01        .*      CMP      r2,#1
        0x00003a4c:    d103        ..      BNE      0x3a56 ; main + 2318
        0x00003a4e:    73a7        .s      STRB     r7,[r4,#0xe]
        0x00003a50:    7aa1        .z      LDRB     r1,[r4,#0xa]
        0x00003a52:    1c49        I.      ADDS     r1,r1,#1
        0x00003a54:    72a1        .r      STRB     r1,[r4,#0xa]
        0x00003a56:    e011        ..      B        0x3a7c ; main + 2356
    $d
        0x00003a58:    50004280    .B.P    DCD    1342194304
        0x00003a5c:    2000054c    L..     DCD    536872268
        0x00003a60:    50004040    @@.P    DCD    1342193728
        0x00003a64:    40004000    .@.@    DCD    1073758208
        0x00003a68:    50000100    ...P    DCD    1342177536
        0x00003a6c:    20000030    0..     DCD    536870960
        0x00003a70:    200006e6    ...     DCD    536872678
        0x00003a74:    000026ac    .&..    DCD    9900
        0x00003a78:    20000149    I..     DCD    536871241
    $t
        0x00003a7c:    7859        Yx      LDRB     r1,[r3,#1]
        0x00003a7e:    468c        .F      MOV      r12,r1
        0x00003a80:    2901        .)      CMP      r1,#1
        0x00003a82:    d103        ..      BNE      0x3a8c ; main + 2372
        0x00003a84:    73a7        .s      STRB     r7,[r4,#0xe]
        0x00003a86:    7b61        a{      LDRB     r1,[r4,#0xd]
        0x00003a88:    1c49        I.      ADDS     r1,r1,#1
        0x00003a8a:    7361        as      STRB     r1,[r4,#0xd]
        0x00003a8c:    7899        .x      LDRB     r1,[r3,#2]
        0x00003a8e:    2901        .)      CMP      r1,#1
        0x00003a90:    d103        ..      BNE      0x3a9a ; main + 2386
        0x00003a92:    73a7        .s      STRB     r7,[r4,#0xe]
        0x00003a94:    7ae3        .z      LDRB     r3,[r4,#0xb]
        0x00003a96:    1c5b        [.      ADDS     r3,r3,#1
        0x00003a98:    72e3        .r      STRB     r3,[r4,#0xb]
        0x00003a9a:    2801        .(      CMP      r0,#1
        0x00003a9c:    d103        ..      BNE      0x3aa6 ; main + 2398
        0x00003a9e:    73a7        .s      STRB     r7,[r4,#0xe]
        0x00003aa0:    7b23        #{      LDRB     r3,[r4,#0xc]
        0x00003aa2:    1c5b        [.      ADDS     r3,r3,#1
        0x00003aa4:    7323        #s      STRB     r3,[r4,#0xc]
        0x00003aa6:    2a00        .*      CMP      r2,#0
        0x00003aa8:    d106        ..      BNE      0x3ab8 ; main + 2416
        0x00003aaa:    4662        bF      MOV      r2,r12
        0x00003aac:    2a00        .*      CMP      r2,#0
        0x00003aae:    d103        ..      BNE      0x3ab8 ; main + 2416
        0x00003ab0:    2900        .)      CMP      r1,#0
        0x00003ab2:    d101        ..      BNE      0x3ab8 ; main + 2416
        0x00003ab4:    2800        .(      CMP      r0,#0
        0x00003ab6:    d020         .      BEQ      0x3afa ; main + 2482
        0x00003ab8:    7ba0        .{      LDRB     r0,[r4,#0xe]
        0x00003aba:    2800        .(      CMP      r0,#0
        0x00003abc:    d01e        ..      BEQ      0x3afc ; main + 2484
        0x00003abe:    7aa0        .z      LDRB     r0,[r4,#0xa]
        0x00003ac0:    2805        .(      CMP      r0,#5
        0x00003ac2:    d308        ..      BCC      0x3ad6 ; main + 2446
        0x00003ac4:    7ae1        .z      LDRB     r1,[r4,#0xb]
        0x00003ac6:    2905        .)      CMP      r1,#5
        0x00003ac8:    d305        ..      BCC      0x3ad6 ; main + 2446
        0x00003aca:    7b21        !{      LDRB     r1,[r4,#0xc]
        0x00003acc:    2905        .)      CMP      r1,#5
        0x00003ace:    d302        ..      BCC      0x3ad6 ; main + 2446
        0x00003ad0:    7b61        a{      LDRB     r1,[r4,#0xd]
        0x00003ad2:    2905        .)      CMP      r1,#5
        0x00003ad4:    d212        ..      BCS      0x3afc ; main + 2484
        0x00003ad6:    1c40        @.      ADDS     r0,r0,#1
        0x00003ad8:    72a0        .r      STRB     r0,[r4,#0xa]
        0x00003ada:    2293        ."      MOVS     r2,#0x93
        0x00003adc:    4668        hF      MOV      r0,sp
        0x00003ade:    9950        P.      LDR      r1,[sp,#0x140]
        0x00003ae0:    f7fcfbb5    ....    BL       __aeabi_memcpy ; 0x24e
        0x00003ae4:    22a4        ."      MOVS     r2,#0xa4
        0x00003ae6:    4968        hI      LDR      r1,[pc,#416] ; [0x3c88] = 0x2000053c
        0x00003ae8:    a825        %.      ADD      r0,sp,#0x94
        0x00003aea:    f7fcfbb0    ....    BL       __aeabi_memcpy ; 0x24e
        0x00003aee:    a825        %.      ADD      r0,sp,#0x94
        0x00003af0:    c80f        ..      LDM      r0,{r0-r3}
        0x00003af2:    f7fcfc99    ....    BL       AlarmBDRSSend ; 0x428
        0x00003af6:    e00f        ..      B        0x3b18 ; main + 2512
        0x00003af8:    e016        ..      B        0x3b28 ; main + 2528
        0x00003afa:    73a6        .s      STRB     r6,[r4,#0xe]
        0x00003afc:    2293        ."      MOVS     r2,#0x93
        0x00003afe:    4668        hF      MOV      r0,sp
        0x00003b00:    9950        P.      LDR      r1,[sp,#0x140]
        0x00003b02:    f7fcfba4    ....    BL       __aeabi_memcpy ; 0x24e
        0x00003b06:    22a4        ."      MOVS     r2,#0xa4
        0x00003b08:    495f        _I      LDR      r1,[pc,#380] ; [0x3c88] = 0x2000053c
        0x00003b0a:    a825        %.      ADD      r0,sp,#0x94
        0x00003b0c:    f7fcfb9f    ....    BL       __aeabi_memcpy ; 0x24e
        0x00003b10:    a825        %.      ADD      r0,sp,#0x94
        0x00003b12:    c80f        ..      LDM      r0,{r0-r3}
        0x00003b14:    f7fef8da    ....    BL       GprsSendData ; 0x1ccc
        0x00003b18:    7568        hu      STRB     r0,[r5,#0x15]
        0x00003b1a:    b2c0        ..      UXTB     r0,r0
        0x00003b1c:    2804        .(      CMP      r0,#4
        0x00003b1e:    d001        ..      BEQ      0x3b24 ; main + 2524
        0x00003b20:    2800        .(      CMP      r0,#0
        0x00003b22:    d101        ..      BNE      0x3b28 ; main + 2528
        0x00003b24:    752e        .u      STRB     r6,[r5,#0x14]
        0x00003b26:    71a6        .q      STRB     r6,[r4,#6]
        0x00003b28:    7a60        `z      LDRB     r0,[r4,#9]
        0x00003b2a:    2800        .(      CMP      r0,#0
        0x00003b2c:    d05a        Z.      BEQ      0x3be4 ; main + 2716
        0x00003b2e:    4857        WH      LDR      r0,[pc,#348] ; [0x3c8c] = 0x200003c8
        0x00003b30:    f7fcfbc8    ....    BL       strlen ; 0x2c4
        0x00003b34:    1e82        ..      SUBS     r2,r0,#2
        0x00003b36:    4856        VH      LDR      r0,[pc,#344] ; [0x3c90] = 0x200000b0
        0x00003b38:    4954        TI      LDR      r1,[pc,#336] ; [0x3c8c] = 0x200003c8
        0x00003b3a:    69c0        .i      LDR      r0,[r0,#0x1c]
        0x00003b3c:    3012        .0      ADDS     r0,r0,#0x12
        0x00003b3e:    f7fcfb86    ....    BL       __aeabi_memcpy ; 0x24e
        0x00003b42:    7266        fr      STRB     r6,[r4,#9]
        0x00003b44:    4853        SH      LDR      r0,[pc,#332] ; [0x3c94] = 0x50004040
        0x00003b46:    6900        .i      LDR      r0,[r0,#0x10]
        0x00003b48:    0480        ..      LSLS     r0,r0,#18
        0x00003b4a:    d521        !.      BPL      0x3b90 ; main + 2632
        0x00003b4c:    7e20         ~      LDRB     r0,[r4,#0x18]
        0x00003b4e:    2814        .(      CMP      r0,#0x14
        0x00003b50:    d332        2.      BCC      0x3bb8 ; main + 2672
        0x00003b52:    7ca0        .|      LDRB     r0,[r4,#0x12]
        0x00003b54:    2800        .(      CMP      r0,#0
        0x00003b56:    d119        ..      BNE      0x3b8c ; main + 2628
        0x00003b58:    7526        &u      STRB     r6,[r4,#0x14]
        0x00003b5a:    484d        MH      LDR      r0,[pc,#308] ; [0x3c90] = 0x200000b0
        0x00003b5c:    7426        &t      STRB     r6,[r4,#0x10]
        0x00003b5e:    74a7        .t      STRB     r7,[r4,#0x12]
        0x00003b60:    2100        .!      MOVS     r1,#0
        0x00003b62:    3080        .0      ADDS     r0,r0,#0x80
        0x00003b64:    6201        .b      STR      r1,[r0,#0x20]
        0x00003b66:    6241        Ab      STR      r1,[r0,#0x24]
        0x00003b68:    7466        ft      STRB     r6,[r4,#0x11]
        0x00003b6a:    3880        .8      SUBS     r0,r0,#0x80
        0x00003b6c:    6d00        .m      LDR      r0,[r0,#0x50]
        0x00003b6e:    4948        HI      LDR      r1,[pc,#288] ; [0x3c90] = 0x200000b0
        0x00003b70:    1c40        @.      ADDS     r0,r0,#1
        0x00003b72:    6508        .e      STR      r0,[r1,#0x50]
        0x00003b74:    b280        ..      UXTH     r0,r0
        0x00003b76:    4948        HI      LDR      r1,[pc,#288] ; [0x3c98] = 0x20000718
        0x00003b78:    f7fdfa94    ....    BL       ConverJMsnumToASC ; 0x10a4
        0x00003b7c:    4844        DH      LDR      r0,[pc,#272] ; [0x3c90] = 0x200000b0
        0x00003b7e:    4946        FI      LDR      r1,[pc,#280] ; [0x3c98] = 0x20000718
        0x00003b80:    6d00        .m      LDR      r0,[r0,#0x50]
        0x00003b82:    3126        &1      ADDS     r1,r1,#0x26
        0x00003b84:    b280        ..      UXTH     r0,r0
        0x00003b86:    f7fdfa8d    ....    BL       ConverJMsnumToASC ; 0x10a4
        0x00003b8a:    73ef        .s      STRB     r7,[r5,#0xf]
        0x00003b8c:    75a7        .u      STRB     r7,[r4,#0x16]
        0x00003b8e:    e016        ..      B        0x3bbe ; main + 2678
        0x00003b90:    7626        &v      STRB     r6,[r4,#0x18]
        0x00003b92:    74a6        .t      STRB     r6,[r4,#0x12]
        0x00003b94:    7da0        .}      LDRB     r0,[r4,#0x16]
        0x00003b96:    2801        .(      CMP      r0,#1
        0x00003b98:    d002        ..      BEQ      0x3ba0 ; main + 2648
        0x00003b9a:    2800        .(      CMP      r0,#0
        0x00003b9c:    d004        ..      BEQ      0x3ba8 ; main + 2656
        0x00003b9e:    e00e        ..      B        0x3bbe ; main + 2678
        0x00003ba0:    7d20         }      LDRB     r0,[r4,#0x14]
        0x00003ba2:    2800        .(      CMP      r0,#0
        0x00003ba4:    d004        ..      BEQ      0x3bb0 ; main + 2664
        0x00003ba6:    75a6        .u      STRB     r6,[r4,#0x16]
        0x00003ba8:    7667        gv      STRB     r7,[r4,#0x19]
        0x00003baa:    7526        &u      STRB     r6,[r4,#0x14]
        0x00003bac:    7426        &t      STRB     r6,[r4,#0x10]
        0x00003bae:    e00f        ..      B        0x3bd0 ; main + 2696
        0x00003bb0:    2002        .       MOVS     r0,#2
        0x00003bb2:    75a0        .u      STRB     r0,[r4,#0x16]
        0x00003bb4:    75e6        .u      STRB     r6,[r4,#0x17]
        0x00003bb6:    e002        ..      B        0x3bbe ; main + 2678
        0x00003bb8:    7da0        .}      LDRB     r0,[r4,#0x16]
        0x00003bba:    2800        .(      CMP      r0,#0
        0x00003bbc:    d008        ..      BEQ      0x3bd0 ; main + 2696
        0x00003bbe:    7ce0        .|      LDRB     r0,[r4,#0x13]
        0x00003bc0:    280a        .(      CMP      r0,#0xa
        0x00003bc2:    d202        ..      BCS      0x3bca ; main + 2690
        0x00003bc4:    7da0        .}      LDRB     r0,[r4,#0x16]
        0x00003bc6:    2802        .(      CMP      r0,#2
        0x00003bc8:    d102        ..      BNE      0x3bd0 ; main + 2696
        0x00003bca:    74e6        .t      STRB     r6,[r4,#0x13]
        0x00003bcc:    f7fff88e    ....    BL       jwdcap ; 0x2cec
        0x00003bd0:    482f        /H      LDR      r0,[pc,#188] ; [0x3c90] = 0x200000b0
        0x00003bd2:    69c0        .i      LDR      r0,[r0,#0x1c]
        0x00003bd4:    3012        .0      ADDS     r0,r0,#0x12
        0x00003bd6:    f7fefffe    ....    BL       VerifyGps ; 0x2bd6
        0x00003bda:    2800        .(      CMP      r0,#0
        0x00003bdc:    d001        ..      BEQ      0x3be2 ; main + 2714
        0x00003bde:    7167        gq      STRB     r7,[r4,#5]
        0x00003be0:    e000        ..      B        0x3be4 ; main + 2716
        0x00003be2:    7166        fq      STRB     r6,[r4,#5]
        0x00003be4:    20ff        .       MOVS     r0,#0xff
        0x00003be6:    3091        .0      ADDS     r0,r0,#0x91
        0x00003be8:    f7fdfc4c    ..L.    BL       Delay_Ms ; 0x1484
        0x00003bec:    4f28        (O      LDR      r7,[pc,#160] ; [0x3c90] = 0x200000b0
        0x00003bee:    2060        `       MOVS     r0,#0x60
        0x00003bf0:    3f80        .?      SUBS     r7,r7,#0x80
        0x00003bf2:    6f79        yo      LDR      r1,[r7,#0x74]
        0x00003bf4:    f7fefb70    ..p.    BL       Send_longdata ; 0x22d8
        0x00003bf8:    4823        #H      LDR      r0,[pc,#140] ; [0x3c88] = 0x2000053c
        0x00003bfa:    6f79        yo      LDR      r1,[r7,#0x74]
        0x00003bfc:    3824        $8      SUBS     r0,r0,#0x24
        0x00003bfe:    60c1        .`      STR      r1,[r0,#0xc]
        0x00003c00:    7968        hy      LDRB     r0,[r5,#5]
        0x00003c02:    2808        .(      CMP      r0,#8
        0x00003c04:    d901        ..      BLS      0x3c0a ; main + 2754
        0x00003c06:    2008        .       MOVS     r0,#8
        0x00003c08:    7168        hq      STRB     r0,[r5,#5]
        0x00003c0a:    b2c1        ..      UXTB     r1,r0
        0x00003c0c:    2050        P       MOVS     r0,#0x50
        0x00003c0e:    f7fefb4b    ..K.    BL       Send_data ; 0x22a8
        0x00003c12:    79a9        .y      LDRB     r1,[r5,#6]
        0x00003c14:    2051        Q       MOVS     r0,#0x51
        0x00003c16:    f7fefb47    ..G.    BL       Send_data ; 0x22a8
        0x00003c1a:    481b        .H      LDR      r0,[pc,#108] ; [0x3c88] = 0x2000053c
        0x00003c1c:    79a9        .y      LDRB     r1,[r5,#6]
        0x00003c1e:    3824        $8      SUBS     r0,r0,#0x24
        0x00003c20:    7181        .q      STRB     r1,[r0,#6]
        0x00003c22:    78b9        .x      LDRB     r1,[r7,#2]
        0x00003c24:    2052        R       MOVS     r0,#0x52
        0x00003c26:    f7fefb3f    ..?.    BL       Send_data ; 0x22a8
        0x00003c2a:    4917        .I      LDR      r1,[pc,#92] ; [0x3c88] = 0x2000053c
        0x00003c2c:    78b8        .x      LDRB     r0,[r7,#2]
        0x00003c2e:    3924        $9      SUBS     r1,r1,#0x24
        0x00003c30:    71c8        .q      STRB     r0,[r1,#7]
        0x00003c32:    2828        ((      CMP      r0,#0x28
        0x00003c34:    d201        ..      BCS      0x3c3a ; main + 2802
        0x00003c36:    2128        (!      MOVS     r1,#0x28
        0x00003c38:    71e9        .q      STRB     r1,[r5,#7]
        0x00003c3a:    2878        x(      CMP      r0,#0x78
        0x00003c3c:    d901        ..      BLS      0x3c42 ; main + 2810
        0x00003c3e:    2078        x       MOVS     r0,#0x78
        0x00003c40:    71e8        .q      STRB     r0,[r5,#7]
        0x00003c42:    79e9        .y      LDRB     r1,[r5,#7]
        0x00003c44:    2055        U       MOVS     r0,#0x55
        0x00003c46:    f7fefb2f    ../.    BL       Send_data ; 0x22a8
        0x00003c4a:    2054        T       MOVS     r0,#0x54
        0x00003c4c:    6ef9        .n      LDR      r1,[r7,#0x6c]
        0x00003c4e:    f7fefb2b    ..+.    BL       Send_data ; 0x22a8
        0x00003c52:    490d        .I      LDR      r1,[pc,#52] ; [0x3c88] = 0x2000053c
        0x00003c54:    6ef8        .n      LDR      r0,[r7,#0x6c]
        0x00003c56:    3924        $9      SUBS     r1,r1,#0x24
        0x00003c58:    8308        ..      STRH     r0,[r1,#0x18]
        0x00003c5a:    480d        .H      LDR      r0,[pc,#52] ; [0x3c90] = 0x200000b0
        0x00003c5c:    6dc1        .m      LDR      r1,[r0,#0x5c]
        0x00003c5e:    2064        d       MOVS     r0,#0x64
        0x00003c60:    f7fefb22    ..".    BL       Send_data ; 0x22a8
        0x00003c64:    480a        .H      LDR      r0,[pc,#40] ; [0x3c90] = 0x200000b0
        0x00003c66:    4908        .I      LDR      r1,[pc,#32] ; [0x3c88] = 0x2000053c
        0x00003c68:    6dc0        .m      LDR      r0,[r0,#0x5c]
        0x00003c6a:    3924        $9      SUBS     r1,r1,#0x24
        0x00003c6c:    82c8        ..      STRH     r0,[r1,#0x16]
        0x00003c6e:    f7fcfbaf    ....    BL       Adc_Data ; 0x3d0
        0x00003c72:    79b8        .y      LDRB     r0,[r7,#6]
        0x00003c74:    281e        .(      CMP      r0,#0x1e
        0x00003c76:    d200        ..      BCS      0x3c7a ; main + 2866
        0x00003c78:    e4f4        ..      B        0x3664 ; main + 1308
        0x00003c7a:    79f8        .y      LDRB     r0,[r7,#7]
        0x00003c7c:    2800        .(      CMP      r0,#0
        0x00003c7e:    d0fb        ..      BEQ      0x3c78 ; main + 2864
        0x00003c80:    f7fdfc56    ..V.    BL       EEPROMwrite_Hours ; 0x1530
        0x00003c84:    71fe        .q      STRB     r6,[r7,#7]
        0x00003c86:    e4ed        ..      B        0x3664 ; main + 1308
    $d
        0x00003c88:    2000053c    <..     DCD    536872252
        0x00003c8c:    200003c8    ...     DCD    536871880
        0x00003c90:    200000b0    ...     DCD    536871088
        0x00003c94:    50004040    @@.P    DCD    1342193728
        0x00003c98:    20000718    ...     DCD    536872728
    $t
    i.sns_read
    sns_read
        0x00003c9c:    b510        ..      PUSH     {r4,lr}
        0x00003c9e:    f7fefadd    ....    BL       SYS_UnlockReg ; 0x225c
        0x00003ca2:    f7fdfb1f    ....    BL       DF_ReadSWstate ; 0x12e4
        0x00003ca6:    4a09        .J      LDR      r2,[pc,#36] ; [0x3ccc] = 0x50000100
        0x00003ca8:    2100        .!      MOVS     r1,#0
        0x00003caa:    6011        .`      STR      r1,[r2,#0]
        0x00003cac:    4908        .I      LDR      r1,[pc,#32] ; [0x3cd0] = 0x200000b0
        0x00003cae:    0c02        ..      LSRS     r2,r0,#16
        0x00003cb0:    460b        .F      MOV      r3,r1
        0x00003cb2:    3b80        .;      SUBS     r3,r3,#0x80
        0x00003cb4:    6548        He      STR      r0,[r1,#0x54]
        0x00003cb6:    73da        .s      STRB     r2,[r3,#0xf]
        0x00003cb8:    4a06        .J      LDR      r2,[pc,#24] ; [0x3cd4] = 0x270f
        0x00003cba:    4290        .B      CMP      r0,r2
        0x00003cbc:    d905        ..      BLS      0x3cca ; sns_read + 46
        0x00003cbe:    6e88        .n      LDR      r0,[r1,#0x68]
        0x00003cc0:    2208        ."      MOVS     r2,#8
        0x00003cc2:    4310        .C      ORRS     r0,r0,r2
        0x00003cc4:    6688        .f      STR      r0,[r1,#0x68]
        0x00003cc6:    2005        .       MOVS     r0,#5
        0x00003cc8:    6548        He      STR      r0,[r1,#0x54]
        0x00003cca:    bd10        ..      POP      {r4,pc}
    $d
        0x00003ccc:    50000100    ...P    DCD    1342177536
        0x00003cd0:    200000b0    ...     DCD    536871088
        0x00003cd4:    0000270f    .'..    DCD    9999
    $t
    i.startingup
    startingup
        0x00003cd8:    b510        ..      PUSH     {r4,lr}
        0x00003cda:    4c0f        .L      LDR      r4,[pc,#60] ; [0x3d18] = 0x20000030
        0x00003cdc:    7860        `x      LDRB     r0,[r4,#1]
        0x00003cde:    2800        .(      CMP      r0,#0
        0x00003ce0:    d119        ..      BNE      0x3d16 ; startingup + 62
        0x00003ce2:    4620         F      MOV      r0,r4
        0x00003ce4:    3040        @0      ADDS     r0,r0,#0x40
        0x00003ce6:    2103        .!      MOVS     r1,#3
        0x00003ce8:    7900        .y      LDRB     r0,[r0,#4]
        0x00003cea:    f7fcfa19    ....    BL       __aeabi_uidiv ; 0x120
        0x00003cee:    2201        ."      MOVS     r2,#1
        0x00003cf0:    281e        .(      CMP      r0,#0x1e
        0x00003cf2:    d301        ..      BCC      0x3cf8 ; startingup + 32
        0x00003cf4:    7062        bp      STRB     r2,[r4,#1]
        0x00003cf6:    2040        @       MOVS     r0,#0x40
        0x00003cf8:    4908        .I      LDR      r1,[pc,#32] ; [0x3d1c] = 0x20000a0c
        0x00003cfa:    235a        Z#      MOVS     r3,#0x5a
        0x00003cfc:    700b        .p      STRB     r3,[r1,#0]
        0x00003cfe:    23a5        .#      MOVS     r3,#0xa5
        0x00003d00:    704b        Kp      STRB     r3,[r1,#1]
        0x00003d02:    2303        .#      MOVS     r3,#3
        0x00003d04:    708b        .p      STRB     r3,[r1,#2]
        0x00003d06:    2380        .#      MOVS     r3,#0x80
        0x00003d08:    70cb        .p      STRB     r3,[r1,#3]
        0x00003d0a:    710a        .q      STRB     r2,[r1,#4]
        0x00003d0c:    7148        Hq      STRB     r0,[r1,#5]
        0x00003d0e:    2106        .!      MOVS     r1,#6
        0x00003d10:    4802        .H      LDR      r0,[pc,#8] ; [0x3d1c] = 0x20000a0c
        0x00003d12:    f000f805    ....    BL       sysPrintf1 ; 0x3d20
        0x00003d16:    bd10        ..      POP      {r4,pc}
    $d
        0x00003d18:    20000030    0..     DCD    536870960
        0x00003d1c:    20000a0c    ...     DCD    536873484
    $t
    i.sysPrintf1
    sysPrintf1
        0x00003d20:    b570        p.      PUSH     {r4-r6,lr}
        0x00003d22:    4605        .F      MOV      r5,r0
        0x00003d24:    460e        .F      MOV      r6,r1
        0x00003d26:    2400        .$      MOVS     r4,#0
        0x00003d28:    e005        ..      B        0x3d36 ; sysPrintf1 + 22
        0x00003d2a:    7828        (x      LDRB     r0,[r5,#0]
        0x00003d2c:    1c6d        m.      ADDS     r5,r5,#1
        0x00003d2e:    f7feffa9    ....    BL       _PutChar_f1 ; 0x2c84
        0x00003d32:    1c64        d.      ADDS     r4,r4,#1
        0x00003d34:    b2e4        ..      UXTB     r4,r4
        0x00003d36:    42b4        .B      CMP      r4,r6
        0x00003d38:    d3f7        ..      BCC      0x3d2a ; sysPrintf1 + 10
        0x00003d3a:    bd70        p.      POP      {r4-r6,pc}
    i.uart2TOpfnCallback
    uart2TOpfnCallback
        0x00003d3c:    b5f3        ..      PUSH     {r0,r1,r4-r7,lr}
        0x00003d3e:    4c2c        ,L      LDR      r4,[pc,#176] ; [0x3df0] = 0x20000030
        0x00003d40:    2500        .%      MOVS     r5,#0
        0x00003d42:    4626        &F      MOV      r6,r4
        0x00003d44:    3620         6      ADDS     r6,r6,#0x20
        0x00003d46:    b081        ..      SUB      sp,sp,#4
        0x00003d48:    4f2a        *O      LDR      r7,[pc,#168] ; [0x3df4] = 0x20000300
        0x00003d4a:    3440        @4      ADDS     r4,r4,#0x40
        0x00003d4c:    e02d        -.      B        0x3daa ; uart2TOpfnCallback + 110
        0x00003d4e:    8be0        ..      LDRH     r0,[r4,#0x1e]
        0x00003d50:    28c7        .(      CMP      r0,#0xc7
        0x00003d52:    d301        ..      BCC      0x3d58 ; uart2TOpfnCallback + 28
        0x00003d54:    2000        .       MOVS     r0,#0
        0x00003d56:    83e0        ..      STRH     r0,[r4,#0x1e]
        0x00003d58:    9801        ..      LDR      r0,[sp,#4]
        0x00003d5a:    8be1        ..      LDRH     r1,[r4,#0x1e]
        0x00003d5c:    5d40        @]      LDRB     r0,[r0,r5]
        0x00003d5e:    5478        xT      STRB     r0,[r7,r1]
        0x00003d60:    8be0        ..      LDRH     r0,[r4,#0x1e]
        0x00003d62:    5c38        8\      LDRB     r0,[r7,r0]
        0x00003d64:    2824        $(      CMP      r0,#0x24
        0x00003d66:    d004        ..      BEQ      0x3d72 ; uart2TOpfnCallback + 54
        0x00003d68:    8be0        ..      LDRH     r0,[r4,#0x1e]
        0x00003d6a:    5c38        8\      LDRB     r0,[r7,r0]
        0x00003d6c:    280a        .(      CMP      r0,#0xa
        0x00003d6e:    d00c        ..      BEQ      0x3d8a ; uart2TOpfnCallback + 78
        0x00003d70:    e016        ..      B        0x3da0 ; uart2TOpfnCallback + 100
        0x00003d72:    2000        .       MOVS     r0,#0
        0x00003d74:    4601        .F      MOV      r1,r0
        0x00003d76:    5439        9T      STRB     r1,[r7,r0]
        0x00003d78:    1c40        @.      ADDS     r0,r0,#1
        0x00003d7a:    b2c0        ..      UXTB     r0,r0
        0x00003d7c:    28c8        .(      CMP      r0,#0xc8
        0x00003d7e:    d3fa        ..      BCC      0x3d76 ; uart2TOpfnCallback + 58
        0x00003d80:    83e1        ..      STRH     r1,[r4,#0x1e]
        0x00003d82:    8be1        ..      LDRH     r1,[r4,#0x1e]
        0x00003d84:    2024        $       MOVS     r0,#0x24
        0x00003d86:    5478        xT      STRB     r0,[r7,r1]
        0x00003d88:    e00a        ..      B        0x3da0 ; uart2TOpfnCallback + 100
        0x00003d8a:    7838        8x      LDRB     r0,[r7,#0]
        0x00003d8c:    2824        $(      CMP      r0,#0x24
        0x00003d8e:    d010        ..      BEQ      0x3db2 ; uart2TOpfnCallback + 118
        0x00003d90:    2000        .       MOVS     r0,#0
        0x00003d92:    4601        .F      MOV      r1,r0
        0x00003d94:    5439        9T      STRB     r1,[r7,r0]
        0x00003d96:    1c40        @.      ADDS     r0,r0,#1
        0x00003d98:    b2c0        ..      UXTB     r0,r0
        0x00003d9a:    28c8        .(      CMP      r0,#0xc8
        0x00003d9c:    d3fa        ..      BCC      0x3d94 ; uart2TOpfnCallback + 88
        0x00003d9e:    83e1        ..      STRH     r1,[r4,#0x1e]
        0x00003da0:    8be0        ..      LDRH     r0,[r4,#0x1e]
        0x00003da2:    1c40        @.      ADDS     r0,r0,#1
        0x00003da4:    83e0        ..      STRH     r0,[r4,#0x1e]
        0x00003da6:    1c6d        m.      ADDS     r5,r5,#1
        0x00003da8:    b2ed        ..      UXTB     r5,r5
        0x00003daa:    9802        ..      LDR      r0,[sp,#8]
        0x00003dac:    4285        .B      CMP      r5,r0
        0x00003dae:    d3ce        ..      BCC      0x3d4e ; uart2TOpfnCallback + 18
        0x00003db0:    bdfe        ..      POP      {r1-r7,pc}
        0x00003db2:    a111        ..      ADR      r1,{pc}+0x46 ; 0x3df8
        0x00003db4:    480f        .H      LDR      r0,[pc,#60] ; [0x3df4] = 0x20000300
        0x00003db6:    f7fcfa6f    ..o.    BL       strstr ; 0x298
        0x00003dba:    2800        .(      CMP      r0,#0
        0x00003dbc:    d00b        ..      BEQ      0x3dd6 ; uart2TOpfnCallback + 154
        0x00003dbe:    7a70        pz      LDRB     r0,[r6,#9]
        0x00003dc0:    2800        .(      CMP      r0,#0
        0x00003dc2:    d1ed        ..      BNE      0x3da0 ; uart2TOpfnCallback + 100
        0x00003dc4:    490b        .I      LDR      r1,[pc,#44] ; [0x3df4] = 0x20000300
        0x00003dc6:    224c        L"      MOVS     r2,#0x4c
        0x00003dc8:    4608        .F      MOV      r0,r1
        0x00003dca:    30c8        .0      ADDS     r0,r0,#0xc8
        0x00003dcc:    f7fcfa3f    ..?.    BL       __aeabi_memcpy ; 0x24e
        0x00003dd0:    2001        .       MOVS     r0,#1
        0x00003dd2:    7270        pr      STRB     r0,[r6,#9]
        0x00003dd4:    e7e4        ..      B        0x3da0 ; uart2TOpfnCallback + 100
        0x00003dd6:    a10a        ..      ADR      r1,{pc}+0x2a ; 0x3e00
        0x00003dd8:    4806        .H      LDR      r0,[pc,#24] ; [0x3df4] = 0x20000300
        0x00003dda:    f7fcfa5d    ..].    BL       strstr ; 0x298
        0x00003dde:    2800        .(      CMP      r0,#0
        0x00003de0:    d1de        ..      BNE      0x3da0 ; uart2TOpfnCallback + 100
        0x00003de2:    2100        .!      MOVS     r1,#0
        0x00003de4:    5439        9T      STRB     r1,[r7,r0]
        0x00003de6:    1c40        @.      ADDS     r0,r0,#1
        0x00003de8:    b2c0        ..      UXTB     r0,r0
        0x00003dea:    28c8        .(      CMP      r0,#0xc8
        0x00003dec:    d3fa        ..      BCC      0x3de4 ; uart2TOpfnCallback + 168
        0x00003dee:    e7d6        ..      B        0x3d9e ; uart2TOpfnCallback + 98
    $d
        0x00003df0:    20000030    0..     DCD    536870960
        0x00003df4:    20000300    ...     DCD    536871680
        0x00003df8:    474e4724    $GNG    DCD    1196312356
        0x00003dfc:    00004147    GA..    DCD    16711
        0x00003e00:    524e4724    $GNR    DCD    1380861732
        0x00003e04:    0000434d    MC..    DCD    17229
    $t
    i.uart2pfnCallback
    uart2pfnCallback
        0x00003e08:    b5f3        ..      PUSH     {r0,r1,r4-r7,lr}
        0x00003e0a:    4c2c        ,L      LDR      r4,[pc,#176] ; [0x3ebc] = 0x20000030
        0x00003e0c:    2500        .%      MOVS     r5,#0
        0x00003e0e:    4626        &F      MOV      r6,r4
        0x00003e10:    3620         6      ADDS     r6,r6,#0x20
        0x00003e12:    b081        ..      SUB      sp,sp,#4
        0x00003e14:    4f2a        *O      LDR      r7,[pc,#168] ; [0x3ec0] = 0x20000300
        0x00003e16:    3440        @4      ADDS     r4,r4,#0x40
        0x00003e18:    e02d        -.      B        0x3e76 ; uart2pfnCallback + 110
        0x00003e1a:    8be0        ..      LDRH     r0,[r4,#0x1e]
        0x00003e1c:    28c7        .(      CMP      r0,#0xc7
        0x00003e1e:    d301        ..      BCC      0x3e24 ; uart2pfnCallback + 28
        0x00003e20:    2000        .       MOVS     r0,#0
        0x00003e22:    83e0        ..      STRH     r0,[r4,#0x1e]
        0x00003e24:    9801        ..      LDR      r0,[sp,#4]
        0x00003e26:    8be1        ..      LDRH     r1,[r4,#0x1e]
        0x00003e28:    5d40        @]      LDRB     r0,[r0,r5]
        0x00003e2a:    5478        xT      STRB     r0,[r7,r1]
        0x00003e2c:    8be0        ..      LDRH     r0,[r4,#0x1e]
        0x00003e2e:    5c38        8\      LDRB     r0,[r7,r0]
        0x00003e30:    2824        $(      CMP      r0,#0x24
        0x00003e32:    d004        ..      BEQ      0x3e3e ; uart2pfnCallback + 54
        0x00003e34:    8be0        ..      LDRH     r0,[r4,#0x1e]
        0x00003e36:    5c38        8\      LDRB     r0,[r7,r0]
        0x00003e38:    280a        .(      CMP      r0,#0xa
        0x00003e3a:    d00c        ..      BEQ      0x3e56 ; uart2pfnCallback + 78
        0x00003e3c:    e016        ..      B        0x3e6c ; uart2pfnCallback + 100
        0x00003e3e:    2000        .       MOVS     r0,#0
        0x00003e40:    4601        .F      MOV      r1,r0
        0x00003e42:    5439        9T      STRB     r1,[r7,r0]
        0x00003e44:    1c40        @.      ADDS     r0,r0,#1
        0x00003e46:    b2c0        ..      UXTB     r0,r0
        0x00003e48:    28c8        .(      CMP      r0,#0xc8
        0x00003e4a:    d3fa        ..      BCC      0x3e42 ; uart2pfnCallback + 58
        0x00003e4c:    83e1        ..      STRH     r1,[r4,#0x1e]
        0x00003e4e:    8be1        ..      LDRH     r1,[r4,#0x1e]
        0x00003e50:    2024        $       MOVS     r0,#0x24
        0x00003e52:    5478        xT      STRB     r0,[r7,r1]
        0x00003e54:    e00a        ..      B        0x3e6c ; uart2pfnCallback + 100
        0x00003e56:    7838        8x      LDRB     r0,[r7,#0]
        0x00003e58:    2824        $(      CMP      r0,#0x24
        0x00003e5a:    d010        ..      BEQ      0x3e7e ; uart2pfnCallback + 118
        0x00003e5c:    2000        .       MOVS     r0,#0
        0x00003e5e:    4601        .F      MOV      r1,r0
        0x00003e60:    5439        9T      STRB     r1,[r7,r0]
        0x00003e62:    1c40        @.      ADDS     r0,r0,#1
        0x00003e64:    b2c0        ..      UXTB     r0,r0
        0x00003e66:    28c8        .(      CMP      r0,#0xc8
        0x00003e68:    d3fa        ..      BCC      0x3e60 ; uart2pfnCallback + 88
        0x00003e6a:    83e1        ..      STRH     r1,[r4,#0x1e]
        0x00003e6c:    8be0        ..      LDRH     r0,[r4,#0x1e]
        0x00003e6e:    1c40        @.      ADDS     r0,r0,#1
        0x00003e70:    83e0        ..      STRH     r0,[r4,#0x1e]
        0x00003e72:    1c6d        m.      ADDS     r5,r5,#1
        0x00003e74:    b2ed        ..      UXTB     r5,r5
        0x00003e76:    9802        ..      LDR      r0,[sp,#8]
        0x00003e78:    4285        .B      CMP      r5,r0
        0x00003e7a:    d3ce        ..      BCC      0x3e1a ; uart2pfnCallback + 18
        0x00003e7c:    bdfe        ..      POP      {r1-r7,pc}
        0x00003e7e:    a111        ..      ADR      r1,{pc}+0x46 ; 0x3ec4
        0x00003e80:    480f        .H      LDR      r0,[pc,#60] ; [0x3ec0] = 0x20000300
        0x00003e82:    f7fcfa09    ....    BL       strstr ; 0x298
        0x00003e86:    2800        .(      CMP      r0,#0
        0x00003e88:    d00b        ..      BEQ      0x3ea2 ; uart2pfnCallback + 154
        0x00003e8a:    7a70        pz      LDRB     r0,[r6,#9]
        0x00003e8c:    2800        .(      CMP      r0,#0
        0x00003e8e:    d1ed        ..      BNE      0x3e6c ; uart2pfnCallback + 100
        0x00003e90:    490b        .I      LDR      r1,[pc,#44] ; [0x3ec0] = 0x20000300
        0x00003e92:    2244        D"      MOVS     r2,#0x44
        0x00003e94:    4608        .F      MOV      r0,r1
        0x00003e96:    30c8        .0      ADDS     r0,r0,#0xc8
        0x00003e98:    f7fcf9d9    ....    BL       __aeabi_memcpy ; 0x24e
        0x00003e9c:    2001        .       MOVS     r0,#1
        0x00003e9e:    7270        pr      STRB     r0,[r6,#9]
        0x00003ea0:    e7e4        ..      B        0x3e6c ; uart2pfnCallback + 100
        0x00003ea2:    a10a        ..      ADR      r1,{pc}+0x2a ; 0x3ecc
        0x00003ea4:    4806        .H      LDR      r0,[pc,#24] ; [0x3ec0] = 0x20000300
        0x00003ea6:    f7fcf9f7    ....    BL       strstr ; 0x298
        0x00003eaa:    2800        .(      CMP      r0,#0
        0x00003eac:    d1de        ..      BNE      0x3e6c ; uart2pfnCallback + 100
        0x00003eae:    2100        .!      MOVS     r1,#0
        0x00003eb0:    5439        9T      STRB     r1,[r7,r0]
        0x00003eb2:    1c40        @.      ADDS     r0,r0,#1
        0x00003eb4:    b2c0        ..      UXTB     r0,r0
        0x00003eb6:    28c8        .(      CMP      r0,#0xc8
        0x00003eb8:    d3fa        ..      BCC      0x3eb0 ; uart2pfnCallback + 168
        0x00003eba:    e7d6        ..      B        0x3e6a ; uart2pfnCallback + 98
    $d
        0x00003ebc:    20000030    0..     DCD    536870960
        0x00003ec0:    20000300    ...     DCD    536871680
        0x00003ec4:    524e4724    $GNR    DCD    1380861732
        0x00003ec8:    0000434d    MC..    DCD    17229
        0x00003ecc:    56504724    $GPV    DCD    1448101668
        0x00003ed0:    00004754    TG..    DCD    18260
    $t
    i.uartTOpfnCallback
    uartTOpfnCallback
        0x00003ed4:    b570        p.      PUSH     {r4-r6,lr}
        0x00003ed6:    4c0e        .L      LDR      r4,[pc,#56] ; [0x3f10] = 0x20000070
        0x00003ed8:    4605        .F      MOV      r5,r0
        0x00003eda:    8b60        `.      LDRH     r0,[r4,#0x1a]
        0x00003edc:    460e        .F      MOV      r6,r1
        0x00003ede:    21ff        .!      MOVS     r1,#0xff
        0x00003ee0:    312d        -1      ADDS     r1,r1,#0x2d
        0x00003ee2:    4288        .B      CMP      r0,r1
        0x00003ee4:    d305        ..      BCC      0x3ef2 ; uartTOpfnCallback + 30
        0x00003ee6:    480b        .H      LDR      r0,[pc,#44] ; [0x3f14] = 0x20000b3b
        0x00003ee8:    f7fcf9ca    ....    BL       __aeabi_memclr ; 0x280
        0x00003eec:    2000        .       MOVS     r0,#0
        0x00003eee:    8360        `.      STRH     r0,[r4,#0x1a]
        0x00003ef0:    83a0        ..      STRH     r0,[r4,#0x1c]
        0x00003ef2:    2200        ."      MOVS     r2,#0
        0x00003ef4:    4907        .I      LDR      r1,[pc,#28] ; [0x3f14] = 0x20000b3b
        0x00003ef6:    e007        ..      B        0x3f08 ; uartTOpfnCallback + 52
        0x00003ef8:    5ca8        .\      LDRB     r0,[r5,r2]
        0x00003efa:    8b63        c.      LDRH     r3,[r4,#0x1a]
        0x00003efc:    54c8        .T      STRB     r0,[r1,r3]
        0x00003efe:    8b60        `.      LDRH     r0,[r4,#0x1a]
        0x00003f00:    1c40        @.      ADDS     r0,r0,#1
        0x00003f02:    8360        `.      STRH     r0,[r4,#0x1a]
        0x00003f04:    1c52        R.      ADDS     r2,r2,#1
        0x00003f06:    b2d2        ..      UXTB     r2,r2
        0x00003f08:    42b2        .B      CMP      r2,r6
        0x00003f0a:    d3f5        ..      BCC      0x3ef8 ; uartTOpfnCallback + 36
        0x00003f0c:    bd70        p.      POP      {r4-r6,pc}
    $d
        0x00003f0e:    0000        ..      DCW    0
        0x00003f10:    20000070    p..     DCD    536871024
        0x00003f14:    20000b3b    ;..     DCD    536873787
    $t
    i.uartpfnCallback
    uartpfnCallback
        0x00003f18:    b570        p.      PUSH     {r4-r6,lr}
        0x00003f1a:    4c0e        .L      LDR      r4,[pc,#56] ; [0x3f54] = 0x20000070
        0x00003f1c:    4605        .F      MOV      r5,r0
        0x00003f1e:    8b60        `.      LDRH     r0,[r4,#0x1a]
        0x00003f20:    460e        .F      MOV      r6,r1
        0x00003f22:    21ff        .!      MOVS     r1,#0xff
        0x00003f24:    312d        -1      ADDS     r1,r1,#0x2d
        0x00003f26:    4288        .B      CMP      r0,r1
        0x00003f28:    d305        ..      BCC      0x3f36 ; uartpfnCallback + 30
        0x00003f2a:    480b        .H      LDR      r0,[pc,#44] ; [0x3f58] = 0x20000b3b
        0x00003f2c:    f7fcf9a8    ....    BL       __aeabi_memclr ; 0x280
        0x00003f30:    2000        .       MOVS     r0,#0
        0x00003f32:    8360        `.      STRH     r0,[r4,#0x1a]
        0x00003f34:    83a0        ..      STRH     r0,[r4,#0x1c]
        0x00003f36:    2200        ."      MOVS     r2,#0
        0x00003f38:    4907        .I      LDR      r1,[pc,#28] ; [0x3f58] = 0x20000b3b
        0x00003f3a:    e007        ..      B        0x3f4c ; uartpfnCallback + 52
        0x00003f3c:    5ca8        .\      LDRB     r0,[r5,r2]
        0x00003f3e:    8b63        c.      LDRH     r3,[r4,#0x1a]
        0x00003f40:    54c8        .T      STRB     r0,[r1,r3]
        0x00003f42:    8b60        `.      LDRH     r0,[r4,#0x1a]
        0x00003f44:    1c40        @.      ADDS     r0,r0,#1
        0x00003f46:    8360        `.      STRH     r0,[r4,#0x1a]
        0x00003f48:    1c52        R.      ADDS     r2,r2,#1
        0x00003f4a:    b2d2        ..      UXTB     r2,r2
        0x00003f4c:    42b2        .B      CMP      r2,r6
        0x00003f4e:    d3f5        ..      BCC      0x3f3c ; uartpfnCallback + 36
        0x00003f50:    bd70        p.      POP      {r4-r6,pc}
    $d
        0x00003f52:    0000        ..      DCW    0
        0x00003f54:    20000070    p..     DCD    536871024
        0x00003f58:    20000b3b    ;..     DCD    536873787
    $d.realdata
    .constdata
    ctable
        0x00003f5c:    000186a0    ....    DCD    100000
        0x00003f60:    00018690    ....    DCD    99984
        0x00003f64:    00018663    c...    DCD    99939
        0x00003f68:    00018617    ....    DCD    99863
        0x00003f6c:    000185ac    ....    DCD    99756
        0x00003f70:    00018523    #...    DCD    99619
        0x00003f74:    0001847c    |...    DCD    99452
        0x00003f78:    000183b6    ....    DCD    99254
        0x00003f7c:    000182d2    ....    DCD    99026
        0x00003f80:    000181d0    ....    DCD    98768
        0x00003f84:    000180b0    ....    DCD    98480
        0x00003f88:    00017f72    r...    DCD    98162
        0x00003f8c:    00017e16    .~..    DCD    97814
        0x00003f90:    00017c9d    .|..    DCD    97437
        0x00003f94:    00017b05    .{..    DCD    97029
        0x00003f98:    00017950    Py..    DCD    96592
        0x00003f9c:    0001777e    ~w..    DCD    96126
        0x00003fa0:    0001758e    .u..    DCD    95630
        0x00003fa4:    00017381    .s..    DCD    95105
        0x00003fa8:    00017157    Wq..    DCD    94551
        0x00003fac:    00016f11    .o..    DCD    93969
        0x00003fb0:    00016cae    .l..    DCD    93358
        0x00003fb4:    00016a2e    .j..    DCD    92718
        0x00003fb8:    00016792    .g..    DCD    92050
        0x00003fbc:    000164da    .d..    DCD    91354
        0x00003fc0:    00016206    .b..    DCD    90630
        0x00003fc4:    00015f17    ._..    DCD    89879
        0x00003fc8:    00015c0c    .\..    DCD    89100
        0x00003fcc:    000158e6    .X..    DCD    88294
        0x00003fd0:    000155a6    .U..    DCD    87462
        0x00003fd4:    0001524a    JR..    DCD    86602
        0x00003fd8:    00014ed4    .N..    DCD    85716
        0x00003fdc:    00014b44    DK..    DCD    84804
        0x00003fe0:    0001479b    .G..    DCD    83867
        0x00003fe4:    000143d7    .C..    DCD    82903
        0x00003fe8:    00013ffb    .?..    DCD    81915
        0x00003fec:    00013c05    .<..    DCD    80901
        0x00003ff0:    000137f7    .7..    DCD    79863
        0x00003ff4:    000133d1    .3..    DCD    78801
        0x00003ff8:    00012f92    ./..    DCD    77714
        0x00003ffc:    00012b3c    <+..    DCD    76604
        0x00004000:    000126cf    .&..    DCD    75471
        0x00004004:    0001224a    J"..    DCD    74314
        0x00004008:    00011daf    ....    DCD    73135
        0x0000400c:    000118fe    ....    DCD    71934
        0x00004010:    00011436    6...    DCD    70710
        0x00004014:    00010f59    Y...    DCD    69465
        0x00004018:    00010a67    g...    DCD    68199
        0x0000401c:    00010561    a...    DCD    66913
        0x00004020:    00010045    E...    DCD    65605
        0x00004024:    0000fb16    ....    DCD    64278
        0x00004028:    0000f5d4    ....    DCD    62932
        0x0000402c:    0000f07e    ~...    DCD    61566
        0x00004030:    0000eb15    ....    DCD    60181
        0x00004034:    0000e59a    ....    DCD    58778
        0x00004038:    0000e00d    ....    DCD    57357
        0x0000403c:    0000da6f    o...    DCD    55919
        0x00004040:    0000d4bf    ....    DCD    54463
        0x00004044:    0000ceff    ....    DCD    52991
        0x00004048:    0000c92f    /...    DCD    51503
        0x0000404c:    0000c350    P...    DCD    50000
        0x00004050:    0000bd61    a...    DCD    48481
        0x00004054:    0000b763    c...    DCD    46947
        0x00004058:    0000b157    W...    DCD    45399
        0x0000405c:    0000ab3d    =...    DCD    43837
        0x00004060:    0000a515    ....    DCD    42261
        0x00004064:    00009ee1    ....    DCD    40673
        0x00004068:    000098a1    ....    DCD    39073
        0x0000406c:    00008bfc    ....    DCD    35836
        0x00004070:    0000859a    ....    DCD    34202
        0x00004074:    00007f2c    ,...    DCD    32556
        0x00004078:    000078b5    .x..    DCD    30901
        0x0000407c:    00007235    5r..    DCD    29237
        0x00004080:    00006bab    .k..    DCD    27563
        0x00004084:    00006519    .e..    DCD    25881
        0x00004088:    00005e80    .^..    DCD    24192
        0x0000408c:    000057df    .W..    DCD    22495
        0x00004090:    00005137    7Q..    DCD    20791
        0x00004094:    00004a88    .J..    DCD    19080
        0x00004098:    000043d4    .C..    DCD    17364
        0x0000409c:    00003d1b    .=..    DCD    15643
        0x000040a0:    0000365d    ]6..    DCD    13917
        0x000040a4:    00002f9a    ./..    DCD    12186
        0x000040a8:    000028d4    .(..    DCD    10452
        0x000040ac:    0000220b    ."..    DCD    8715
        0x000040b0:    00001b3f    ?...    DCD    6975
        0x000040b4:    00001471    q...    DCD    5233
        0x000040b8:    00000da1    ....    DCD    3489
        0x000040bc:    000006d1    ....    DCD    1745
        0x000040c0:    00000000    ....    DCD    0
        0x000040c4:    00000000    ....    DCD    0
        0x000040c8:    33323130    0123    DCD    858927408
        0x000040cc:    37363534    4567    DCD    926299444
        0x000040d0:    42413938    89AB    DCD    1111570744
        0x000040d4:    46454443    CDEF    DCD    1178944579
        0x000040d8:    4a494847    GHIJ    DCD    1246316615
        0x000040dc:    4e4d4c4b    KLMN    DCD    1313688651
        0x000040e0:    5251504f    OPQR    DCD    1381060687
        0x000040e4:    56555453    STUV    DCD    1448432723
        0x000040e8:    5a595857    WXYZ    DCD    1515804759
        0x000040ec:    64636261    abcd    DCD    1684234849
        0x000040f0:    68676665    efgh    DCD    1751606885
        0x000040f4:    6c6b6a69    ijkl    DCD    1818978921
        0x000040f8:    706f6e6d    mnop    DCD    1886350957
        0x000040fc:    74737271    qrst    DCD    1953722993
        0x00004100:    78777675    uvwx    DCD    2021095029
        0x00004104:    00007a79    yz..    DCD    31353
    .constdata
        0x00004108:    00b71b00    ....    DCD    12000000
        0x0000410c:    00000000    ....    DCD    0
        0x00004110:    00000000    ....    DCD    0
        0x00004114:    01518000    ..Q.    DCD    22118400
        0x00004118:    00b71b00    ....    DCD    12000000
        0x0000411c:    00000000    ....    DCD    0
        0x00004120:    00000000    ....    DCD    0
        0x00004124:    01518000    ..Q.    DCD    22118400
        0x00004128:    00b71b00    ....    DCD    12000000
        0x0000412c:    00000000    ....    DCD    0
        0x00004130:    00000000    ....    DCD    0
        0x00004134:    01518000    ..Q.    DCD    22118400
    .constdata
        0x00004138:    00000000    ....    DCD    0
        0x0000413c:    00000004    ....    DCD    4
        0x00004140:    0000000c    ....    DCD    12
        0x00004144:    00000024    $...    DCD    36
        0x00004148:    00000000    ....    DCD    0
        0x0000414c:    00000004    ....    DCD    4
        0x00004150:    0000002c    ,...    DCD    44
        0x00004154:    00000000    ....    DCD    0
        0x00004158:    00000000    ....    DCD    0
        0x0000415c:    00000004    ....    DCD    4
        0x00004160:    0000002c    ,...    DCD    44
        0x00004164:    00000000    ....    DCD    0
    .constdata
        0x00004168:    00b71b00    ....    DCD    12000000
        0x0000416c:    00000000    ....    DCD    0
        0x00004170:    00000000    ....    DCD    0
        0x00004174:    00000000    ....    DCD    0
        0x00004178:    00000000    ....    DCD    0
        0x0000417c:    00002710    .'..    DCD    10000
        0x00004180:    00000000    ....    DCD    0
        0x00004184:    01518000    ..Q.    DCD    22118400
    .conststring
        0x00004188:    4552432b    +CRE    DCD    1163019051
        0x0000418c:    30203a47    G: 0    DCD    807418439
        0x00004190:    0a0d312c    ,1..    DCD    168636716
        0x00004194:    4b4f0a0d    ..OK    DCD    1263471117
        0x00004198:    61000a0d    ...a    DCD    1627392525
        0x0000419c:    0a0d0d74    t...    DCD    168627572
        0x000041a0:    0a0d4b4f    OK..    DCD    168643407
        0x000041a4:    2b544100    .AT+    DCD    726941952
        0x000041a8:    54545343    CSTT    DCD    1414812483
        0x000041ac:    4d43223d    ="CM    DCD    1296245309
        0x000041b0:    2254454e    NET"    DCD    575948110
        0x000041b4:    7461000d    ..at    DCD    1952514061
        0x000041b8:    7069632b    +cip    DCD    1885954859
        0x000041bc:    3d78756d    mux=    DCD    1031304557
        0x000041c0:    41000d31    1..A    DCD    1090522417
        0x000041c4:    49432b54    T+CI    DCD    1229138772
        0x000041c8:    41545350    PSTA    DCD    1096045392
        0x000041cc:    303d5452    RT=0    DCD    809325650
        0x000041d0:    4354222c    ,"TC    DCD    1129587244
        0x000041d4:    222c2250    P","    DCD    573317712
        0x000041d8:    2e313731    171.    DCD    774977329
        0x000041dc:    32322e38    8.22    DCD    842149432
        0x000041e0:    34322e35    5.24    DCD    875703861
        0x000041e4:    382c2236    6",8    DCD    942416438
        0x000041e8:    0d333030    003.    DCD    221458480
        0x000041ec:    2b746100    .at+    DCD    729047296
        0x000041f0:    67657263    creg    DCD    1734701667
        0x000041f4:    41000d3f    ?..A    DCD    1090522431
        0x000041f8:    43432b54    T+CC    DCD    1128475476
        0x000041fc:    000d4449    ID..    DCD    869449
        0x00004200:    432b5441    AT+C    DCD    1126913089
        0x00004204:    52434949    IICR    DCD    1380141385
        0x00004208:    5441000d    ..AT    DCD    1413545997
        0x0000420c:    4649432b    +CIF    DCD    1179206443
        0x00004210:    000d5253    SR..    DCD    873043
        0x00004214:    432b5441    AT+C    DCD    1126913089
        0x00004218:    48535049    IPSH    DCD    1213419593
        0x0000421c:    000d5455    UT..    DCD    873557
        0x00004220:    000d7461    at..    DCD    881761
        0x00004224:    432b5441    AT+C    DCD    1126913089
        0x00004228:    45535049    IPSE    DCD    1163087945
        0x0000422c:    303d444e    ND=0    DCD    809321550
        0x00004230:    003e002c    ,.>.    DCD    4063276
        0x00004234:    444e4553    SEND    DCD    1145980243
        0x00004238:    004b4f20     OK.    DCD    4935456
        0x0000423c:    4e4e4f43    CONN    DCD    1313754947
        0x00004240:    20544345    ECT     DCD    542393157
        0x00004244:    00004b4f    OK..    DCD    19279
    Region$$Table$$Base
        0x00004248:    00004268    hB..    DCD    17000
        0x0000424c:    20000000    ...     DCD    536870912
        0x00004250:    00000234    4...    DCD    564
        0x00004254:    00002cce    .,..    DCD    11470
        0x00004258:    0000449c    .D..    DCD    17564
        0x0000425c:    20000234    4..     DCD    536871476
        0x00004260:    00000e7c    |...    DCD    3708
        0x00004264:    00002cde    .,..    DCD    11486
    Region$$Table$$Limit

** Section #2 'ER_RW' (SHT_PROGBITS) [SHF_ALLOC + SHF_WRITE]
    Size   : 564 bytes (alignment 8)
    Address: 0x20000000


** Section #3 'ER_ZI' (SHT_NOBITS) [SHF_ALLOC + SHF_WRITE]
    Size   : 3708 bytes (alignment 8)
    Address: 0x20000234


** Section #4 '.debug_abbrev' (SHT_PROGBITS)
    Size   : 1476 bytes


** Section #5 '.debug_frame' (SHT_PROGBITS)
    Size   : 3996 bytes


** Section #6 '.debug_info' (SHT_PROGBITS)
    Size   : 65812 bytes


** Section #7 '.debug_line' (SHT_PROGBITS)
    Size   : 25832 bytes


** Section #8 '.debug_loc' (SHT_PROGBITS)
    Size   : 10084 bytes


** Section #9 '.debug_macinfo' (SHT_PROGBITS)
    Size   : 284400 bytes


** Section #10 '.debug_pubnames' (SHT_PROGBITS)
    Size   : 7281 bytes


** Section #11 '.symtab' (SHT_SYMTAB)
    Size   : 12512 bytes (alignment 4)
    String table #12 '.strtab'
    Last local symbol no. 414


** Section #12 '.strtab' (SHT_STRTAB)
    Size   : 8296 bytes


** Section #13 '.note' (SHT_NOTE)
    Size   : 28 bytes (alignment 4)


** Section #14 '.comment' (SHT_PROGBITS)
    Size   : 9124 bytes


** Section #15 '.shstrtab' (SHT_STRTAB)
    Size   : 156 bytes


